(lp0
(I0
I1600
(lp1
(S'sto-iht'
p2
I11
F7.124140024185181
I11
F0.0022170543670654297
cnumpy.core.multiarray
scalar
p3
(cnumpy
dtype
p4
(S'f8'
p5
I0
I1
tp6
Rp7
(I3
S'<'
p8
NNNI-1
I-1
I0
tp9
bS'8\xaf\xe55\xc7fx>'
p10
tp11
Rp12
tp13
a(S'graph-sto-iht'
p14
I11
F7.379835844039917
I11
F0.2900509834289551
g3
(g7
S'\x08=n\xca\xf8\x11c>'
p15
tp16
Rp17
tp18
atp19
a(I1
I1600
(lp20
(g2
I11
F7.0463879108428955
I11
F0.002197742462158203
g3
(g7
S'\x8b\x95\xc2\x02\xd4\xfcg>'
p21
tp22
Rp23
tp24
a(g14
I11
F7.429723024368286
I11
F0.14464163780212402
g3
(g7
S'T\xc2d\xc97\xefW>'
p25
tp26
Rp27
tp28
atp29
a(I2
I1600
(lp30
(S'sto-iht'
p31
I11
F7.175546884536743
I11
F0.0023202896118164062
g3
(g7
S'\xca[\x1f5\xea\xc3f>'
p32
tp33
Rp34
tp35
a(S'graph-sto-iht'
p36
I11
F7.370294094085693
I11
F0.2036294937133789
g3
(g7
S'\xe3\x18\xd4<\x194g>'
p37
tp38
Rp39
tp40
atp41
a(I3
I1600
(lp42
(g31
I11
F7.034297943115234
I11
F0.002367734909057617
g3
(g7
S'w\x13\xdcI\xd84b>'
p43
tp44
Rp45
tp46
a(g36
I11
F7.524889945983887
I11
F0.22701263427734375
g3
(g7
S'\xe3\xf3r(\x83id>'
p47
tp48
Rp49
tp50
atp51
a(I4
I1600
(lp52
(S'sto-iht'
p53
I11
F7.173546075820923
I11
F0.0022852420806884766
g3
(g7
S'\x94\x83q:\xd3\x90h>'
p54
tp55
Rp56
tp57
a(S'graph-sto-iht'
p58
I11
F7.210220098495483
I11
F0.12438178062438965
g3
(g7
S'9\t\x06\x9dh\x8fi>'
p59
tp60
Rp61
tp62
atp63
a(I5
I1600
(lp64
(g53
I12
F7.727536916732788
I12
F0.002277851104736328
g3
(g7
S'\x7fK\\\x19\xaa\x10Y>'
p65
tp66
Rp67
tp68
a(g58
I11
F7.403095006942749
I11
F0.15616750717163086
g3
(g7
S'\x80?\xe9\xf8\x8bKs>'
p69
tp70
Rp71
tp72
atp73
a(I6
I1600
(lp74
(S'sto-iht'
p75
I11
F3.87233304977417
I11
F0.0016169548034667969
g3
(g7
S'{\xaa\x98\xa8+Uu>'
p76
tp77
Rp78
tp79
a(S'graph-sto-iht'
p80
I11
F3.9634599685668945
I11
F0.09780168533325195
g3
(g7
S'\x1a\xba{9V\xecg>'
p81
tp82
Rp83
tp84
atp85
a(I7
I1600
(lp86
(g75
I13
F4.537316799163818
I13
F0.0018222332000732422
g3
(g7
S'\xaas\x15\xf7\xc8\x84i>'
p87
tp88
Rp89
tp90
a(g80
I12
F4.370084047317505
I12
F0.15184593200683594
g3
(g7
S'\x07\xefs.\xfc\x87u>'
p91
tp92
Rp93
tp94
atp95
a(I8
I1600
(lp96
(S'sto-iht'
p97
I11
F3.9221839904785156
I11
F0.0017445087432861328
g3
(g7
S'\x86\x17\x0e\xec\x80Fx>'
p98
tp99
Rp100
tp101
a(S'graph-sto-iht'
p102
I11
F4.014832973480225
I11
F0.10278630256652832
g3
(g7
S'\xd9\x85v\xe7\x99\x13s>'
p103
tp104
Rp105
tp106
atp107
a(I9
I1600
(lp108
(g97
I11
F3.850908041000366
I11
F0.0016434192657470703
g3
(g7
S'\xb1.\xaa\xbe\x9d\xacr>'
p109
tp110
Rp111
tp112
a(g102
I11
F3.9670770168304443
I11
F0.13840174674987793
g3
(g7
S'g\x93.2p\xc9]>'
p113
tp114
Rp115
tp116
atp117
a(I10
I1600
(lp118
(S'sto-iht'
p119
I12
F7.844511032104492
I12
F0.002388477325439453
g3
(g7
S'\x15\xf4Qn\xd6\x13w>'
p120
tp121
Rp122
tp123
a(S'graph-sto-iht'
p124
I12
F8.019776105880737
I12
F0.29798007011413574
g3
(g7
S'%\xea\xf5x?\x98h>'
p125
tp126
Rp127
tp128
atp129
a(I11
I1600
(lp130
(g119
I11
F7.224385023117065
I11
F0.0020813941955566406
g3
(g7
S'\xba\xb4\x0e\xf8q\xd4R>'
p131
tp132
Rp133
tp134
a(g124
I11
F7.537813901901245
I11
F0.19479990005493164
g3
(g7
S'\xd3\x7f\xde\xab\x82\xe7V>'
p135
tp136
Rp137
tp138
atp139
a(I12
I1600
(lp140
(S'sto-iht'
p141
I12
F7.996105909347534
I12
F0.0025298595428466797
g3
(g7
S'e\xaa\xc9\x83T\x99o>'
p142
tp143
Rp144
tp145
a(S'graph-sto-iht'
p146
I12
F7.944159984588623
I12
F0.17794251441955566
g3
(g7
S'.<\xfc\xd2\xd0|b>'
p147
tp148
Rp149
tp150
atp151
a(I13
I1600
(lp152
(g141
I13
F8.656002044677734
I13
F0.002715587615966797
g3
(g7
S'\xf8\x01\\3\x1d\xa1\\>'
p153
tp154
Rp155
tp156
a(g146
I12
F8.251857042312622
I12
F0.15362310409545898
g3
(g7
S'\xb3\xc4\r^.~r>'
p157
tp158
Rp159
tp160
atp161
a(I14
I1600
(lp162
(S'sto-iht'
p163
I11
F7.196324825286865
I11
F0.002091646194458008
g3
(g7
S'\x03RM1x#j>'
p164
tp165
Rp166
tp167
a(S'graph-sto-iht'
p168
I10
F6.7736101150512695
I10
F0.2816658020019531
g3
(g7
S'FW=,\x02\xc6i>'
p169
tp170
Rp171
tp172
atp173
a(I15
I1600
(lp174
(g163
I12
F5.1800291538238525
I12
F0.0018591880798339844
g3
(g7
S'^P\t\x98\xdc\xafp>'
p175
tp176
Rp177
tp178
a(g168
I12
F4.384720802307129
I12
F0.105926513671875
g3
(g7
S's\xf0\xc1\xdb\xea\xbfe>'
p179
tp180
Rp181
tp182
atp183
a(I16
I1600
(lp184
(S'sto-iht'
p185
I12
F4.24115514755249
I12
F0.0020017623901367188
g3
(g7
S'V\x0b\x85~)4]>'
p186
tp187
Rp188
tp189
a(S'graph-sto-iht'
p190
I12
F4.346101999282837
I12
F0.12506628036499023
g3
(g7
S'!y\x80)d,Y>'
p191
tp192
Rp193
tp194
atp195
a(I17
I1600
(lp196
(g185
I11
F3.835952043533325
I11
F0.0016536712646484375
g3
(g7
S'\x03F}\xb27\x1fm>'
p197
tp198
Rp199
tp200
a(g190
I11
F3.887971878051758
I11
F0.09579968452453613
g3
(g7
S'\xc7\x06\x1b\xdeS\xd6_>'
p201
tp202
Rp203
tp204
atp205
a(I18
I1600
(lp206
(S'sto-iht'
p207
I10
F6.76085090637207
I10
F0.0019161701202392578
g3
(g7
S"\x9bE'\x97\xd6bp>"
p208
tp209
Rp210
tp211
a(S'graph-sto-iht'
p212
I10
F6.735418081283569
I10
F0.14134883880615234
g3
(g7
S'\xd1\xb1_\xf0PXd>'
p213
tp214
Rp215
tp216
atp217
a(I19
I1600
(lp218
(g207
I11
F7.307366132736206
I11
F0.002100229263305664
g3
(g7
S'\xb0\xfb\x19\xdbj\x83Y>'
p219
tp220
Rp221
tp222
a(g212
I10
F7.275038957595825
I10
F0.1887800693511963
g3
(g7
S'=uH\x96}<{>'
p223
tp224
Rp225
tp226
atp227
a(I20
I1600
(lp228
(S'sto-iht'
p229
I11
F7.151965856552124
I11
F0.0024080276489257812
g3
(g7
S'\x0c\xa2\xcfmf\xc1V>'
p230
tp231
Rp232
tp233
a(S'graph-sto-iht'
p234
I10
F6.5537049770355225
I10
F0.143446683883667
g3
(g7
S'\x1e\xd5_\x9a\x96~i>'
p235
tp236
Rp237
tp238
atp239
a(I21
I1600
(lp240
(g229
I12
F7.710851192474365
I12
F0.0023956298828125
g3
(g7
S'\xed\x82\x84\xc2k\xdcp>'
p241
tp242
Rp243
tp244
a(g234
I12
F8.185074806213379
I12
F0.28487181663513184
g3
(g7
S'\xf7\xa0\xfc\xfc\xd5\xfdi>'
p245
tp246
Rp247
tp248
atp249
a(I22
I1600
(lp250
(S'sto-iht'
p251
I11
F7.428464889526367
I11
F0.0023620128631591797
g3
(g7
S'\x9e\xc0[\x1c\xd6\xabk>'
p252
tp253
Rp254
tp255
a(S'graph-sto-iht'
p256
I10
F6.695882081985474
I10
F0.14320659637451172
g3
(g7
S'\xe0L\x19\xf2\xa9\xb7t>'
p257
tp258
Rp259
tp260
atp261
a(I23
I1600
(lp262
(g251
I11
F7.268547058105469
I11
F0.0020530223846435547
g3
(g7
S'\x8d|\xc8|\xcc\x0cq>'
p263
tp264
Rp265
tp266
a(g256
I11
F7.752557992935181
I11
F0.31691956520080566
g3
(g7
S'+\xfb*\xbf\x03\x8eX>'
p267
tp268
Rp269
tp270
atp271
a(I24
I1600
(lp272
(S'sto-iht'
p273
I11
F7.261587858200073
I11
F0.0021257400512695312
g3
(g7
S'\x10K\xb6\xf7M\xc2\\>'
p274
tp275
Rp276
tp277
a(S'graph-sto-iht'
p278
I11
F7.234764099121094
I11
F0.1504201889038086
g3
(g7
S'\x14\xf3>5\x9b\x18^>'
p279
tp280
Rp281
tp282
atp283
a(I25
I1600
(lp284
(g273
I11
F6.596900939941406
I11
F0.0019507408142089844
g3
(g7
S"@'\xa0\xb5\xd1\x88u>"
p285
tp286
Rp287
tp288
a(g278
I11
F7.6756591796875
I11
F0.20488786697387695
g3
(g7
S',KM?44W>'
p289
tp290
Rp291
tp292
atp293
a(I26
I1600
(lp294
(S'sto-iht'
p295
I12
F8.066614866256714
I12
F0.002911090850830078
g3
(g7
S'\xdb\xb8[\xd6*\xf0U>'
p296
tp297
Rp298
tp299
a(S'graph-sto-iht'
p300
I11
F7.376950979232788
I11
F0.232344388961792
g3
(g7
S"\xe8\x05I'\xdd\x1d_>"
p301
tp302
Rp303
tp304
atp305
a(I27
I1600
(lp306
(g295
I12
F7.920496940612793
I12
F0.0026390552520751953
g3
(g7
S'G\x97\xf2\x0c\r]`>'
p307
tp308
Rp309
tp310
a(g300
I11
F7.483350038528442
I11
F0.15990090370178223
g3
(g7
S'\x0c\x84\x0b/\x9f6s>'
p311
tp312
Rp313
tp314
atp315
a(I28
I1600
(lp316
(S'sto-iht'
p317
I10
F6.588940858840942
I10
F0.002084970474243164
g3
(g7
S'\xb8y\x1b\xfd\x8d\xc5x>'
p318
tp319
Rp320
tp321
a(S'graph-sto-iht'
p322
I10
F6.650506973266602
I10
F0.23138046264648438
g3
(g7
S'\xfc\xd7m\x9b\x9ePt>'
p323
tp324
Rp325
tp326
atp327
a(I29
I1600
(lp328
(g317
I12
F7.735667943954468
I12
F0.0023741722106933594
g3
(g7
S'\x93\xfd1\x0f\xc2[n>'
p329
tp330
Rp331
tp332
a(g322
I12
F8.08988094329834
I12
F0.2204911708831787
g3
(g7
S'\xf3]\xf4\xa2\xb1\xbea>'
p333
tp334
Rp335
tp336
atp337
a(I30
I1600
(lp338
(S'sto-iht'
p339
I11
F7.493377923965454
I11
F0.0021915435791015625
g3
(g7
S'\x10\xb8U\xe2\xb9\x16w>'
p340
tp341
Rp342
tp343
a(S'graph-sto-iht'
p344
I11
F7.5041491985321045
I11
F0.2314004898071289
g3
(g7
S'\x8a\x0c\x139\x01\x07v>'
p345
tp346
Rp347
tp348
atp349
a(I31
I1600
(lp350
(g339
I11
F7.33847188949585
I11
F0.002081155776977539
g3
(g7
S'\x91\xe1\xe1\xf2\xf9\xe1[>'
p351
tp352
Rp353
tp354
a(g344
I11
F7.704099178314209
I11
F0.18818449974060059
g3
(g7
S'qQ3\xebi\xf0U>'
p355
tp356
Rp357
tp358
atp359
a(I32
I1600
(lp360
(S'sto-iht'
p361
I12
F8.203463077545166
I12
F0.002610445022583008
g3
(g7
S'n\xa5A\x95\x18qd>'
p362
tp363
Rp364
tp365
a(S'graph-sto-iht'
p366
I11
F4.492804050445557
I11
F0.09638047218322754
g3
(g7
S'}\xfc761\xe9d>'
p367
tp368
Rp369
tp370
atp371
a(I33
I1600
(lp372
(g361
I12
F4.178955078125
I12
F0.0016939640045166016
g3
(g7
S'3m\x02\x98\xf7\xe9X>'
p373
tp374
Rp375
tp376
a(g366
I11
F3.9952750205993652
I11
F0.11980009078979492
g3
(g7
S'#\xaf9\xad3fh>'
p377
tp378
Rp379
tp380
atp381
a(I34
I1600
(lp382
(S'sto-iht'
p383
I12
F4.304508924484253
I12
F0.0019731521606445312
g3
(g7
S'\xe0\xf0$\x08\xbe0W>'
p384
tp385
Rp386
tp387
a(S'graph-sto-iht'
p388
I11
F4.016822099685669
I11
F0.17930245399475098
g3
(g7
S'\x90\xdd\xd0\xb0\x96\xf5f>'
p389
tp390
Rp391
tp392
atp393
a(I35
I1600
(lp394
(g383
I11
F3.833621025085449
I11
F0.0017731189727783203
g3
(g7
S'jZV,\x91,c>'
p395
tp396
Rp397
tp398
a(g388
I11
F3.91854190826416
I11
F0.09300708770751953
g3
(g7
S'\xa7J\xda\xc9FNX>'
p399
tp400
Rp401
tp402
atp403
a(I36
I1600
(lp404
(S'sto-iht'
p405
I12
F7.954356908798218
I12
F0.002292156219482422
g3
(g7
S'\xaf\x14X\xdbI\x91e>'
p406
tp407
Rp408
tp409
a(S'graph-sto-iht'
p410
I11
F7.231796026229858
I11
F0.17517518997192383
g3
(g7
S'J\xdev\xd2\xa6\xa1w>'
p411
tp412
Rp413
tp414
atp415
a(I37
I1600
(lp416
(g405
I13
F8.653928995132446
I13
F0.0024704933166503906
g3
(g7
S'p\xaan;\x10MZ>'
p417
tp418
Rp419
tp420
a(g410
I12
F8.261173009872437
I12
F0.18839693069458008
g3
(g7
S'J\x01\xd7\t\x0f\xeaj>'
p421
tp422
Rp423
tp424
atp425
a(I38
I1600
(lp426
(S'sto-iht'
p427
I11
F7.364711046218872
I11
F0.0024950504302978516
g3
(g7
S'\x15\xd6\xc0\xef\x94\xbdr>'
p428
tp429
Rp430
tp431
a(S'graph-sto-iht'
p432
I11
F7.487122058868408
I11
F0.2825284004211426
g3
(g7
S'e\xc3_o\xce\xd4V>'
p433
tp434
Rp435
tp436
atp437
a(I39
I1600
(lp438
(g427
I12
F7.962629079818726
I12
F0.002346515655517578
g3
(g7
S'Xg\xf2\xca\xf2\xd0Y>'
p439
tp440
Rp441
tp442
a(g432
I11
F7.518661022186279
I11
F0.26102447509765625
g3
(g7
S'\x8f\x87\xdf\\p.a>'
p443
tp444
Rp445
tp446
atp447
a(I40
I1600
(lp448
(S'sto-iht'
p449
I11
F7.533537864685059
I11
F0.0022978782653808594
g3
(g7
S'\xc1Y]\xd6\x0c\x1f[>'
p450
tp451
Rp452
tp453
a(S'graph-sto-iht'
p454
I11
F7.4373040199279785
I11
F0.17462158203125
g3
(g7
S'\xcd\xe2S+\x04\xf6d>'
p455
tp456
Rp457
tp458
atp459
a(I41
I1600
(lp460
(g449
I11
F7.333627939224243
I11
F0.0021114349365234375
g3
(g7
S'\xb8\x06x\x98H#Z>'
p461
tp462
Rp463
tp464
a(g454
I11
F7.758054971694946
I11
F0.23257946968078613
g3
(g7
S'Y2\xe3\x86\x11gY>'
p465
tp466
Rp467
tp468
atp469
a(I42
I1600
(lp470
(S'sto-iht'
p471
I11
F7.213256120681763
I11
F0.0023305416107177734
g3
(g7
S'<p-%_:s>'
p472
tp473
Rp474
tp475
a(S'graph-sto-iht'
p476
I11
F7.3362510204315186
I11
F0.3560032844543457
g3
(g7
S'=D\xaa\x9eT>q>'
p477
tp478
Rp479
tp480
atp481
a(I43
I1600
(lp482
(g471
I11
F7.091243028640747
I11
F0.0021822452545166016
g3
(g7
S'\xe7W\xd5\xd3P\x10s>'
p483
tp484
Rp485
tp486
a(g476
I11
F7.5795738697052
I11
F0.20997190475463867
g3
(g7
S'+\x92\xed\xd7)\\r>'
p487
tp488
Rp489
tp490
atp491
a(I44
I1600
(lp492
(S'sto-iht'
p493
I11
F7.318451166152954
I11
F0.002112150192260742
g3
(g7
S'3\xf3\xaa\xc2\x05\x98o>'
p494
tp495
Rp496
tp497
a(S'graph-sto-iht'
p498
I11
F7.29861307144165
I11
F0.22744059562683105
g3
(g7
S'~qO\xcb\xdaj`>'
p499
tp500
Rp501
tp502
atp503
a(I45
I1600
(lp504
(g493
I11
F7.05387806892395
I11
F0.0020399093627929688
g3
(g7
S'\xe0\xda49w\xb7q>'
p505
tp506
Rp507
tp508
a(g498
I11
F7.607256174087524
I11
F0.18651199340820312
g3
(g7
S'\xbc\xcc\x08\xb3N\xe7[>'
p509
tp510
Rp511
tp512
atp513
a(I46
I1600
(lp514
(S'sto-iht'
p515
I12
F7.846224069595337
I12
F0.002526998519897461
g3
(g7
S'\x0c\x9d\xf2\xfbu\xfcV>'
p516
tp517
Rp518
tp519
a(S'graph-sto-iht'
p520
I10
F6.525983810424805
I10
F0.13567614555358887
g3
(g7
S'g\x86\xb7\xc0\x14\rt>'
p521
tp522
Rp523
tp524
atp525
a(I47
I1600
(lp526
(g515
I13
F8.399281024932861
I13
F0.002585172653198242
g3
(g7
S'\x8d\x82\x0cI.\xa0r>'
p527
tp528
Rp529
tp530
a(g520
I13
F8.747369050979614
I13
F0.17458105087280273
g3
(g7
S'\xaeW\xd3\x98\xd8\xc1^>'
p531
tp532
Rp533
tp534
atp535
a(I48
I1600
(lp536
(S'sto-iht'
p537
I12
F8.017256021499634
I12
F0.0023026466369628906
g3
(g7
S']O\xb0\xb6w\xed^>'
p538
tp539
Rp540
tp541
a(S'graph-sto-iht'
p542
I11
F7.297073841094971
I11
F0.19280576705932617
g3
(g7
S'\xc1\x8a\xd5\xcb}Rq>'
p543
tp544
Rp545
tp546
atp547
a(I49
I1600
(lp548
(g537
I13
F8.483155012130737
I13
F0.0025103092193603516
g3
(g7
S'\x8c\xe5y9\xe2\xeeh>'
p549
tp550
Rp551
tp552
a(g542
I13
F8.778450012207031
I13
F0.20409226417541504
g3
(g7
S'\x89#<V\xe7\xcae>'
p553
tp554
Rp555
tp556
atp557
a(I0
I800
(lp558
(S'sto-iht'
p559
I6
F4.177812099456787
I12
F0.0025482177734375
g3
(g7
S'\x8b\x80\xed~T\xb3l>'
p560
tp561
Rp562
tp563
a(S'graph-sto-iht'
p564
I6
F4.236786127090454
I12
F0.30351901054382324
g3
(g7
S'h$\xa5hsc`>'
p565
tp566
Rp567
tp568
atp569
a(I1
I800
(lp570
(g559
I6
F3.9492149353027344
I12
F0.0023610591888427734
g3
(g7
S'\x18\x1e\x81\xc2\xc8&r>'
p571
tp572
Rp573
tp574
a(g564
I6
F4.116013050079346
I12
F0.28693270683288574
g3
(g7
S'v\xfd\xc87\x83\x9eD>'
p575
tp576
Rp577
tp578
atp579
a(I2
I800
(lp580
(S'sto-iht'
p581
I6
F4.227283954620361
I12
F0.002439737319946289
g3
(g7
S'\xe9M\xe8\x8ee\x1es>'
p582
tp583
Rp584
tp585
a(S'graph-sto-iht'
p586
I6
F4.153499126434326
I12
F0.20414400100708008
g3
(g7
S'\x95t\xa3\xb8h\xbae>'
p587
tp588
Rp589
tp590
atp591
a(I3
I800
(lp592
(g581
I6
F3.9326930046081543
I12
F0.002259969711303711
g3
(g7
S'\x89\x03\xca\x05\x11EP>'
p593
tp594
Rp595
tp596
a(g586
I6
F4.052563905715942
I12
F0.19078660011291504
g3
(g7
S'\x83\x03\x13\xf1\x8c\xc2e>'
p597
tp598
Rp599
tp600
atp601
a(I4
I800
(lp602
(S'sto-iht'
p603
I6
F4.164564847946167
I12
F0.0026352405548095703
g3
(g7
S'\xccJx{\xd0#W>'
p604
tp605
Rp606
tp607
a(S'graph-sto-iht'
p608
I6
F4.386507034301758
I12
F0.3261113166809082
g3
(g7
S'\xed\xdfKxQ+X>'
p609
tp610
Rp611
tp612
atp613
a(I5
I800
(lp614
(g603
I8
F5.387441873550415
I16
F0.0034027099609375
g3
(g7
S'\xed\xceuf$\xd1f>'
p615
tp616
Rp617
tp618
a(g608
I6
F4.146368980407715
I12
F0.21382474899291992
g3
(g7
S'\x86\x01\xc6\xdc\xe5\xefA>'
p619
tp620
Rp621
tp622
atp623
a(I6
I800
(lp624
(S'sto-iht'
p625
I7
F4.860177040100098
I14
F0.002783536911010742
g3
(g7
S'D\x0e\xc6\xe7n|r>'
p626
tp627
Rp628
tp629
a(S'graph-sto-iht'
p630
I6
F4.126111030578613
I12
F0.22307920455932617
g3
(g7
S'\xb4\x8b\xcf\x99\xe5\x8fd>'
p631
tp632
Rp633
tp634
atp635
a(I7
I800
(lp636
(g625
I6
F3.999300003051758
I12
F0.0022830963134765625
g3
(g7
S'\x7f[\x84\xce\xa1\xe3I>'
p637
tp638
Rp639
tp640
a(g630
I6
F4.127758026123047
I12
F0.19917511940002441
g3
(g7
S'\x81a\x0b`1L?>'
p641
tp642
Rp643
tp644
atp645
a(I8
I800
(lp646
(S'sto-iht'
p647
I7
F4.908877849578857
I14
F0.002868175506591797
g3
(g7
S'K\xc4C\xeb\x16\xd13>'
p648
tp649
Rp650
tp651
a(S'graph-sto-iht'
p652
I6
F4.263991117477417
I12
F0.23057270050048828
g3
(g7
S'\x18\xbc\x15fPF^>'
p653
tp654
Rp655
tp656
atp657
a(I9
I800
(lp658
(g647
I7
F4.811531066894531
I14
F0.002686738967895508
g3
(g7
S'\xd5\x16|\x15\x07\x90P>'
p659
tp660
Rp661
tp662
a(g652
I6
F4.26451301574707
I12
F0.2856602668762207
g3
(g7
S'!\xe9\xd8\x9b`oa>'
p663
tp664
Rp665
tp666
atp667
a(I10
I800
(lp668
(S'sto-iht'
p669
I6
F4.180456876754761
I12
F0.002599954605102539
g3
(g7
S'\x99\x16\xa0\x96/\x8fC>'
p670
tp671
Rp672
tp673
a(S'graph-sto-iht'
p674
I6
F4.246572971343994
I12
F0.16084527969360352
g3
(g7
S't<\x9e\xbd\x7f\xc0V>'
p675
tp676
Rp677
tp678
atp679
a(I11
I800
(lp680
(g669
I6
F4.084284067153931
I12
F0.0023741722106933594
g3
(g7
S'\xe5\xe1\xc4\r\x83\x95c>'
p681
tp682
Rp683
tp684
a(g674
I6
F4.209821939468384
I12
F0.313126802444458
g3
(g7
S'\x11\x14%7\x815a>'
p685
tp686
Rp687
tp688
atp689
a(I12
I800
(lp690
(S'sto-iht'
p691
I6
F4.189564943313599
I12
F0.003236532211303711
g3
(g7
S'\x81^\x1a\x84\xae\xd1W>'
p692
tp693
Rp694
tp695
a(S'graph-sto-iht'
p696
I6
F4.192803859710693
I12
F0.157958984375
g3
(g7
S'h\xcf\xcb\xf7.\x8f>>'
p697
tp698
Rp699
tp700
atp701
a(I13
I800
(lp702
(g691
I6
F3.9968950748443604
I12
F0.0024521350860595703
g3
(g7
S'\xd7\x9d\x93\x051no>'
p703
tp704
Rp705
tp706
a(g696
I5
F3.529413938522339
I10
F0.256664514541626
g3
(g7
S'3f5\x91K\x84y>'
p707
tp708
Rp709
tp710
atp711
a(I14
I800
(lp712
(S'sto-iht'
p713
I6
F4.1084020137786865
I12
F0.0023298263549804688
g3
(g7
S'J\x06\xa2\xef\x91\xe9n>'
p714
tp715
Rp716
tp717
a(S'graph-sto-iht'
p718
I7
F5.054493188858032
I14
F0.43988871574401855
g3
(g7
S'J}\xb7\xa2\x16\xb41>'
p719
tp720
Rp721
tp722
atp723
a(I15
I800
(lp724
(g713
I6
F3.923616886138916
I12
F0.0022263526916503906
g3
(g7
S'0\x8c\x16\x16\xb3ir>'
p725
tp726
Rp727
tp728
a(g718
I5
F3.383636951446533
I10
F0.1460878849029541
g3
(g7
S'F\x1a\x93\xcd\xec\xd4{>'
p729
tp730
Rp731
tp732
atp733
a(I16
I800
(lp734
(S'sto-iht'
p735
I7
F4.9343178272247314
I14
F0.0030241012573242188
g3
(g7
S'z\xa1\x84\xed\x8ev8>'
p736
tp737
Rp738
tp739
a(S'graph-sto-iht'
p740
I6
F4.174176931381226
I12
F0.1722855567932129
g3
(g7
S'\re\x92tL\x88C>'
p741
tp742
Rp743
tp744
atp745
a(I17
I800
(lp746
(g735
I7
F4.66187310218811
I14
F0.002629518508911133
g3
(g7
S'gF\x8d\xe1\x83\x00H>'
p747
tp748
Rp749
tp750
a(g740
I6
F4.195673942565918
I12
F0.25077223777770996
g3
(g7
S'F/\n\xf0\xfc]G>'
p751
tp752
Rp753
tp754
atp755
a(I18
I800
(lp756
(S'sto-iht'
p757
I6
F4.059582948684692
I12
F0.002671957015991211
g3
(g7
S'D\xa9\xa2XE\xa2p>'
p758
tp759
Rp760
tp761
a(S'graph-sto-iht'
p762
I6
F4.114765882492065
I12
F0.2053239345550537
g3
(g7
S'\x05N\x97_\xb5rS>'
p763
tp764
Rp765
tp766
atp767
a(I19
I800
(lp768
(g757
I7
F4.537484884262085
I14
F0.0028510093688964844
g3
(g7
S'5\xb1\xa4\xc3\x97\xb9l>'
p769
tp770
Rp771
tp772
a(g762
I6
F4.059169054031372
I12
F0.24275922775268555
g3
(g7
S'\tu\xc0\xef\x9f\x81?>'
p773
tp774
Rp775
tp776
atp777
a(I20
I800
(lp778
(S'sto-iht'
p779
I6
F4.071751117706299
I12
F0.0025975704193115234
g3
(g7
S'\xc4\x83^\xb1\x0cJq>'
p780
tp781
Rp782
tp783
a(S'graph-sto-iht'
p784
I6
F4.130496978759766
I12
F0.2295851707458496
g3
(g7
S'J/o\xa6\xad\xa5c>'
p785
tp786
Rp787
tp788
atp789
a(I21
I800
(lp790
(g779
I7
F4.603819847106934
I14
F0.0027768611907958984
g3
(g7
S'Q\xf9\x95\x9b\x89\xf0?>'
p791
tp792
Rp793
tp794
a(g784
I6
F4.087985992431641
I12
F0.26530027389526367
g3
(g7
S'\xc2\x01/\x86\x05Ya>'
p795
tp796
Rp797
tp798
atp799
a(I22
I800
(lp800
(S'sto-iht'
p801
I7
F4.9343650341033936
I14
F0.002942800521850586
g3
(g7
S'\xd5\x06Kh\x1e\xa0I>'
p802
tp803
Rp804
tp805
a(S'graph-sto-iht'
p806
I6
F4.282346963882446
I12
F0.21448063850402832
g3
(g7
S'8\xbe\x15\xd9\xff\x18J>'
p807
tp808
Rp809
tp810
atp811
a(I23
I800
(lp812
(g801
I7
F4.708146810531616
I14
F0.0027904510498046875
g3
(g7
S'\x9c*[\x9d\x0c\xcaT>'
p813
tp814
Rp815
tp816
a(g806
I6
F4.144162893295288
I12
F0.17828702926635742
g3
(g7
S'\x11E\xcf?\xc7\x89`>'
p817
tp818
Rp819
tp820
atp821
a(I24
I800
(lp822
(S'sto-iht'
p823
I6
F4.224720001220703
I12
F0.0026454925537109375
g3
(g7
S'\xd2\x15r<\x8c\x04w>'
p824
tp825
Rp826
tp827
a(S'graph-sto-iht'
p828
I6
F4.298079967498779
I12
F0.2230396270751953
g3
(g7
S'y\xdf\x0c\xb0\xf35e>'
p829
tp830
Rp831
tp832
atp833
a(I25
I800
(lp834
(g823
I6
F4.084269046783447
I12
F0.0022623538970947266
g3
(g7
S'\xbc\xce\xb0_\xc2\x17q>'
p835
tp836
Rp837
tp838
a(g828
I6
F4.209747076034546
I12
F0.2166593074798584
g3
(g7
S'\xdf\x9b\x10\xf5\x18WE>'
p839
tp840
Rp841
tp842
atp843
a(I26
I800
(lp844
(S'sto-iht'
p845
I6
F4.1262900829315186
I12
F0.0026891231536865234
g3
(g7
S'rj\xe6\x8f\xbb%D>'
p846
tp847
Rp848
tp849
a(S'graph-sto-iht'
p850
I6
F4.3457419872283936
I12
F0.32086801528930664
g3
(g7
S'&E\xac\xbb\xf4XA>'
p851
tp852
Rp853
tp854
atp855
a(I27
I800
(lp856
(g845
I6
F4.089403867721558
I12
F0.0023615360260009766
g3
(g7
S'\xbc\xcf \x05"FQ>'
p857
tp858
Rp859
tp860
a(g850
I5
F3.42169189453125
I10
F0.14347314834594727
g3
(g7
S'Es`|E\x83d>'
p861
tp862
Rp863
tp864
atp865
a(I28
I800
(lp866
(S'sto-iht'
p867
I6
F4.125427961349487
I12
F0.0024127960205078125
g3
(g7
S'\xb0\x14\x8b\x88\x0f\xdfr>'
p868
tp869
Rp870
tp871
a(S'graph-sto-iht'
p872
I6
F4.1112871170043945
I12
F0.20818305015563965
g3
(g7
S'\xafm\x05\xce\xa9\xbfQ>'
p873
tp874
Rp875
tp876
atp877
a(I29
I800
(lp878
(g867
I6
F3.9749879837036133
I12
F0.002254962921142578
g3
(g7
S'X:\x05k\xfd\xbae>'
p879
tp880
Rp881
tp882
a(g872
I6
F4.153165102005005
I12
F0.28870439529418945
g3
(g7
S'\x00\x1b\xf5\xdc\xb5\xfdw>'
p883
tp884
Rp885
tp886
atp887
a(I30
I800
(lp888
(S'sto-iht'
p889
I6
F4.179672002792358
I12
F0.00267791748046875
g3
(g7
S'ZXG\xd0\xd90w>'
p890
tp891
Rp892
tp893
a(S'graph-sto-iht'
p894
I6
F4.298685073852539
I12
F0.26965808868408203
g3
(g7
S'\x9f\x9a\xdd\xdet\x94t>'
p895
tp896
Rp897
tp898
atp899
a(I31
I800
(lp900
(g889
I7
F4.733045816421509
I14
F0.0028460025787353516
g3
(g7
S'\x99^l\x03,HS>'
p901
tp902
Rp903
tp904
a(g894
I6
F4.3302390575408936
I12
F0.41878175735473633
g3
(g7
S'\xfb\xe7Y\xc3\xc0nN>'
p905
tp906
Rp907
tp908
atp909
a(I32
I800
(lp910
(S'sto-iht'
p911
I6
F4.249989986419678
I12
F0.0026388168334960938
g3
(g7
S'\x9ba\x89F\x10\xf8U>'
p912
tp913
Rp914
tp915
a(S'graph-sto-iht'
p916
I6
F4.276097059249878
I12
F0.23275494575500488
g3
(g7
S'\xe0\xe0\x1d\xad\\\x95Q>'
p917
tp918
Rp919
tp920
atp921
a(I33
I800
(lp922
(g911
I6
F4.097592115402222
I12
F0.0023207664489746094
g3
(g7
S'\xaa\xf7\xb3j\xa6@F>'
p923
tp924
Rp925
tp926
a(g916
I5
F3.4772729873657227
I10
F0.16358399391174316
g3
(g7
S'Z\x1c\xe8\x0e=oa>'
p927
tp928
Rp929
tp930
atp931
a(I34
I800
(lp932
(S'sto-iht'
p933
I7
F4.875042915344238
I14
F0.003116607666015625
g3
(g7
S'\x8d#\xfb\x19g*F>'
p934
tp935
Rp936
tp937
a(S'graph-sto-iht'
p938
I6
F4.312285900115967
I12
F0.2958998680114746
g3
(g7
S'}gF\xa9;]8>'
p939
tp940
Rp941
tp942
atp943
a(I35
I800
(lp944
(g933
I6
F4.0392069816589355
I12
F0.0026090145111083984
g3
(g7
S'j\xac\xb0\xc2\xd6`@>'
p945
tp946
Rp947
tp948
a(g938
I5
F3.411195993423462
I10
F0.13223767280578613
g3
(g7
S'}\x83?j\xe9\x8dr>'
p949
tp950
Rp951
tp952
atp953
a(I36
I800
(lp954
(S'sto-iht'
p955
I7
F4.730122089385986
I14
F0.002821683883666992
g3
(g7
S'd<6_r\xa4T>'
p956
tp957
Rp958
tp959
a(S'graph-sto-iht'
p960
I7
F4.773089170455933
I14
F0.21578121185302734
g3
(g7
S'A]3\x18.\x9d]>'
p961
tp962
Rp963
tp964
atp965
a(I37
I800
(lp966
(g955
I7
F4.537098169326782
I14
F0.0026383399963378906
g3
(g7
S'\xf5BVE\xf4\xa9;>'
p967
tp968
Rp969
tp970
a(g960
I6
F4.147257089614868
I12
F0.18620944023132324
g3
(g7
S'\x1ewT\xac\x04\xe1H>'
p971
tp972
Rp973
tp974
atp975
a(I38
I800
(lp976
(S'sto-iht'
p977
I6
F2.214370012283325
I12
F0.0017194747924804688
g3
(g7
S'\xe8\xbc0\xf1\x84uR>'
p978
tp979
Rp980
tp981
a(S'graph-sto-iht'
p982
I6
F2.3064968585968018
I12
F0.12717986106872559
g3
(g7
S'\x0e\x86\x01\tf\x94R>'
p983
tp984
Rp985
tp986
atp987
a(I39
I800
(lp988
(g977
I6
F2.168834924697876
I12
F0.0016810894012451172
g3
(g7
S'\xc8\xf2\xf56\xc6iy>'
p989
tp990
Rp991
tp992
a(g982
I6
F2.2635059356689453
I12
F0.1125638484954834
g3
(g7
S'\xd1+C\x8d\x18Mf>'
p993
tp994
Rp995
tp996
atp997
a(I40
I800
(lp998
(S'sto-iht'
p999
I6
F4.0249550342559814
I12
F0.002644777297973633
g3
(g7
S'\x19\xd9|\xc2\xcb\xf0P>'
p1000
tp1001
Rp1002
tp1003
a(S'graph-sto-iht'
p1004
I6
F4.1438469886779785
I12
F0.22209501266479492
g3
(g7
S'\xa5\\\xa9\xaf\xcc\x89X>'
p1005
tp1006
Rp1007
tp1008
atp1009
a(I41
I800
(lp1010
(g999
I7
F4.632328987121582
I14
F0.002796173095703125
g3
(g7
S'V\x1d\x01\xe8u\xb8E>'
p1011
tp1012
Rp1013
tp1014
a(g1004
I7
F4.738205909729004
I14
F0.2591855525970459
g3
(g7
S':\x8b\xae\xd9\x1e|B>'
p1015
tp1016
Rp1017
tp1018
atp1019
a(I42
I800
(lp1020
(S'sto-iht'
p1021
I6
F4.177884101867676
I12
F0.002777099609375
g3
(g7
S'\x9a<\t\x92x\xd7r>'
p1022
tp1023
Rp1024
tp1025
a(S'graph-sto-iht'
p1026
I6
F4.268758058547974
I12
F0.17646455764770508
g3
(g7
S'\xf6\xcc\x8dF\x0f\x8cc>'
p1027
tp1028
Rp1029
tp1030
atp1031
a(I43
I800
(lp1032
(g1021
I7
F4.764048099517822
I14
F0.0028917789459228516
g3
(g7
S'\xd6M\x93\xd6\x067\\>'
p1033
tp1034
Rp1035
tp1036
a(g1026
I6
F4.20226788520813
I12
F0.270751953125
g3
(g7
S"\xd7\xbd\xc1H\xb3'g>"
p1037
tp1038
Rp1039
tp1040
atp1041
a(I44
I800
(lp1042
(S'sto-iht'
p1043
I6
F4.238996982574463
I12
F0.0027370452880859375
g3
(g7
S'\xe8\x8f>8\x1a\x15\\>'
p1044
tp1045
Rp1046
tp1047
a(S'graph-sto-iht'
p1048
I6
F4.268977880477905
I12
F0.211014986038208
g3
(g7
S'\x1a\xb4\t5 JW>'
p1049
tp1050
Rp1051
tp1052
atp1053
a(I45
I800
(lp1054
(g1043
I6
F4.042765855789185
I12
F0.0023469924926757812
g3
(g7
S'9\xa0\x88<\xae>d>'
p1055
tp1056
Rp1057
tp1058
a(g1048
I6
F4.2260730266571045
I12
F0.24739384651184082
g3
(g7
S'\xbe\x9ag\xc4&$?>'
p1059
tp1060
Rp1061
tp1062
atp1063
a(I46
I800
(lp1064
(S'sto-iht'
p1065
I6
F2.2485530376434326
I12
F0.0017461776733398438
g3
(g7
S'2\xc0q\xfbB(m>'
p1066
tp1067
Rp1068
tp1069
a(S'graph-sto-iht'
p1070
I6
F2.355644941329956
I12
F0.18316030502319336
g3
(g7
S'm[i\x8d\x9c\x10N>'
p1071
tp1072
Rp1073
tp1074
atp1075
a(I47
I800
(lp1076
(g1065
I6
F2.1781439781188965
I12
F0.0017290115356445312
g3
(g7
S'\x0f\x9b;\xb3\x08\x8bD>'
p1077
tp1078
Rp1079
tp1080
a(g1070
I6
F2.256187915802002
I12
F0.10612916946411133
g3
(g7
S'H\x01\xb7t\xc2\xb7:>'
p1081
tp1082
Rp1083
tp1084
atp1085
a(I48
I800
(lp1086
(S'sto-iht'
p1087
I7
F4.853074073791504
I14
F0.0030601024627685547
g3
(g7
S'#\xcc\xfd\x940\xd01>'
p1088
tp1089
Rp1090
tp1091
a(S'graph-sto-iht'
p1092
I5
F3.5449090003967285
I10
F0.18372154235839844
g3
(g7
S'\xaa\x7f\xd47\x9cOt>'
p1093
tp1094
Rp1095
tp1096
atp1097
a(I49
I800
(lp1098
(g1087
I7
F4.665112018585205
I14
F0.002985715866088867
g3
(g7
S'\x1d\x02\xa2 \x7f-C>'
p1099
tp1100
Rp1101
tp1102
a(g1092
I6
F4.1408398151397705
I12
F0.21882224082946777
g3
(g7
S'\x17M\xb5z\xb5\x16f>'
p1103
tp1104
Rp1105
tp1106
atp1107
a(I0
I400
(lp1108
(S'sto-iht'
p1109
I8
F5.458623886108398
I32
F0.005853414535522461
g3
(g7
S' l\xc8%\xc9lj>'
p1110
tp1111
Rp1112
tp1113
a(S'graph-sto-iht'
p1114
I9
F7.167972087860107
I36
F0.8765220642089844
g3
(g7
S'bB\xe8\xf1\x1d\xa1I>'
p1115
tp1116
Rp1117
tp1118
atp1119
a(I1
I400
(lp1120
(g1109
I9
F6.483345031738281
I36
F0.006975650787353516
g3
(g7
S'bX`\xe2\xc2\x12R>'
p1121
tp1122
Rp1123
tp1124
a(g1114
I8
F6.787168979644775
I32
F0.8789317607879639
g3
(g7
S'x\x8a\x15\x1a\xde\xe8t>'
p1125
tp1126
Rp1127
tp1128
atp1129
a(I2
I400
(lp1130
(S'sto-iht'
p1131
I8
F3.0538930892944336
I32
F0.0044825077056884766
g3
(g7
S'\x95\xafg\x80l\xa3b>'
p1132
tp1133
Rp1134
tp1135
a(S'graph-sto-iht'
p1136
I8
F3.500762939453125
I32
F0.4241809844970703
g3
(g7
S'{\xbaT\x9b\xb3\td>'
p1137
tp1138
Rp1139
tp1140
atp1141
a(I3
I400
(lp1142
(g1131
I9
F5.496016979217529
I36
F0.006235361099243164
g3
(g7
S'Uu}\xc5\xfe\x08S>'
p1143
tp1144
Rp1145
tp1146
a(g1136
I8
F6.393913984298706
I32
F0.6401939392089844
g3
(g7
S'\x92s\xfa\xf6\xdc\x7f{>'
p1147
tp1148
Rp1149
tp1150
atp1151
a(I4
I400
(lp1152
(S'sto-iht'
p1153
I8
F3.258819818496704
I32
F0.00487828254699707
g3
(g7
S'1\xa9aW9Lz>'
p1154
tp1155
Rp1156
tp1157
a(S'graph-sto-iht'
p1158
I8
F3.44571590423584
I32
F0.3795299530029297
g3
(g7
S'\xffLm\x84\xb9=u>'
p1159
tp1160
Rp1161
tp1162
atp1163
a(I5
I400
(lp1164
(g1153
I9
F3.5255041122436523
I36
F0.005459308624267578
g3
(g7
S"\xd7\xba\xbf'\xb2\x11U>"
p1165
tp1166
Rp1167
tp1168
a(g1158
I9
F3.8649709224700928
I36
F0.3167383670806885
g3
(g7
S'\xf1\x9b\x1e\x03\x9b\x8cR>'
p1169
tp1170
Rp1171
tp1172
atp1173
a(I6
I400
(lp1174
(S'sto-iht'
p1175
I9
F6.226562976837158
I36
F0.007108449935913086
g3
(g7
S'\xbddwA>\x99b>'
p1176
tp1177
Rp1178
tp1179
a(S'graph-sto-iht'
p1180
I8
F6.0329859256744385
I32
F0.46729469299316406
g3
(g7
S'\x89\xcf"\xbez<a>'
p1181
tp1182
Rp1183
tp1184
atp1185
a(I7
I400
(lp1186
(g1175
I8
F5.795988082885742
I32
F0.006652355194091797
g3
(g7
S'-\x0f\xefE\xabVu>'
p1187
tp1188
Rp1189
tp1190
a(g1180
I9
F7.257607936859131
I36
F0.6614654064178467
g3
(g7
S']\x8a\x0e\xa4\xfa\x0bQ>'
p1191
tp1192
Rp1193
tp1194
atp1195
a(I8
I400
(lp1196
(S'sto-iht'
p1197
I8
F3.0535991191864014
I32
F0.004782199859619141
g3
(g7
S'gS\n}\xb1\x10`>'
p1198
tp1199
Rp1200
tp1201
a(S'graph-sto-iht'
p1202
I8
F3.4057059288024902
I32
F0.3283662796020508
g3
(g7
S'\tL\x91\x92)\x05w>'
p1203
tp1204
Rp1205
tp1206
atp1207
a(I9
I400
(lp1208
(g1197
I8
F3.1425509452819824
I32
F0.004974842071533203
g3
(g7
S'\x82-\x92\xc3\xc2\xedm>'
p1209
tp1210
Rp1211
tp1212
a(g1202
I8
F3.601389169692993
I32
F0.4560978412628174
g3
(g7
S'O\xa5\xb3\x89\x90\xda]>'
p1213
tp1214
Rp1215
tp1216
atp1217
a(I10
I400
(lp1218
(S'sto-iht'
p1219
I9
F6.302441120147705
I36
F0.007311582565307617
g3
(g7
S'\xd1}[\xb2\xa8p[>'
p1220
tp1221
Rp1222
tp1223
a(S'graph-sto-iht'
p1224
I8
F6.382070064544678
I32
F0.6114692687988281
g3
(g7
S'X2\x93j\xee\x99u>'
p1225
tp1226
Rp1227
tp1228
atp1229
a(I11
I400
(lp1230
(g1219
I9
F6.867893934249878
I36
F0.00742340087890625
g3
(g7
S'\xfa\x11\x8a"\xc4\xbfS>'
p1231
tp1232
Rp1233
tp1234
a(g1224
I9
F7.439186096191406
I36
F0.7653162479400635
g3
(g7
S'\x14\x7f\xa5\x8f\xe45K>'
p1235
tp1236
Rp1237
tp1238
atp1239
a(I12
I400
(lp1240
(S'sto-iht'
p1241
I9
F3.723629951477051
I36
F0.0055599212646484375
g3
(g7
S't\x0e#\xd4p\x07S>'
p1242
tp1243
Rp1244
tp1245
a(S'graph-sto-iht'
p1246
I8
F3.4498400688171387
I32
F0.32847046852111816
g3
(g7
S')\xd3*"\x19#x>'
p1247
tp1248
Rp1249
tp1250
atp1251
a(I13
I400
(lp1252
(g1241
I9
F3.542804002761841
I36
F0.005714893341064453
g3
(g7
S'T\n\xc5\xec\xa2\n]>'
p1253
tp1254
Rp1255
tp1256
a(g1246
I8
F3.4735708236694336
I32
F0.27440690994262695
g3
(g7
S'QYJ\xbd\xdaRr>'
p1257
tp1258
Rp1259
tp1260
atp1261
a(I14
I400
(lp1262
(S'sto-iht'
p1263
I8
F5.838571071624756
I32
F0.0061588287353515625
g3
(g7
S'S\x8b\x8b\xf9\xadoq>'
p1264
tp1265
Rp1266
tp1267
a(S'graph-sto-iht'
p1268
I8
F6.32538104057312
I32
F0.6399376392364502
g3
(g7
S'\x89&\xc2\xe1N\xa6c>'
p1269
tp1270
Rp1271
tp1272
atp1273
a(I15
I400
(lp1274
(g1263
I8
F6.157369136810303
I32
F0.006333589553833008
g3
(g7
S'H\x10\xf3\x18BKj>'
p1275
tp1276
Rp1277
tp1278
a(g1268
I8
F6.660960912704468
I32
F0.8455767631530762
g3
(g7
S'Ov[A\x04\xa4q>'
p1279
tp1280
Rp1281
tp1282
atp1283
a(I16
I400
(lp1284
(S'sto-iht'
p1285
I8
F5.561036109924316
I32
F0.005981922149658203
g3
(g7
S'\x00\xd8\xeb\x17W]i>'
p1286
tp1287
Rp1288
tp1289
a(S'graph-sto-iht'
p1290
I8
F6.137734889984131
I32
F0.46865200996398926
g3
(g7
S"\x14'\xa2\xc4*\xf4s>"
p1291
tp1292
Rp1293
tp1294
atp1295
a(I17
I400
(lp1296
(g1285
I8
F5.854200839996338
I32
F0.006121397018432617
g3
(g7
S'{\xcaR\x1d\xa2\x19e>'
p1297
tp1298
Rp1299
tp1300
a(g1290
I8
F6.642737150192261
I32
F0.7774953842163086
g3
(g7
S'\xd7G\xdf\x87B\xb7o>'
p1301
tp1302
Rp1303
tp1304
atp1305
a(I18
I400
(lp1306
(S'sto-iht'
p1307
I8
F5.542041778564453
I32
F0.00597071647644043
g3
(g7
S'Q\xea!h\x9c\xd4`>'
p1308
tp1309
Rp1310
tp1311
a(S'graph-sto-iht'
p1312
I8
F6.226459980010986
I32
F0.504697322845459
g3
(g7
S'}\xf9\x9b\xb4e\xe3M>'
p1313
tp1314
Rp1315
tp1316
atp1317
a(I19
I400
(lp1318
(g1307
I9
F4.199759006500244
I36
F0.0055544376373291016
g3
(g7
S'\xc6\xb7\x07\x0f\xcd7g>'
p1319
tp1320
Rp1321
tp1322
a(g1312
I9
F4.138513803482056
I36
F0.412609338760376
g3
(g7
S'\x928\xe1d\x13\xc9\\>'
p1323
tp1324
Rp1325
tp1326
atp1327
a(I20
I400
(lp1328
(S'sto-iht'
p1329
I9
F6.2950098514556885
I36
F0.007154226303100586
g3
(g7
S'*\x8d\x93\xda\x17\xc7a>'
p1330
tp1331
Rp1332
tp1333
a(S'graph-sto-iht'
p1334
I9
F7.199376821517944
I36
F0.9613907337188721
g3
(g7
S'\xe7\x05N\xee.\xbbZ>'
p1335
tp1336
Rp1337
tp1338
atp1339
a(I21
I400
(lp1340
(g1329
I8
F5.915517091751099
I32
F0.006520986557006836
g3
(g7
S'k\xc1\xa0ef\xafh>'
p1341
tp1342
Rp1343
tp1344
a(g1334
I8
F5.805858135223389
I32
F0.40354299545288086
g3
(g7
S'\xe1\x05Y\x93\xda\xb7w>'
p1345
tp1346
Rp1347
tp1348
atp1349
a(I22
I400
(lp1350
(S'sto-iht'
p1351
I8
F5.483579874038696
I32
F0.00586390495300293
g3
(g7
S'\x06%\xe9\xd8s\xc2n>'
p1352
tp1353
Rp1354
tp1355
a(S'graph-sto-iht'
p1356
I8
F6.1620378494262695
I32
F0.4606907367706299
g3
(g7
S'\xc5?V(L\xc8s>'
p1357
tp1358
Rp1359
tp1360
atp1361
a(I23
I400
(lp1362
(g1351
I9
F6.648831129074097
I36
F0.0069730281829833984
g3
(g7
S'`_)\xd7\x84rQ>'
p1363
tp1364
Rp1365
tp1366
a(g1356
I8
F6.503068923950195
I32
F0.6651403903961182
g3
(g7
S'\xef\x86FN\xe2xt>'
p1367
tp1368
Rp1369
tp1370
atp1371
a(I24
I400
(lp1372
(S'sto-iht'
p1373
I8
F3.0743911266326904
I32
F0.004526615142822266
g3
(g7
S'\xff\xcb\xe1\x7f:\x00j>'
p1374
tp1375
Rp1376
tp1377
a(S'graph-sto-iht'
p1378
I8
F3.4620919227600098
I32
F0.3293149471282959
g3
(g7
S'\xab\xabl\x9e\xff\x93b>'
p1379
tp1380
Rp1381
tp1382
atp1383
a(I25
I400
(lp1384
(g1373
I9
F3.581430196762085
I36
F0.00529170036315918
g3
(g7
S'}#2\xe3\x0e\xc5T>'
p1385
tp1386
Rp1387
tp1388
a(g1378
I8
F3.853087902069092
I32
F0.3790924549102783
g3
(g7
S'_\xf1\x8b\x13t\x18d>'
p1389
tp1390
Rp1391
tp1392
atp1393
a(I26
I400
(lp1394
(S'sto-iht'
p1395
I9
F6.317883014678955
I36
F0.0072476863861083984
g3
(g7
S'\xd0\x88\xec\xf8\xff\xaaT>'
p1396
tp1397
Rp1398
tp1399
a(S'graph-sto-iht'
p1400
I8
F6.419938087463379
I32
F0.6639115810394287
g3
(g7
S'\x13>\x9bI\xb6Qc>'
p1401
tp1402
Rp1403
tp1404
atp1405
a(I27
I400
(lp1406
(g1395
I8
F6.242855072021484
I32
F0.006602287292480469
g3
(g7
S'\xc0.\xb2\x04.\xa3v>'
p1407
tp1408
Rp1409
tp1410
a(g1400
I9
F7.473160028457642
I36
F0.8203525543212891
g3
(g7
S'\xc2\x94\x89\x9f\xf6@S>'
p1411
tp1412
Rp1413
tp1414
atp1415
a(I28
I400
(lp1416
(S'sto-iht'
p1417
I8
F5.642027854919434
I32
F0.006319999694824219
g3
(g7
S'T\x95\x19\x0b\x00\xaf\\>'
p1418
tp1419
Rp1420
tp1421
a(S'graph-sto-iht'
p1422
I8
F6.356046199798584
I32
F0.5710031986236572
g3
(g7
S'!\x86\xef\x0e-fb>'
p1423
tp1424
Rp1425
tp1426
atp1427
a(I29
I400
(lp1428
(g1417
I9
F6.760607004165649
I36
F0.0072400569915771484
g3
(g7
S'\xa9\xd7o4\xadFV>'
p1429
tp1430
Rp1431
tp1432
a(g1422
I8
F6.663463830947876
I32
F0.6001253128051758
g3
(g7
S'\x9a\xb3\xc6(\xd5\xb1u>'
p1433
tp1434
Rp1435
tp1436
atp1437
a(I30
I400
(lp1438
(S'sto-iht'
p1439
I9
F6.248230934143066
I36
F0.007407665252685547
g3
(g7
S'\xc6\xe6\nx\x0f\x13T>'
p1440
tp1441
Rp1442
tp1443
a(S'graph-sto-iht'
p1444
I9
F6.910110950469971
I36
F0.5588350296020508
g3
(g7
S'|o\xd6\x81\x14\xeaZ>'
p1445
tp1446
Rp1447
tp1448
atp1449
a(I31
I400
(lp1450
(g1439
I8
F6.0444958209991455
I32
F0.006833791732788086
g3
(g7
S'\xda^i\x869\xe3u>'
p1451
tp1452
Rp1453
tp1454
a(g1444
I9
F7.288330078125
I36
F0.7473077774047852
g3
(g7
S'\xbd\xb8o\xf4\xbf\xf3V>'
p1455
tp1456
Rp1457
tp1458
atp1459
a(I32
I400
(lp1460
(S'sto-iht'
p1461
I9
F6.49345588684082
I36
F0.006827354431152344
g3
(g7
S'wi\xbb)\xbe\xec^>'
p1462
tp1463
Rp1464
tp1465
a(S'graph-sto-iht'
p1466
I9
F7.260637998580933
I36
F0.7945652008056641
g3
(g7
S'\xf3\x10l\xb8\xc9\xe4W>'
p1467
tp1468
Rp1469
tp1470
atp1471
a(I33
I400
(lp1472
(g1461
I9
F7.0716447830200195
I36
F0.007045269012451172
g3
(g7
S'U\x8eZ\xd6\xa63P>'
p1473
tp1474
Rp1475
tp1476
a(g1466
I9
F7.429892063140869
I36
F0.8099257946014404
g3
(g7
S'\x1cm\xa0\xa9\x9d\x1dP>'
p1477
tp1478
Rp1479
tp1480
atp1481
a(I34
I400
(lp1482
(S'sto-iht'
p1483
I9
F6.461579084396362
I36
F0.006807804107666016
g3
(g7
S'\x1cq\x1by\x8d\x82q>'
p1484
tp1485
Rp1486
tp1487
a(S'graph-sto-iht'
p1488
I9
F7.477405071258545
I36
F0.8550899028778076
g3
(g7
S'\xf3\xa6\xa8^\xaf\x91\\>'
p1489
tp1490
Rp1491
tp1492
atp1493
a(I35
I400
(lp1494
(g1483
I9
F6.9012839794158936
I36
F0.007313251495361328
g3
(g7
S'U\x0f\t\xd0\x14\xbbP>'
p1495
tp1496
Rp1497
tp1498
a(g1488
I8
F6.6799609661102295
I32
F0.47713184356689453
g3
(g7
S'\xca>\x86\x8d\xb5\xdfq>'
p1499
tp1500
Rp1501
tp1502
atp1503
a(I36
I400
(lp1504
(S'sto-iht'
p1505
I9
F6.232940912246704
I36
F0.007224321365356445
g3
(g7
S'E[kJ\x85\x00_>'
p1506
tp1507
Rp1508
tp1509
a(S'graph-sto-iht'
p1510
I8
F6.435857057571411
I32
F0.8450493812561035
g3
(g7
S'\xb9\xb6E\xd0T\xa6v>'
p1511
tp1512
Rp1513
tp1514
atp1515
a(I37
I400
(lp1516
(g1505
I8
F5.9256980419158936
I32
F0.006520748138427734
g3
(g7
S'Z\xfeD\xc4\t\xe1y>'
p1517
tp1518
Rp1519
tp1520
a(g1510
I9
F7.270122051239014
I36
F0.6559450626373291
g3
(g7
S'\xb9\xbd\x0ea\xe8,Y>'
p1521
tp1522
Rp1523
tp1524
atp1525
a(I38
I400
(lp1526
(S'sto-iht'
p1527
I8
F5.466116905212402
I32
F0.0058782100677490234
g3
(g7
S'Ea\xf5-Iu{>'
p1528
tp1529
Rp1530
tp1531
a(S'graph-sto-iht'
p1532
I8
F6.331874132156372
I32
F0.6606647968292236
g3
(g7
S'\xef\xfe\x97[5\x9cr>'
p1533
tp1534
Rp1535
tp1536
atp1537
a(I39
I400
(lp1538
(g1527
I9
F6.441449165344238
I36
F0.006863594055175781
g3
(g7
S'\x17\xf5E\x18\xdcvh>'
p1539
tp1540
Rp1541
tp1542
a(g1532
I8
F6.834485054016113
I32
F0.5837414264678955
g3
(g7
S'\xe7\xcb\x82\xb6\xcdVy>'
p1543
tp1544
Rp1545
tp1546
atp1547
a(I40
I400
(lp1548
(S'sto-iht'
p1549
I8
F5.6694300174713135
I32
F0.006398916244506836
g3
(g7
S'jx\x0e\x15\xa0\x16s>'
p1550
tp1551
Rp1552
tp1553
a(S'graph-sto-iht'
p1554
I8
F6.435834884643555
I32
F0.6620666980743408
g3
(g7
S'[\xdc\xc6\xe6\xea\xd9x>'
p1555
tp1556
Rp1557
tp1558
atp1559
a(I41
I400
(lp1560
(g1549
I8
F6.3440470695495605
I32
F0.0068471431732177734
g3
(g7
S"'N\x8ct\xed\x1d|>"
p1561
tp1562
Rp1563
tp1564
a(g1554
I8
F6.404659986495972
I32
F0.5595722198486328
g3
(g7
S'8\xba\xcdQ\xc5\xcby>'
p1565
tp1566
Rp1567
tp1568
atp1569
a(I42
I400
(lp1570
(S'sto-iht'
p1571
I9
F6.360721111297607
I36
F0.0073451995849609375
g3
(g7
S'u\x1e/c6\xc3g>'
p1572
tp1573
Rp1574
tp1575
a(S'graph-sto-iht'
p1576
I9
F7.1842570304870605
I36
F0.6803188323974609
g3
(g7
S'S\xbb\xa6g%\x16P>'
p1577
tp1578
Rp1579
tp1580
atp1581
a(I43
I400
(lp1582
(g1571
I9
F6.849541902542114
I36
F0.007627248764038086
g3
(g7
S'\x1cJ\xd0x[rU>'
p1583
tp1584
Rp1585
tp1586
a(g1576
I9
F7.54557991027832
I36
F0.8680765628814697
g3
(g7
S')\xc9\xc1\xb2\xbc8[>'
p1587
tp1588
Rp1589
tp1590
atp1591
a(I44
I400
(lp1592
(S'sto-iht'
p1593
I8
F5.673162937164307
I32
F0.006514787673950195
g3
(g7
S'\x1f\xb1\t\x1e\xe5\x1ep>'
p1594
tp1595
Rp1596
tp1597
a(S'graph-sto-iht'
p1598
I8
F6.175717830657959
I32
F0.46287059783935547
g3
(g7
S' \xbf\xfetZvX>'
p1599
tp1600
Rp1601
tp1602
atp1603
a(I45
I400
(lp1604
(g1593
I8
F6.197190999984741
I32
F0.006846189498901367
g3
(g7
S'\xa8\xb1\xc3!\x84\xa8v>'
p1605
tp1606
Rp1607
tp1608
a(g1598
I8
F6.521836042404175
I32
F0.5558815002441406
g3
(g7
S'\x1f$\x8c\xf0\x1d\xa1t>'
p1609
tp1610
Rp1611
tp1612
atp1613
a(I46
I400
(lp1614
(S'sto-iht'
p1615
I8
F5.53666090965271
I32
F0.006332874298095703
g3
(g7
S'\xfbt\x8c(\\\xd6^>'
p1616
tp1617
Rp1618
tp1619
a(S'graph-sto-iht'
p1620
I8
F6.33194899559021
I32
F0.654078483581543
g3
(g7
S'M\xd5r\x12\x00\x9fi>'
p1621
tp1622
Rp1623
tp1624
atp1625
a(I47
I400
(lp1626
(g1615
I9
F4.945407152175903
I36
F0.006253480911254883
g3
(g7
S'j\x00\xe0\xae\xe3\x9fH>'
p1627
tp1628
Rp1629
tp1630
a(g1620
I8
F3.632052183151245
I32
F0.3564493656158447
g3
(g7
S'\x92\xc9\xb9A\x1e\xf7l>'
p1631
tp1632
Rp1633
tp1634
atp1635
a(I48
I400
(lp1636
(S'sto-iht'
p1637
I8
F5.721415996551514
I32
F0.006218433380126953
g3
(g7
S'&tm\x88-}{>'
p1638
tp1639
Rp1640
tp1641
a(S'graph-sto-iht'
p1642
I8
F6.2099080085754395
I32
F0.3989899158477783
g3
(g7
S'\xeaB\\\xf8\xe6\ry>'
p1643
tp1644
Rp1645
tp1646
atp1647
a(I49
I400
(lp1648
(g1637
I8
F6.191028118133545
I32
F0.00616145133972168
g3
(g7
S'#k\xaf\xdc\xa1DQ>'
p1649
tp1650
Rp1651
tp1652
a(g1642
I7
F5.876432180404663
I28
F0.7001791000366211
g3
(g7
S'\xd1\x06\x9d\xac\x1a6t>'
p1653
tp1654
Rp1655
tp1656
atp1657
a(I0
I200
(lp1658
(S'sto-iht'
p1659
I10
F7.612121820449829
I80
F0.016291141510009766
g3
(g7
S'\xcf,\xfe\xe7;\x05j>'
p1660
tp1661
Rp1662
tp1663
a(S'graph-sto-iht'
p1664
I9
F8.276243925094604
I72
F1.159212589263916
g3
(g7
S'<\x99\xf7\xb9\xbbNw>'
p1665
tp1666
Rp1667
tp1668
atp1669
a(I1
I200
(lp1670
(g1659
I10
F8.038891077041626
I80
F0.017010211944580078
g3
(g7
S'\x9c\xf8\xaf:\xeaWk>'
p1671
tp1672
Rp1673
tp1674
a(g1664
I10
F9.547424793243408
I80
F1.3542931079864502
g3
(g7
S'\xcf\xaf\x84\x08\x12\x8bU>'
p1675
tp1676
Rp1677
tp1678
atp1679
a(I2
I200
(lp1680
(S'sto-iht'
p1681
I10
F7.725462913513184
I80
F0.015575885772705078
g3
(g7
S'J\x14\xcc\xcb\x04\x0ca>'
p1682
tp1683
Rp1684
tp1685
a(S'graph-sto-iht'
p1686
I10
F9.512208938598633
I80
F1.4713468551635742
g3
(g7
S'\x11\xf7\x13\xdd\xc5\xa7j>'
p1687
tp1688
Rp1689
tp1690
atp1691
a(I3
I200
(lp1692
(g1681
I10
F7.968598127365112
I80
F0.015934228897094727
g3
(g7
S'G\xec\x84Lv6Y>'
p1693
tp1694
Rp1695
tp1696
a(g1686
I9
F9.091776847839355
I72
F1.627983808517456
g3
(g7
S'\xcew\x95\xf1\xa4&{>'
p1697
tp1698
Rp1699
tp1700
atp1701
a(I4
I200
(lp1702
(S'sto-iht'
p1703
I10
F7.538185119628906
I80
F0.015375852584838867
g3
(g7
S'\xd0A\x06:;\xecb>'
p1704
tp1705
Rp1706
tp1707
a(S'graph-sto-iht'
p1708
I10
F9.024225950241089
I80
F1.218658208847046
g3
(g7
S'\xe9\xe9q4\x8b\rY>'
p1709
tp1710
Rp1711
tp1712
atp1713
a(I5
I200
(lp1714
(g1703
I10
F7.818227052688599
I80
F0.015851259231567383
g3
(g7
S'!\xaf%TY\xccl>'
p1715
tp1716
Rp1717
tp1718
a(g1708
I10
F9.957952976226807
I80
F1.851181983947754
g3
(g7
S'\xfa\xb3\xe6S\x10*T>'
p1719
tp1720
Rp1721
tp1722
atp1723
a(I6
I200
(lp1724
(S'sto-iht'
p1725
I10
F7.712990999221802
I80
F0.015208959579467773
g3
(g7
S'\x15Px\xb0\x9a3u>'
p1726
tp1727
Rp1728
tp1729
a(S'graph-sto-iht'
p1730
I10
F9.969408988952637
I80
F2.0108020305633545
g3
(g7
S'\xb8N\xe8,-4T>'
p1731
tp1732
Rp1733
tp1734
atp1735
a(I7
I200
(lp1736
(g1725
I10
F8.227758884429932
I80
F0.015826702117919922
g3
(g7
S'\\l&\xc7B8{>'
p1737
tp1738
Rp1739
tp1740
a(g1730
I10
F10.862474203109741
I80
F2.5323543548583984
g3
(g7
S'8\xbb\xa93#\xe8j>'
p1741
tp1742
Rp1743
tp1744
atp1745
a(I8
I200
(lp1746
(S'sto-iht'
p1747
I10
F4.340584993362427
I80
F0.01118159294128418
g3
(g7
S'\x13M\xf9\x0bzOq>'
p1748
tp1749
Rp1750
tp1751
a(S'graph-sto-iht'
p1752
I10
F5.398741960525513
I80
F1.0151584148406982
g3
(g7
S'\xa2L>[\x12\xfbc>'
p1753
tp1754
Rp1755
tp1756
atp1757
a(I9
I200
(lp1758
(g1747
I10
F4.53859806060791
I80
F0.011790752410888672
g3
(g7
S'x\xf91\xe8\x08.V>'
p1759
tp1760
Rp1761
tp1762
a(g1752
I9
F4.962922096252441
I72
F0.8076262474060059
g3
(g7
S'\x8d\xea\xaf\xd7\xd5\xcbz>'
p1763
tp1764
Rp1765
tp1766
atp1767
a(I10
I200
(lp1768
(S'sto-iht'
p1769
I9
F3.953782081604004
I72
F0.010430574417114258
g3
(g7
S'\xfdFf\x00\xb1Pu>'
p1770
tp1771
Rp1772
tp1773
a(S'graph-sto-iht'
p1774
I10
F5.092031002044678
I80
F0.7219548225402832
g3
(g7
S'!\xc1\xf3\x14\x10s`>'
p1775
tp1776
Rp1777
tp1778
atp1779
a(I11
I200
(lp1780
(g1769
I10
F4.598780870437622
I80
F0.011501073837280273
g3
(g7
S'V\x13X\xb0\xbc/h>'
p1781
tp1782
Rp1783
tp1784
a(g1774
I10
F5.475888967514038
I80
F0.9114203453063965
g3
(g7
S'!\x88\xc1W\r4W>'
p1785
tp1786
Rp1787
tp1788
atp1789
a(I12
I200
(lp1790
(S'sto-iht'
p1791
I9
F6.970261096954346
I72
F0.013822555541992188
g3
(g7
S'.\xca\x9c\xa0\x0e\xe7u>'
p1792
tp1793
Rp1794
tp1795
a(S'graph-sto-iht'
p1796
I10
F9.128684043884277
I80
F1.236130714416504
g3
(g7
S'A\x02\x8b\xd8\xe2\x92b>'
p1797
tp1798
Rp1799
tp1800
atp1801
a(I13
I200
(lp1802
(g1791
I10
F8.438371896743774
I80
F0.01580524444580078
g3
(g7
S'\xa5\xc1<0\xf4\xe9h>'
p1803
tp1804
Rp1805
tp1806
a(g1796
I9
F6.7389538288116455
I72
F0.9659221172332764
g3
(g7
S'\xd9\x0f\x0e\xaa\xbc\rl>'
p1807
tp1808
Rp1809
tp1810
atp1811
a(I14
I200
(lp1812
(S'sto-iht'
p1813
I10
F7.836990118026733
I80
F0.015528440475463867
g3
(g7
S'\xb2\xfc\xc3:\x94\xc9b>'
p1814
tp1815
Rp1816
tp1817
a(S'graph-sto-iht'
p1818
I10
F10.210122108459473
I80
F1.7806525230407715
g3
(g7
S'A\xc7\x81::\xcdb>'
p1819
tp1820
Rp1821
tp1822
atp1823
a(I15
I200
(lp1824
(g1813
I10
F7.402682065963745
I80
F0.015018701553344727
g3
(g7
S'V\x84\x93\xc5\xa8mq>'
p1825
tp1826
Rp1827
tp1828
a(g1818
I10
F5.279530048370361
I80
F0.6817705631256104
g3
(g7
S'\x8d\x1a\x80\xcf\xc3\x84a>'
p1829
tp1830
Rp1831
tp1832
atp1833
a(I16
I200
(lp1834
(S'sto-iht'
p1835
I10
F7.695158958435059
I80
F0.015679597854614258
g3
(g7
S'\xb3\xde/\xd7\x96Z`>'
p1836
tp1837
Rp1838
tp1839
a(S'graph-sto-iht'
p1840
I10
F10.1405189037323
I80
F1.9956908226013184
g3
(g7
S'\xa6\x88S\xb6\x00\xc2c>'
p1841
tp1842
Rp1843
tp1844
atp1845
a(I17
I200
(lp1846
(g1835
I10
F7.045974969863892
I80
F0.014925241470336914
g3
(g7
S'\xa4X\xf1\x17\x98\xd2Y>'
p1847
tp1848
Rp1849
tp1850
a(g1840
I9
F4.982999086380005
I72
F0.9075522422790527
g3
(g7
S'#R\x8e\xb33mo>'
p1851
tp1852
Rp1853
tp1854
atp1855
a(I18
I200
(lp1856
(S'sto-iht'
p1857
I10
F7.763072967529297
I80
F0.016417264938354492
g3
(g7
S'l\xdfpC72w>'
p1858
tp1859
Rp1860
tp1861
a(S'graph-sto-iht'
p1862
I10
F9.031267166137695
I80
F1.2521765232086182
g3
(g7
S'a\x80\x11\xfb\xc8Wu>'
p1863
tp1864
Rp1865
tp1866
atp1867
a(I19
I200
(lp1868
(g1857
I10
F8.139753103256226
I80
F0.01626133918762207
g3
(g7
S'\xf2\xe2\x08\x9d\xb9-w>'
p1869
tp1870
Rp1871
tp1872
a(g1862
I10
F7.873755931854248
I80
F1.249671220779419
g3
(g7
S'\xd1<\x14h\xdc~m>'
p1873
tp1874
Rp1875
tp1876
atp1877
a(I20
I200
(lp1878
(S'sto-iht'
p1879
I10
F8.006762981414795
I80
F0.01619267463684082
g3
(g7
S'U\xfe\xe2)\xf0\x0e^>'
p1880
tp1881
Rp1882
tp1883
a(S'graph-sto-iht'
p1884
I9
F8.311707019805908
I72
F1.3787298202514648
g3
(g7
S'N\xc0\x8c\xc9\xcb+|>'
p1885
tp1886
Rp1887
tp1888
atp1889
a(I21
I200
(lp1890
(g1879
I9
F7.654876947402954
I72
F0.014980554580688477
g3
(g7
S'\xa0\x19\xa4\xea\x0e\x13f>'
p1891
tp1892
Rp1893
tp1894
a(g1884
I9
F7.3968119621276855
I72
F1.0767385959625244
g3
(g7
S'\xe1u\xf5R\xb2\x1dd>'
p1895
tp1896
Rp1897
tp1898
atp1899
a(I22
I200
(lp1900
(S'sto-iht'
p1901
I10
F7.759976148605347
I80
F0.01615285873413086
g3
(g7
S'F@\r6%5[>'
p1902
tp1903
Rp1904
tp1905
a(S'graph-sto-iht'
p1906
I10
F9.015007972717285
I80
F1.3474621772766113
g3
(g7
S'\x16\xaa\x0e\xa3E\x05[>'
p1907
tp1908
Rp1909
tp1910
atp1911
a(I23
I200
(lp1912
(g1901
I10
F4.601743936538696
I80
F0.012132406234741211
g3
(g7
S'10\xc7\x94,/w>'
p1913
tp1914
Rp1915
tp1916
a(g1906
I10
F5.739109992980957
I80
F1.1919529438018799
g3
(g7
S'\xf8\xbd\xa4^\xd8\xd0u>'
p1917
tp1918
Rp1919
tp1920
atp1921
a(I24
I200
(lp1922
(S'sto-iht'
p1923
I9
F7.209864854812622
I72
F0.013885498046875
g3
(g7
S'5\xb4\xc4l\x04Wr>'
p1924
tp1925
Rp1926
tp1927
a(S'graph-sto-iht'
p1928
I9
F8.957803010940552
I72
F1.5032806396484375
g3
(g7
S'i\x1cL\x03\xbeov>'
p1929
tp1930
Rp1931
tp1932
atp1933
a(I25
I200
(lp1934
(g1923
I10
F8.354058980941772
I80
F0.015781879425048828
g3
(g7
S'\xc6\x16\xd7\xa1\xe0\x1di>'
p1935
tp1936
Rp1937
tp1938
a(g1928
I10
F7.447319984436035
I80
F1.064969778060913
g3
(g7
S'\xc8\x9f\x17V\xa9\x10e>'
p1939
tp1940
Rp1941
tp1942
atp1943
a(I26
I200
(lp1944
(S'sto-iht'
p1945
I10
F7.7785539627075195
I80
F0.016141414642333984
g3
(g7
S'Es\xd3\x16\x95\xc2h>'
p1946
tp1947
Rp1948
tp1949
a(S'graph-sto-iht'
p1950
I10
F9.113633871078491
I80
F1.1182568073272705
g3
(g7
S"'0\xd1\xe4\xbf\xd1Q>"
p1951
tp1952
Rp1953
tp1954
atp1955
a(I27
I200
(lp1956
(g1945
I9
F6.436252117156982
I72
F0.014194488525390625
g3
(g7
S'\x1c\x12u\x8d\xd8\xa4n>'
p1957
tp1958
Rp1959
tp1960
a(g1950
I9
F4.6305341720581055
I72
F0.6351463794708252
g3
(g7
S'`\xa3\x19\xf3\xc7\x8fo>'
p1961
tp1962
Rp1963
tp1964
atp1965
a(I28
I200
(lp1966
(S'sto-iht'
p1967
I10
F7.710998058319092
I80
F0.015233516693115234
g3
(g7
S'\x08\x8bT)\xe4\xf3O>'
p1968
tp1969
Rp1970
tp1971
a(S'graph-sto-iht'
p1972
I10
F9.7861168384552
I80
F1.8591241836547852
g3
(g7
S'\x9a\x06\xdcM\x1fVZ>'
p1973
tp1974
Rp1975
tp1976
atp1977
a(I29
I200
(lp1978
(g1967
I10
F8.141982078552246
I80
F0.015712976455688477
g3
(g7
S'\xa4\xc6\x9b\xc9P]e>'
p1979
tp1980
Rp1981
tp1982
a(g1972
I10
F6.8387770652771
I80
F0.9812808036804199
g3
(g7
S'p\x05\xfd\xc7Go[>'
p1983
tp1984
Rp1985
tp1986
atp1987
a(I30
I200
(lp1988
(S'sto-iht'
p1989
I10
F5.474509000778198
I80
F0.013756513595581055
g3
(g7
S'\xba\xf1n\x84N\xeec>'
p1990
tp1991
Rp1992
tp1993
a(S'graph-sto-iht'
p1994
I9
F9.183330059051514
I72
F1.6163642406463623
g3
(g7
S'\xfe @W^\x1cv>'
p1995
tp1996
Rp1997
tp1998
atp1999
a(I31
I200
(lp2000
(g1989
I10
F8.280885934829712
I80
F0.016492366790771484
g3
(g7
S'U_|\xb4E\x15Z>'
p2001
tp2002
Rp2003
tp2004
a(g1994
I9
F8.280327796936035
I72
F1.278407096862793
g3
(g7
S'\xcf5\xfe-E\xe5q>'
p2005
tp2006
Rp2007
tp2008
atp2009
a(I32
I200
(lp2010
(S'sto-iht'
p2011
I10
F7.849933862686157
I80
F0.016952037811279297
g3
(g7
S'\xc8_fF\xe5Ma>'
p2012
tp2013
Rp2014
tp2015
a(S'graph-sto-iht'
p2016
I9
F7.160027980804443
I72
F1.442915678024292
g3
(g7
S'\xfd=c\x95\xe0lu>'
p2017
tp2018
Rp2019
tp2020
atp2021
a(I33
I200
(lp2022
(g2011
I10
F4.5971338748931885
I80
F0.012123584747314453
g3
(g7
S'\xc1\x10\r\xcfh\xffr>'
p2023
tp2024
Rp2025
tp2026
a(g2016
I10
F5.471818208694458
I80
F0.857536792755127
g3
(g7
S'\x92\xfb\x12\xf6\x00`Y>'
p2027
tp2028
Rp2029
tp2030
atp2031
a(I34
I200
(lp2032
(S'sto-iht'
p2033
I9
F7.110841989517212
I72
F0.014584541320800781
g3
(g7
S'\xc4\xc6\x8c:Q\x80w>'
p2034
tp2035
Rp2036
tp2037
a(S'graph-sto-iht'
p2038
I9
F8.274420976638794
I72
F1.3174095153808594
g3
(g7
S'\x81\x98\xab4\xffjr>'
p2039
tp2040
Rp2041
tp2042
atp2043
a(I35
I200
(lp2044
(g2033
I10
F8.365972995758057
I80
F0.016454219818115234
g3
(g7
S'\x9f]\x94\xdfQ^]>'
p2045
tp2046
Rp2047
tp2048
a(g2038
I10
F6.340743780136108
I80
F1.095733880996704
g3
(g7
S'\xc1\xfe\xa2\xbc\xfc\xc6`>'
p2049
tp2050
Rp2051
tp2052
atp2053
a(I36
I200
(lp2054
(S'sto-iht'
p2055
I10
F4.467073917388916
I80
F0.012645483016967773
g3
(g7
S'`z\x88\xb1\xf1Wu>'
p2056
tp2057
Rp2058
tp2059
a(S'graph-sto-iht'
p2060
I10
F5.290066957473755
I80
F0.7558557987213135
g3
(g7
S'\xf7\x9e\xb0\xd2]\x8c}>'
p2061
tp2062
Rp2063
tp2064
atp2065
a(I37
I200
(lp2066
(g2055
I10
F6.743821859359741
I80
F0.014788627624511719
g3
(g7
S'M@j\xe5\xc5sa>'
p2067
tp2068
Rp2069
tp2070
a(g2060
I9
F8.654627799987793
I72
F1.4203217029571533
g3
(g7
S'l\xb1\xb4&\xfe\x0b|>'
p2071
tp2072
Rp2073
tp2074
atp2075
a(I38
I200
(lp2076
(S'sto-iht'
p2077
I10
F8.2590811252594
I80
F0.01588606834411621
g3
(g7
S'\xd9^`\x87\xbe\xb0t>'
p2078
tp2079
Rp2080
tp2081
a(S'graph-sto-iht'
p2082
I10
F10.278014898300171
I80
F2.043421983718872
g3
(g7
S'\x8a\xc0\x84\x1dFCZ>'
p2083
tp2084
Rp2085
tp2086
atp2087
a(I39
I200
(lp2088
(g2077
I10
F8.300739049911499
I80
F0.01748037338256836
g3
(g7
S'q\xf3r\xc4\n(a>'
p2089
tp2090
Rp2091
tp2092
a(g2082
I9
F6.571959018707275
I72
F1.2836222648620605
g3
(g7
S'\xc3\xc9\x19\xea\x82\xd6r>'
p2093
tp2094
Rp2095
tp2096
atp2097
a(I40
I200
(lp2098
(S'sto-iht'
p2099
I10
F8.00351095199585
I80
F0.015477657318115234
g3
(g7
S'=\x12\xde\xa8\x03\xc3g>'
p2100
tp2101
Rp2102
tp2103
a(S'graph-sto-iht'
p2104
I10
F10.636234998703003
I80
F2.130208730697632
g3
(g7
S'\x07\xdfN\\\x8b\xb5T>'
p2105
tp2106
Rp2107
tp2108
atp2109
a(I41
I200
(lp2110
(g2099
I9
F7.25156307220459
I72
F0.014344453811645508
g3
(g7
S'\xcf\x81S\xfd\xddWr>'
p2111
tp2112
Rp2113
tp2114
a(g2104
I9
F5.68057107925415
I72
F0.722639799118042
g3
(g7
S'=\x1a\xbd\x1af;q>'
p2115
tp2116
Rp2117
tp2118
atp2119
a(I42
I200
(lp2120
(S'sto-iht'
p2121
I10
F8.018286943435669
I80
F0.016369104385375977
g3
(g7
S'c\x08\xc6\xd4\xef\x1fa>'
p2122
tp2123
Rp2124
tp2125
a(S'graph-sto-iht'
p2126
I10
F7.099651098251343
I80
F0.7974560260772705
g3
(g7
S'\x83\x82\x9e\xee\xd5~T>'
p2127
tp2128
Rp2129
tp2130
atp2131
a(I43
I200
(lp2132
(g2121
I10
F4.617029905319214
I80
F0.01246953010559082
g3
(g7
S'O\xfd\x8aSa\xbdU>'
p2133
tp2134
Rp2135
tp2136
a(g2126
I10
F5.546607971191406
I80
F0.9878594875335693
g3
(g7
S'\xb7\xf4\xb5\xb3\xa4\xe2b>'
p2137
tp2138
Rp2139
tp2140
atp2141
a(I44
I200
(lp2142
(S'sto-iht'
p2143
I10
F7.851596117019653
I80
F0.01548147201538086
g3
(g7
S'\xde\xef_\x9c$\xefc>'
p2144
tp2145
Rp2146
tp2147
a(S'graph-sto-iht'
p2148
I9
F7.978096961975098
I72
F1.4773688316345215
g3
(g7
S'f\xdb\xfc\xf8$\xdds>'
p2149
tp2150
Rp2151
tp2152
atp2153
a(I45
I200
(lp2154
(g2143
I10
F4.681680917739868
I80
F0.01155853271484375
g3
(g7
S'\xf4\xf7\xfe\xef)ux>'
p2155
tp2156
Rp2157
tp2158
a(g2148
I10
F5.615675926208496
I80
F1.0272572040557861
g3
(g7
S'z\xe3\xf9)\xd0\x90`>'
p2159
tp2160
Rp2161
tp2162
atp2163
a(I46
I200
(lp2164
(S'sto-iht'
p2165
I10
F4.533529996871948
I80
F0.012329578399658203
g3
(g7
S'%\xeb\x1a\xf7+]`>'
p2166
tp2167
Rp2168
tp2169
a(S'graph-sto-iht'
p2170
I10
F5.65724515914917
I80
F1.0517559051513672
g3
(g7
S'\x05\xd9\xe4+\xad\x86T>'
p2171
tp2172
Rp2173
tp2174
atp2175
a(I47
I200
(lp2176
(g2165
I10
F7.149580955505371
I80
F0.015391826629638672
g3
(g7
S'\xca\xf5Y\xb3<l\\>'
p2177
tp2178
Rp2179
tp2180
a(g2170
I9
F8.09679913520813
I72
F1.26338791847229
g3
(g7
S'\xaa1\x7f?\xa1\x8bv>'
p2181
tp2182
Rp2183
tp2184
atp2185
a(I48
I200
(lp2186
(S'sto-iht'
p2187
I9
F7.33067512512207
I72
F0.013918638229370117
g3
(g7
S'\xed\xc6\x01\xa8U\xccr>'
p2188
tp2189
Rp2190
tp2191
a(S'graph-sto-iht'
p2192
I9
F8.129835844039917
I72
F1.1365430355072021
g3
(g7
S'\xdb\x02\xf4(\x85w|>'
p2193
tp2194
Rp2195
tp2196
atp2197
a(I49
I200
(lp2198
(g2187
I10
F8.093549966812134
I80
F0.015338659286499023
g3
(g7
S"\x83\x90\xd0':\xb2j>"
p2199
tp2200
Rp2201
tp2202
a(g2192
I9
F7.510142087936401
I72
F1.1113255023956299
g3
(g7
S'\xbe\x94\x08>T\x1ap>'
p2203
tp2204
Rp2205
tp2206
atp2207
a(I0
I160
(lp2208
(S'sto-iht'
p2209
I10
F8.20944881439209
I100
F0.021437644958496094
g3
(g7
S'[=I\xef\xb4sa>'
p2210
tp2211
Rp2212
tp2213
a(S'graph-sto-iht'
p2214
I10
F11.216262102127075
I100
F2.705463409423828
g3
(g7
S'\xa8\x1a\xc7*\xf69[>'
p2215
tp2216
Rp2217
tp2218
atp2219
a(I1
I160
(lp2220
(g2209
I11
F7.6348700523376465
I110
F0.02043437957763672
g3
(g7
S'\xfc\xf3\x91\xa7%-[>'
p2221
tp2222
Rp2223
tp2224
a(g2214
I11
F6.010962009429932
I110
F1.106004238128662
g3
(g7
S'\xa8\x87\xa5\xc0(\x0ed>'
p2225
tp2226
Rp2227
tp2228
atp2229
a(I2
I160
(lp2230
(S'sto-iht'
p2231
I10
F8.10666298866272
I100
F0.020018577575683594
g3
(g7
S'\x9f\t\x0f6\x13\x01l>'
p2232
tp2233
Rp2234
tp2235
a(S'graph-sto-iht'
p2236
I10
F10.57153606414795
I100
F2.146489143371582
g3
(g7
S'x!K91\x1eY>'
p2237
tp2238
Rp2239
tp2240
atp2241
a(I3
I160
(lp2242
(g2231
I10
F6.90605902671814
I100
F0.018445730209350586
g3
(g7
S'q\x94w\xaa@\xa7m>'
p2243
tp2244
Rp2245
tp2246
a(g2236
I10
F5.784312009811401
I100
F1.231478214263916
g3
(g7
S'\xdd\xcc\x8d\xc3\xb0\x89e>'
p2247
tp2248
Rp2249
tp2250
atp2251
a(I4
I160
(lp2252
(S'sto-iht'
p2253
I10
F7.983313083648682
I100
F0.019295454025268555
g3
(g7
S'O$\xa7\x9f\xd36g>'
p2254
tp2255
Rp2256
tp2257
a(S'graph-sto-iht'
p2258
I10
F10.014089822769165
I100
F1.7841506004333496
g3
(g7
S'\xf1c\xd7\xe7\xc5.W>'
p2259
tp2260
Rp2261
tp2262
atp2263
a(I5
I160
(lp2264
(g2253
I10
F6.765927076339722
I100
F0.017593860626220703
g3
(g7
S'\xf1^\xbb\x98\x11Zs>'
p2265
tp2266
Rp2267
tp2268
a(g2258
I10
F5.66689395904541
I100
F1.0866587162017822
g3
(g7
S'\xd3\xae1\x08U\x91b>'
p2269
tp2270
Rp2271
tp2272
atp2273
a(I6
I160
(lp2274
(S'sto-iht'
p2275
I10
F8.180593967437744
I100
F0.019506216049194336
g3
(g7
S'\xce\xac\xc1\xd40r\\>'
p2276
tp2277
Rp2278
tp2279
a(S'graph-sto-iht'
p2280
I10
F10.480699062347412
I100
F2.091426134109497
g3
(g7
S"'9i\xa4\xa1\xc7U>"
p2281
tp2282
Rp2283
tp2284
atp2285
a(I7
I160
(lp2286
(g2275
I10
F6.9574549198150635
I100
F0.017254114151000977
g3
(g7
S'\xbf[2\xfa(\xd2d>'
p2287
tp2288
Rp2289
tp2290
a(g2280
I10
F5.460721969604492
I100
F1.033207893371582
g3
(g7
S'\xcf\x80S\xca\xec\xabr>'
p2291
tp2292
Rp2293
tp2294
atp2295
a(I8
I160
(lp2296
(S'sto-iht'
p2297
I10
F7.950758934020996
I100
F0.02086019515991211
g3
(g7
S'\xaa|wjA\xb2`>'
p2298
tp2299
Rp2300
tp2301
a(S'graph-sto-iht'
p2302
I9
F9.261943101882935
I90
F1.9986178874969482
g3
(g7
S'\t`\xf8\x80\x02\x13x>'
p2303
tp2304
Rp2305
tp2306
atp2307
a(I9
I160
(lp2308
(g2297
I10
F7.906339168548584
I100
F0.020139455795288086
g3
(g7
S'= &\xf9\xfb\x8ee>'
p2309
tp2310
Rp2311
tp2312
a(g2302
I10
F5.965686082839966
I100
F0.9648106098175049
g3
(g7
S'O`\x88\xaeO\x18`>'
p2313
tp2314
Rp2315
tp2316
atp2317
a(I10
I160
(lp2318
(S'sto-iht'
p2319
I10
F8.295588970184326
I100
F0.019873857498168945
g3
(g7
S'yz\xa8\xbd\xa1\xc2d>'
p2320
tp2321
Rp2322
tp2323
a(S'graph-sto-iht'
p2324
I9
F9.408643007278442
I90
F1.4935355186462402
g3
(g7
S'\xc8\x81(\xdb\xfd\x9er>'
p2325
tp2326
Rp2327
tp2328
atp2329
a(I11
I160
(lp2330
(g2319
I10
F7.475912094116211
I100
F0.018551349639892578
g3
(g7
S'6X\xbaL^\xf9R>'
p2331
tp2332
Rp2333
tp2334
a(g2324
I10
F5.005825042724609
I100
F0.8366644382476807
g3
(g7
S'\xa8\x83.\xd3\x9b\xf2i>'
p2335
tp2336
Rp2337
tp2338
atp2339
a(I12
I160
(lp2340
(S'sto-iht'
p2341
I11
F5.489956855773926
I110
F0.0161440372467041
g3
(g7
S'\xc8\x05n\xf7\xf2\xffU>'
p2342
tp2343
Rp2344
tp2345
a(S'graph-sto-iht'
p2346
I10
F6.834496021270752
I100
F1.2572894096374512
g3
(g7
S'\xf3\xc2O\x19\x92\x8ad>'
p2347
tp2348
Rp2349
tp2350
atp2351
a(I13
I160
(lp2352
(g2341
I10
F5.081680059432983
I100
F0.014584541320800781
g3
(g7
S'\xb05PY\xb9\x1f^>'
p2353
tp2354
Rp2355
tp2356
a(g2346
I9
F5.088476896286011
I90
F0.7547039985656738
g3
(g7
S'Z\xb4C\x87\x9c\x83x>'
p2357
tp2358
Rp2359
tp2360
atp2361
a(I14
I160
(lp2362
(S'sto-iht'
p2363
I10
F4.775167942047119
I100
F0.015240192413330078
g3
(g7
S'\x89\x93k\xfd\xb5\x04v>'
p2364
tp2365
Rp2366
tp2367
a(S'graph-sto-iht'
p2368
I10
F6.158658027648926
I100
F1.1881427764892578
g3
(g7
S'\xab\xf6}\r\xbd\x96j>'
p2369
tp2370
Rp2371
tp2372
atp2373
a(I15
I160
(lp2374
(g2363
I10
F4.920336961746216
I100
F0.015379190444946289
g3
(g7
S')\xf9\x86`\xad\xb1q>'
p2375
tp2376
Rp2377
tp2378
a(g2368
I10
F5.707092046737671
I100
F1.0427191257476807
g3
(g7
S'\xd2\x9d\xa4\xa5\x14\xa0Q>'
p2379
tp2380
Rp2381
tp2382
atp2383
a(I16
I160
(lp2384
(S'sto-iht'
p2385
I10
F4.904092788696289
I100
F0.014674186706542969
g3
(g7
S'\x9a_\x0c\x91\xbd\xe1p>'
p2386
tp2387
Rp2388
tp2389
a(S'graph-sto-iht'
p2390
I10
F6.419351816177368
I100
F1.4005463123321533
g3
(g7
S'2\x91\xa2\x07\x1b\xebc>'
p2391
tp2392
Rp2393
tp2394
atp2395
a(I17
I160
(lp2396
(g2385
I11
F5.340383052825928
I110
F0.01577472686767578
g3
(g7
S'l\xa9:\x13\xe6\xc3\\>'
p2397
tp2398
Rp2399
tp2400
a(g2390
I10
F5.516916036605835
I100
F0.8807966709136963
g3
(g7
S'+4\x16\xc1"\x04a>'
p2401
tp2402
Rp2403
tp2404
atp2405
a(I18
I160
(lp2406
(S'sto-iht'
p2407
I10
F8.082356929779053
I100
F0.01979804039001465
g3
(g7
S'\xd7gw?\x1c\x86W>'
p2408
tp2409
Rp2410
tp2411
a(S'graph-sto-iht'
p2412
I9
F8.999515771865845
I90
F1.526545763015747
g3
(g7
S'\x12n\x1fmb_y>'
p2413
tp2414
Rp2415
tp2416
atp2417
a(I19
I160
(lp2418
(g2407
I11
F5.113924026489258
I110
F0.014939546585083008
g3
(g7
S'\xfa\x11\x1a\x14OyU>'
p2419
tp2420
Rp2421
tp2422
a(g2412
I10
F4.863816976547241
I100
F1.003718376159668
g3
(g7
S'\xf8\xf9\xf5X\x82\x8dk>'
p2423
tp2424
Rp2425
tp2426
atp2427
a(I20
I160
(lp2428
(S'sto-iht'
p2429
I10
F8.511677980422974
I100
F0.020154953002929688
g3
(g7
S'R\xd1\xb3\x97#xo>'
p2430
tp2431
Rp2432
tp2433
a(S'graph-sto-iht'
p2434
I11
F9.281568765640259
I110
F1.7572989463806152
g3
(g7
S'\xfa\x9f\xb6]}JT>'
p2435
tp2436
Rp2437
tp2438
atp2439
a(I21
I160
(lp2440
(g2429
I11
F4.737762928009033
I110
F0.014256954193115234
g3
(g7
S'Zg\x94a\x93\x85R>'
p2441
tp2442
Rp2443
tp2444
a(g2434
I10
F4.59650993347168
I100
F0.8206360340118408
g3
(g7
S'\xb8\xe6\xdb\x82\xdf}]>'
p2445
tp2446
Rp2447
tp2448
atp2449
a(I22
I160
(lp2450
(S'sto-iht'
p2451
I11
F9.35777997970581
I110
F0.02370905876159668
g3
(g7
S'\x92\xb9E\x02\xccDV>'
p2452
tp2453
Rp2454
tp2455
a(S'graph-sto-iht'
p2456
I10
F6.9875571727752686
I100
F1.0930464267730713
g3
(g7
S'W\xd8E\x9a\xbd\x93m>'
p2457
tp2458
Rp2459
tp2460
atp2461
a(I23
I160
(lp2462
(g2451
I11
F4.899929046630859
I110
F0.014929056167602539
g3
(g7
S'\xc1\x99\x8f\xe8\xad\x95f>'
p2463
tp2464
Rp2465
tp2466
a(g2456
I10
F4.724056959152222
I100
F0.8023436069488525
g3
(g7
S'\x1b\x01|Lf\xeej>'
p2467
tp2468
Rp2469
tp2470
atp2471
a(I24
I160
(lp2472
(S'sto-iht'
p2473
I10
F8.2884681224823
I100
F0.019844770431518555
g3
(g7
S'V\xb44.}\xc3\\>'
p2474
tp2475
Rp2476
tp2477
a(S'graph-sto-iht'
p2478
I9
F9.212270021438599
I90
F2.033289670944214
g3
(g7
S'\x02\xc5\x11\xa5\xf0\x84|>'
p2479
tp2480
Rp2481
tp2482
atp2483
a(I25
I160
(lp2484
(g2473
I10
F4.965626001358032
I100
F0.013872861862182617
g3
(g7
S'\x12W\xbc\x18\xb7\x1bi>'
p2485
tp2486
Rp2487
tp2488
a(g2478
I10
F4.666296005249023
I100
F0.8197050094604492
g3
(g7
S'\xdb\x82\x05XgQi>'
p2489
tp2490
Rp2491
tp2492
atp2493
a(I26
I160
(lp2494
(S'sto-iht'
p2495
I10
F6.850322961807251
I100
F0.01801919937133789
g3
(g7
S'?F\xdc\xb2&%[>'
p2496
tp2497
Rp2498
tp2499
a(S'graph-sto-iht'
p2500
I10
F9.443231105804443
I100
F1.8469431400299072
g3
(g7
S'\xdd\x1elYN\xbcW>'
p2501
tp2502
Rp2503
tp2504
atp2505
a(I27
I160
(lp2506
(g2495
I10
F4.404705047607422
I100
F0.013753890991210938
g3
(g7
S'\x14\xc3O*\x91\xd7`>'
p2507
tp2508
Rp2509
tp2510
a(g2500
I10
F4.913876056671143
I100
F0.9385004043579102
g3
(g7
S'\x04|E\x19\x01S]>'
p2511
tp2512
Rp2513
tp2514
atp2515
a(I28
I160
(lp2516
(S'sto-iht'
p2517
I10
F8.404891014099121
I100
F0.019962072372436523
g3
(g7
S'R\x0b|8+^a>'
p2518
tp2519
Rp2520
tp2521
a(S'graph-sto-iht'
p2522
I9
F8.848294973373413
I90
F1.595731258392334
g3
(g7
S'k\xc6\x87\x1ao\x97p>'
p2523
tp2524
Rp2525
tp2526
atp2527
a(I29
I160
(lp2528
(g2517
I10
F4.557377099990845
I100
F0.013370990753173828
g3
(g7
S"`'28\xa0\x8bj>"
p2529
tp2530
Rp2531
tp2532
a(g2522
I10
F4.721369028091431
I100
F0.8682148456573486
g3
(g7
S'\xf0sA\xd4\xd3\xc9W>'
p2533
tp2534
Rp2535
tp2536
atp2537
a(I30
I160
(lp2538
(S'sto-iht'
p2539
I10
F8.436375141143799
I100
F0.020675182342529297
g3
(g7
S'\x88\xef\x06M\x13\x8es>'
p2540
tp2541
Rp2542
tp2543
a(S'graph-sto-iht'
p2544
I10
F7.803689956665039
I100
F1.7968103885650635
g3
(g7
S'\xf8\x15\xb78\x84\xf0c>'
p2545
tp2546
Rp2547
tp2548
atp2549
a(I31
I160
(lp2550
(g2539
I10
F4.413370132446289
I100
F0.013892412185668945
g3
(g7
S'\xcfx\xab\xaa6\x85k>'
p2551
tp2552
Rp2553
tp2554
a(g2544
I10
F4.783792018890381
I100
F0.8314874172210693
g3
(g7
S'\xc3\xfd\xbe\xf5\xdf\x8b[>'
p2555
tp2556
Rp2557
tp2558
atp2559
a(I32
I160
(lp2560
(S'sto-iht'
p2561
I10
F8.172142028808594
I100
F0.021223783493041992
g3
(g7
S'NbZ\xa2\xc2\xddx>'
p2562
tp2563
Rp2564
tp2565
a(S'graph-sto-iht'
p2566
I10
F7.984946012496948
I100
F1.4141931533813477
g3
(g7
S'z\x1aD=>xz>'
p2567
tp2568
Rp2569
tp2570
atp2571
a(I33
I160
(lp2572
(g2561
I10
F4.414124965667725
I100
F0.013697624206542969
g3
(g7
S'i\x04\x00\xfb.\xe7c>'
p2573
tp2574
Rp2575
tp2576
a(g2566
I10
F4.800662994384766
I100
F0.7953500747680664
g3
(g7
S'\xd48\xbf9\x05Vb>'
p2577
tp2578
Rp2579
tp2580
atp2581
a(I34
I160
(lp2582
(S'sto-iht'
p2583
I10
F8.388243913650513
I100
F0.021224498748779297
g3
(g7
S'\x86\\Z\xf1\x1eph>'
p2584
tp2585
Rp2586
tp2587
a(S'graph-sto-iht'
p2588
I10
F9.888184070587158
I100
F1.9777028560638428
g3
(g7
S'\xdd\xaf\x8b\x08\x1c e>'
p2589
tp2590
Rp2591
tp2592
atp2593
a(I35
I160
(lp2594
(g2583
I10
F4.418407917022705
I100
F0.013511419296264648
g3
(g7
S'\x7fp\x891\xc2\xecn>'
p2595
tp2596
Rp2597
tp2598
a(g2588
I10
F5.0123419761657715
I100
F1.0987141132354736
g3
(g7
S'\xcf\xa7@\xe4\xc5\xc4b>'
p2599
tp2600
Rp2601
tp2602
atp2603
a(I36
I160
(lp2604
(S'sto-iht'
p2605
I10
F8.473975896835327
I100
F0.01996588706970215
g3
(g7
S'k\xfb\xfd\x08\xad?g>'
p2606
tp2607
Rp2608
tp2609
a(S'graph-sto-iht'
p2610
I10
F9.745206832885742
I100
F2.265263795852661
g3
(g7
S'\xcb\xf7D\xb9\x02sR>'
p2611
tp2612
Rp2613
tp2614
atp2615
a(I37
I160
(lp2616
(g2605
I10
F4.238492965698242
I100
F0.012380123138427734
g3
(g7
S'\x8a5H\xff\xf0\x9ev>'
p2617
tp2618
Rp2619
tp2620
a(g2610
I10
F4.438457012176514
I100
F0.6660656929016113
g3
(g7
S'\xa2\xef\xc0G\xdd\x96k>'
p2621
tp2622
Rp2623
tp2624
atp2625
a(I38
I160
(lp2626
(S'sto-iht'
p2627
I11
F5.569536924362183
I110
F0.016297340393066406
g3
(g7
S'\xaaNk\xba\xd42V>'
p2628
tp2629
Rp2630
tp2631
a(S'graph-sto-iht'
p2632
I10
F6.21452784538269
I100
F1.203145980834961
g3
(g7
S'\x06+<-\xce\xd9q>'
p2633
tp2634
Rp2635
tp2636
atp2637
a(I39
I160
(lp2638
(g2627
I10
F4.742872953414917
I100
F0.014145851135253906
g3
(g7
S'\x137\xad\x1d\xcbGj>'
p2639
tp2640
Rp2641
tp2642
a(g2632
I10
F5.335211992263794
I100
F0.9663436412811279
g3
(g7
S'K\xca\xa5n4\x80m>'
p2643
tp2644
Rp2645
tp2646
atp2647
a(I40
I160
(lp2648
(S'sto-iht'
p2649
I11
F9.667864084243774
I110
F0.02346181869506836
g3
(g7
S'd"%p\xe7\xd7a>'
p2650
tp2651
Rp2652
tp2653
a(S'graph-sto-iht'
p2654
I10
F7.546070098876953
I100
F1.4015464782714844
g3
(g7
S'\xac\xcdSC\x18\xeci>'
p2655
tp2656
Rp2657
tp2658
atp2659
a(I41
I160
(lp2660
(g2649
I10
F4.210803985595703
I100
F0.013291358947753906
g3
(g7
S'\xe2\x0e\x81\xab\x03AU>'
p2661
tp2662
Rp2663
tp2664
a(g2654
I10
F4.954758882522583
I100
F1.171215295791626
g3
(g7
S'\xa0\xfeO\x0e\x82gf>'
p2665
tp2666
Rp2667
tp2668
atp2669
a(I42
I160
(lp2670
(S'sto-iht'
p2671
I10
F8.368830919265747
I100
F0.020659446716308594
g3
(g7
S'\xb6\xcda\xb4\xcc\x98`>'
p2672
tp2673
Rp2674
tp2675
a(S'graph-sto-iht'
p2676
I10
F9.121994018554688
I100
F1.6250903606414795
g3
(g7
S'.\x9fE\\\x8f\xaen>'
p2677
tp2678
Rp2679
tp2680
atp2681
a(I43
I160
(lp2682
(g2671
I11
F4.567880153656006
I110
F0.014511585235595703
g3
(g7
S'\xfb\xe5!\xbb\xc2\xf7U>'
p2683
tp2684
Rp2685
tp2686
a(g2676
I10
F4.477917909622192
I100
F0.7391571998596191
g3
(g7
S'>S?\xf3O\xead>'
p2687
tp2688
Rp2689
tp2690
atp2691
a(I44
I160
(lp2692
(S'sto-iht'
p2693
I10
F8.530468940734863
I100
F0.021409273147583008
g3
(g7
S'\x8f\x0b\xa9\x13-\xc6d>'
p2694
tp2695
Rp2696
tp2697
a(S'graph-sto-iht'
p2698
I10
F7.241545915603638
I100
F1.1310265064239502
g3
(g7
S'\xff\xa1\xb2T\xe2\\U>'
p2699
tp2700
Rp2701
tp2702
atp2703
a(I45
I160
(lp2704
(g2693
I10
F4.346525192260742
I100
F0.014005899429321289
g3
(g7
S'\xe1\x1f\xc21\xfd\x05o>'
p2705
tp2706
Rp2707
tp2708
a(g2698
I10
F4.735291004180908
I100
F0.8278336524963379
g3
(g7
S'\xdcaD\xcb\x0b\x7fa>'
p2709
tp2710
Rp2711
tp2712
atp2713
a(I46
I160
(lp2714
(S'sto-iht'
p2715
I11
F8.972900867462158
I110
F0.023296117782592773
g3
(g7
S'=\xe0\xd0\xe4\xb6\xe9_>'
p2716
tp2717
Rp2718
tp2719
a(S'graph-sto-iht'
p2720
I10
F8.884965896606445
I100
F1.8189597129821777
g3
(g7
S'\xca\xae\xbb\xa5\xe3\xc3c>'
p2721
tp2722
Rp2723
tp2724
atp2725
a(I47
I160
(lp2726
(g2715
I10
F4.170186996459961
I100
F0.013875722885131836
g3
(g7
S'\xba\xddw+\xa4Ft>'
p2727
tp2728
Rp2729
tp2730
a(g2720
I10
F4.442553997039795
I100
F0.7380776405334473
g3
(g7
S'\x87R%\xe2\x8c\xeeU>'
p2731
tp2732
Rp2733
tp2734
atp2735
a(I48
I160
(lp2736
(S'sto-iht'
p2737
I11
F9.280683994293213
I110
F0.023339509963989258
g3
(g7
S'\xad\xcbh\x93&\xd4U>'
p2738
tp2739
Rp2740
tp2741
a(S'graph-sto-iht'
p2742
I10
F8.846653938293457
I100
F1.6462674140930176
g3
(g7
S'\x7f\x97}#vBd>'
p2743
tp2744
Rp2745
tp2746
atp2747
a(I49
I160
(lp2748
(g2737
I10
F3.8701059818267822
I100
F0.011991739273071289
g3
(g7
S'\x7f\xd9\x1a\xd5F\xc9r>'
p2749
tp2750
Rp2751
tp2752
a(g2742
I10
F4.25791597366333
I100
F0.9058394432067871
g3
(g7
S'\xd1\xa3\xa2\xe9\xc1\xedK>'
p2753
tp2754
Rp2755
tp2756
atp2757
a.