(dp0
S'results_pool'
p1
(lp2
(S'niht'
p3
S'background'
p4
I0
I354
cnumpy.core.multiarray
scalar
p5
(cnumpy
dtype
p6
(S'f8'
p7
I0
I1
tp8
Rp9
(I3
S'<'
p10
NNNI-1
I-1
I0
tp11
bS'\xf7\x84\xa8\xaa[\xb2\x0f@'
p12
tp13
Rp14
tp15
a(S'iht'
p16
g4
I0
I354
g5
(g9
S'\x07\xfa\x88\x85-D\x10@'
p17
tp18
Rp19
tp20
a(S'sto-iht'
p21
g4
I0
I354
g5
(g9
S'\x8f\xfa\xc8\xad\x9fm\x16@'
p22
tp23
Rp24
tp25
a(S'cosamp'
p26
S'background'
p27
I0
I354
g5
(g9
S'q{\xba\xd2\xb3\xfe\x0e@'
p28
tp29
Rp30
tp31
a(S'graph-iht'
p32
g27
I0
I354
g5
(g9
S'F;\x14fS\x97\t@'
p33
tp34
Rp35
tp36
a(S'graph-cosamp'
p37
g27
I0
I354
g5
(g9
S'$o\xf6<\xff\xf8\x0b@'
p38
tp39
Rp40
tp41
a(S'graph-sto-iht'
p42
S'background'
p43
I0
I354
g5
(g9
S'T=G\x08\xb59\x16@'
p44
tp45
Rp46
tp47
a(S'niht'
p48
g43
I0
I377
g5
(g9
S'`\xcf\x0c\x80\xf3\xe8\x10@'
p49
tp50
Rp51
tp52
a(S'iht'
p53
g43
I0
I377
g5
(g9
S'6{;\xca\x81y\x10@'
p54
tp55
Rp56
tp57
a(S'sto-iht'
p58
S'background'
p59
I0
I377
g5
(g9
S'\\3K\xc1\x98\xba\x15@'
p60
tp61
Rp62
tp63
a(S'cosamp'
p64
g59
I0
I377
g5
(g9
S'\xb1`\xedV\xf1\x07\x0f@'
p65
tp66
Rp67
tp68
a(S'graph-iht'
p69
g59
I0
I377
g5
(g9
S'Ex\x8f\x9b\xce#\x07@'
p70
tp71
Rp72
tp73
a(S'graph-cosamp'
p74
S'background'
p75
I0
I377
g5
(g9
S',\xbeA\xa8\xb3\xb0\x0b@'
p76
tp77
Rp78
tp79
a(S'graph-sto-iht'
p80
g75
I0
I377
g5
(g9
S'(\xfe/\xf0\x82_\x11@'
p81
tp82
Rp83
tp84
a(S'niht'
p85
g75
I0
I401
g5
(g9
S'Tbt\xf8\x95\x1b\x10@'
p86
tp87
Rp88
tp89
a(S'iht'
p90
S'background'
p91
I0
I401
g5
(g9
S'\xdc\xb1}3\x0c\x08\x10@'
p92
tp93
Rp94
tp95
a(S'sto-iht'
p96
g91
I0
I401
g5
(g9
S'\x04\xc2\x0b\x06Q\xa3\x14@'
p97
tp98
Rp99
tp100
a(S'cosamp'
p101
g91
I0
I401
g5
(g9
S'8\xb7\x91\xaa\xb6=\x0e@'
p102
tp103
Rp104
tp105
a(S'graph-iht'
p106
S'background'
p107
I0
I401
g5
(g9
S'B\xa00\xb6U\x99\x07@'
p108
tp109
Rp110
tp111
a(S'graph-cosamp'
p112
g107
I0
I401
g5
(g9
S'E\xe3\xde\x98B\xed\n@'
p113
tp114
Rp115
tp116
a(S'graph-sto-iht'
p117
g107
I0
I401
g5
(g9
S'\xf6(w\xad\x17 \x0b@'
p118
tp119
Rp120
tp121
a(S'niht'
p122
S'background'
p123
I0
I424
g5
(g9
S'd\xaf\xb7\x8d\xee_\x0f@'
p124
tp125
Rp126
tp127
a(S'iht'
p128
g123
I0
I424
g5
(g9
S'\xe1x>\xfa\xaa\\\x0f@'
p129
tp130
Rp131
tp132
a(S'sto-iht'
p133
g123
I0
I424
g5
(g9
S'\x06\xfa\x05\xd9\xb4\x92\x14@'
p134
tp135
Rp136
tp137
a(S'cosamp'
p138
S'background'
p139
I0
I424
g5
(g9
S'\xd5\x9c\xb6 \x10\xeb\r@'
p140
tp141
Rp142
tp143
a(S'graph-iht'
p144
g139
I0
I424
g5
(g9
S'>\x7f(\xdc[\x7f\x05@'
p145
tp146
Rp147
tp148
a(S'graph-cosamp'
p149
g139
I0
I424
g5
(g9
S'\x1ax$\xbfcz\t@'
p150
tp151
Rp152
tp153
a(S'graph-sto-iht'
p154
S'background'
p155
I0
I424
g5
(g9
S'c2\xeb\xd4W\xe5\xf3?'
p156
tp157
Rp158
tp159
a(S'niht'
p160
g155
I0
I448
g5
(g9
S'.R\xb2\xbc\x98\xaa\x0f@'
p161
tp162
Rp163
tp164
a(S'iht'
p165
g155
I0
I448
g5
(g9
S'q\xbc1`h\xc4\r@'
p166
tp167
Rp168
tp169
a(S'sto-iht'
p170
S'background'
p171
I0
I448
g5
(g9
S'\x06\x12\xb1f\x10\t\x15@'
p172
tp173
Rp174
tp175
a(S'cosamp'
p176
g171
I0
I448
g5
(g9
S'\xa7%\x17\xeb\xb4=\r@'
p177
tp178
Rp179
tp180
a(S'graph-iht'
p181
g171
I0
I448
g5
(g9
S'\xefc\xe0#,\xaf\x04@'
p182
tp183
Rp184
tp185
a(S'graph-cosamp'
p186
S'background'
p187
I0
I448
g5
(g9
S'\xc7\xba-\x8f\xf1\xe4\x08@'
p188
tp189
Rp190
tp191
a(S'graph-sto-iht'
p192
g187
I0
I448
g5
(g9
S'\xec-B&\x05\xa3\x00@'
p193
tp194
Rp195
tp196
a(S'niht'
p197
g187
I0
I472
g5
(g9
S'\x82\xef\xb3\x10\x12H\x0e@'
p198
tp199
Rp200
tp201
a(S'iht'
p202
S'background'
p203
I0
I472
g5
(g9
S'\xbck\x179\xdeS\x10@'
p204
tp205
Rp206
tp207
a(S'sto-iht'
p208
g203
I0
I472
g5
(g9
S'1\x99\x0b\x87\x0c\x84\x12@'
p209
tp210
Rp211
tp212
a(S'cosamp'
p213
g203
I0
I472
g5
(g9
S'\xea\x7f\xa4\x1d\x99(\x0c@'
p214
tp215
Rp216
tp217
a(S'graph-iht'
p218
S'background'
p219
I0
I472
g5
(g9
S'3\xa5T8+\x1b\x05@'
p220
tp221
Rp222
tp223
a(S'graph-cosamp'
p224
g219
I0
I472
g5
(g9
S'\x147\x88\x9cJz\x08@'
p225
tp226
Rp227
tp228
a(S'graph-sto-iht'
p229
g219
I0
I472
g5
(g9
S'\x90\xb9 \xf4\x0cx\x90>'
p230
tp231
Rp232
tp233
a(S'niht'
p234
S'background'
p235
I0
I495
g5
(g9
S'\xb5_\xc0\x1b\xc2\x9b\x0e@'
p236
tp237
Rp238
tp239
a(S'iht'
p240
g235
I0
I495
g5
(g9
S'd\x81\xcbI\xa2\xf3\x0c@'
p241
tp242
Rp243
tp244
a(S'sto-iht'
p245
g235
I0
I495
g5
(g9
S'\x01a\xea\x90\xc0n\x14@'
p246
tp247
Rp248
tp249
a(S'cosamp'
p250
S'background'
p251
I0
I495
g5
(g9
S'.\xaa\xb5Q\x1e\xb5\x0b@'
p252
tp253
Rp254
tp255
a(S'graph-iht'
p256
g251
I0
I495
g5
(g9
S'\x7f8`\x94\xd0\x83\xfc?'
p257
tp258
Rp259
tp260
a(S'graph-cosamp'
p261
g251
I0
I495
g5
(g9
S'\xfcS\xd4^\xb6\xe2\x05@'
p262
tp263
Rp264
tp265
a(S'graph-sto-iht'
p266
S'background'
p267
I0
I495
g5
(g9
S'YS`0v\x16\x91>'
p268
tp269
Rp270
tp271
a(S'niht'
p272
g267
I0
I519
g5
(g9
S'\xa6\xb8\xcd\x1d\x9d\x95\x0c@'
p273
tp274
Rp275
tp276
a(S'iht'
p277
g267
I0
I519
g5
(g9
S'z\x8f\xc5\xcfX\x8d\x0b@'
p278
tp279
Rp280
tp281
a(S'sto-iht'
p282
S'background'
p283
I0
I519
g5
(g9
S'\xd6\x97\x9eM\xfe\x80\x15@'
p284
tp285
Rp286
tp287
a(S'cosamp'
p288
g283
I0
I519
g5
(g9
S'\xcb^\x83\x86R\xab\x0b@'
p289
tp290
Rp291
tp292
a(S'graph-iht'
p293
g283
I0
I519
g5
(g9
S'l)\xc2\xb5\x01!\xfb?'
p294
tp295
Rp296
tp297
a(S'graph-cosamp'
p298
S'background'
p299
I0
I519
g5
(g9
S'2\x88\xf1^`!\x06@'
p300
tp301
Rp302
tp303
a(S'graph-sto-iht'
p304
g299
I0
I519
g5
(g9
S'/\xbb\xf2\xc53\xe5\x8a>'
p305
tp306
Rp307
tp308
a(S'niht'
p309
g299
I0
I542
g5
(g9
S'i\xf0\xc6\x97I\x98\x07@'
p310
tp311
Rp312
tp313
a(S'iht'
p314
S'background'
p315
I0
I542
g5
(g9
S'\xdb\xf13\x14\x95D\x06@'
p316
tp317
Rp318
tp319
a(S'sto-iht'
p320
g315
I0
I542
g5
(g9
S'\xef\xa9\xfb\x81\x81\x85\x15@'
p321
tp322
Rp323
tp324
a(S'cosamp'
p325
g315
I0
I542
g5
(g9
S'\x136\xfd\xdc\xc81\t@'
p326
tp327
Rp328
tp329
a(S'graph-iht'
p330
S'background'
p331
I0
I542
g5
(g9
S'\xcc\xe7c\x9dl?\x01@'
p332
tp333
Rp334
tp335
a(S'graph-cosamp'
p336
g331
I0
I542
g5
(g9
S'W\t\x8d\x81o\xd4\x02@'
p337
tp338
Rp339
tp340
a(S'graph-sto-iht'
p341
g331
I0
I542
g5
(g9
S'"\xf5\n\xda\xe7\x19\x8e>'
p342
tp343
Rp344
tp345
a(S'niht'
p346
S'background'
p347
I0
I566
g5
(g9
S'\xea\xaa\x83\xf0V\xa7\x08@'
p348
tp349
Rp350
tp351
a(S'iht'
p352
g347
I0
I566
g5
(g9
S'\xef-\x06&:J\x08@'
p353
tp354
Rp355
tp356
a(S'sto-iht'
p357
g347
I0
I566
g5
(g9
S'`\xdf\xf316\t\x15@'
p358
tp359
Rp360
tp361
a(S'cosamp'
p362
S'background'
p363
I0
I566
g5
(g9
S'*\xa9\xd1!>\xdc\x07@'
p364
tp365
Rp366
tp367
a(S'graph-iht'
p368
g363
I0
I566
g5
(g9
S'\xc7\xe7(\xa6\xdb\xb2\x01@'
p369
tp370
Rp371
tp372
a(S'graph-cosamp'
p373
g363
I0
I566
g5
(g9
S'\xc0)\x9a\xa4e\xfe\xfe?'
p374
tp375
Rp376
tp377
a(S'graph-sto-iht'
p378
S'background'
p379
I0
I566
g5
(g9
S'\x89ZK\x81\x04Q\x89>'
p380
tp381
Rp382
tp383
a(S'niht'
p384
g379
I0
I590
g5
(g9
S'@\xa2\xb5\xd8\xad\xa7\x06@'
p385
tp386
Rp387
tp388
a(S'iht'
p389
g379
I0
I590
g5
(g9
S'\x1a/\x8a\xd4Q\x97\x05@'
p390
tp391
Rp392
tp393
a(S'sto-iht'
p394
S'background'
p395
I0
I590
g5
(g9
S'\x80u\xe1s\xfa\x99\x0f@'
p396
tp397
Rp398
tp399
a(S'cosamp'
p400
g395
I0
I590
g5
(g9
S'0\n\xec\x9f\xccg\x06@'
p401
tp402
Rp403
tp404
a(S'graph-iht'
p405
g395
I0
I590
g5
(g9
S'\xb8\x94P8R\xd7\x90>'
p406
tp407
Rp408
tp409
a(S'graph-cosamp'
p410
S'background'
p411
I0
I590
g5
(g9
S'y?\xacs`\xed\xf5?'
p412
tp413
Rp414
tp415
a(S'graph-sto-iht'
p416
g411
I0
I590
g5
(g9
S'\xa4H\xae{@\xf0\x8e>'
p417
tp418
Rp419
tp420
a(S'niht'
p421
g411
I0
I613
g5
(g9
S'\xf3\xcf\x9c"\x0f\t\x07@'
p422
tp423
Rp424
tp425
a(S'iht'
p426
S'background'
p427
I0
I613
g5
(g9
S' \xf6@d\xeb\x18\x08@'
p428
tp429
Rp430
tp431
a(S'sto-iht'
p432
g427
I0
I613
g5
(g9
S'\\\x94r\\\x12\x8f\r@'
p433
tp434
Rp435
tp436
a(S'cosamp'
p437
g427
I0
I613
g5
(g9
S'\x9c\xad4\xb1\x99\xfe\xff?'
p438
tp439
Rp440
tp441
a(S'graph-iht'
p442
S'background'
p443
I0
I613
g5
(g9
S'\xad\xa7\x05\xd6X5\x8f>'
p444
tp445
Rp446
tp447
a(S'graph-cosamp'
p448
g443
I0
I613
g5
(g9
S'\x93\xcc\xb3\xcc\x84\x0f"@'
p449
tp450
Rp451
tp452
a(S'graph-sto-iht'
p453
g443
I0
I613
g5
(g9
S'6\xb5\x9a\x0bgO\x89>'
p454
tp455
Rp456
tp457
a(S'niht'
p458
S'background'
p459
I0
I637
g5
(g9
S'\xae\xf2\xf7^?\x80\x06@'
p460
tp461
Rp462
tp463
a(S'iht'
p464
g459
I0
I637
g5
(g9
S'\xe2\x1f\x1c>n\xe7\xd9?'
p465
tp466
Rp467
tp468
a(S'sto-iht'
p469
g459
I0
I637
g5
(g9
S'\xc1?/\x02\xa1\xe6\r@'
p470
tp471
Rp472
tp473
a(S'cosamp'
p474
S'background'
p475
I0
I637
g5
(g9
S't\x8b\x8c!\xe1\x8f&@'
p476
tp477
Rp478
tp479
a(S'graph-iht'
p480
g475
I0
I637
g5
(g9
S'\xe9\xdb\xcf\xd0\x96n\x8e>'
p481
tp482
Rp483
tp484
a(S'graph-cosamp'
p485
g475
I0
I637
g5
(g9
S'\xe6\xd9Ch9\x07"@'
p486
tp487
Rp488
tp489
a(S'graph-sto-iht'
p490
S'background'
p491
I0
I637
g5
(g9
S'\xc2\xc8\xe1\xb81T\x88>'
p492
tp493
Rp494
tp495
a(S'niht'
p496
g491
I0
I660
g5
(g9
S'\xe3\x1b\x14c\xf8c\xff?'
p497
tp498
Rp499
tp500
a(S'iht'
p501
g491
I0
I660
g5
(g9
S'\rC\xbbmN\x94\x8e>'
p502
tp503
Rp504
tp505
a(S'sto-iht'
p506
S'background'
p507
I0
I660
g5
(g9
S'km\x0e\xc8\x1b_\x10@'
p508
tp509
Rp510
tp511
a(S'cosamp'
p512
g507
I0
I660
g5
(g9
S'\xeaM\x0c\x0c\xf2\xab\xa4@'
p513
tp514
Rp515
tp516
a(S'graph-iht'
p517
g507
I0
I660
g5
(g9
S'T\xdb\x8b\xab\x148\x8f>'
p518
tp519
Rp520
tp521
a(S'graph-cosamp'
p522
S'background'
p523
I0
I660
g5
(g9
S'\xd9\r#x\xbb\xbb#='
p524
tp525
Rp526
tp527
a(S'graph-sto-iht'
p528
g523
I0
I660
g5
(g9
S'Dg\x1d\xcd(\xaf\x85>'
p529
tp530
Rp531
tp532
a(S'niht'
p533
g523
I0
I684
g5
(g9
S'\xa8{F\x0c=\x0b\x8b>'
p534
tp535
Rp536
tp537
a(S'iht'
p538
S'background'
p539
I0
I684
g5
(g9
S'|\x9c\x92\x0eL\x93\x8d>'
p540
tp541
Rp542
tp543
a(S'sto-iht'
p544
g539
I0
I684
g5
(g9
S'f&\x81\t\x1d\x0c\r@'
p545
tp546
Rp547
tp548
a(S'cosamp'
p549
g539
I0
I684
g5
(g9
S'bkv\xae\x0f\x90(@'
p550
tp551
Rp552
tp553
a(S'graph-iht'
p554
S'background'
p555
I0
I684
g5
(g9
S'\xf5\x9cK\xaa\xfe\x8b\x8c>'
p556
tp557
Rp558
tp559
a(S'graph-cosamp'
p560
g555
I0
I684
g5
(g9
S'I"\xaa\xb4#\xfd\x12='
p561
tp562
Rp563
tp564
a(S'graph-sto-iht'
p565
g555
I0
I684
g5
(g9
S'\xddm4\x9c\xb3\x05\x86>'
p566
tp567
Rp568
tp569
a(S'niht'
p570
S'background'
p571
I0
I708
g5
(g9
S'\x1e\x8a\xee}\x8a\xc0\x88>'
p572
tp573
Rp574
tp575
a(S'iht'
p576
g571
I0
I708
g5
(g9
S'E&\xcb\xe9i\xdc\x8d>'
p577
tp578
Rp579
tp580
a(S'sto-iht'
p581
g571
I0
I708
g5
(g9
S'\x1e~\xd7\x9f\x8a\x15\x87>'
p582
tp583
Rp584
tp585
a(S'cosamp'
p586
S'background'
p587
I0
I708
g5
(g9
S'\r\n\xd9\x92\x80J\x1c@'
p588
tp589
Rp590
tp591
a(S'graph-iht'
p592
g587
I0
I708
g5
(g9
S'\x06\xbb\x82\x97\xd5?\x8a>'
p593
tp594
Rp595
tp596
a(S'graph-cosamp'
p597
g587
I0
I708
g5
(g9
S'\x02\x05g\xe2\xaeX\x10='
p598
tp599
Rp600
tp601
a(S'graph-sto-iht'
p602
S'background'
p603
I0
I708
g5
(g9
S'%\x19&\xec[\xcf\x8a>'
p604
tp605
Rp606
tp607
a(S'niht'
p608
g603
I0
I731
g5
(g9
S'\xed\xf63\xa3k\x89\x89>'
p609
tp610
Rp611
tp612
a(S'iht'
p613
g603
I0
I731
g5
(g9
S'\x01\xf51\xa7\xad\x97\x8c>'
p614
tp615
Rp616
tp617
a(S'sto-iht'
p618
S'background'
p619
I0
I731
g5
(g9
S'\x92\xe0\x97\xde\x18\x92\x81>'
p620
tp621
Rp622
tp623
a(S'cosamp'
p624
g619
I0
I731
g5
(g9
S'\xb6\x97\xf44\xa5\xcd\x10='
p625
tp626
Rp627
tp628
a(S'graph-iht'
p629
g619
I0
I731
g5
(g9
S'\xad\xb0\xb0\x1d\xca@\x8a>'
p630
tp631
Rp632
tp633
a(S'graph-cosamp'
p634
S'background'
p635
I0
I731
g5
(g9
S'\xa9\xb8c\xc8vv\x0f='
p636
tp637
Rp638
tp639
a(S'graph-sto-iht'
p640
g635
I0
I731
g5
(g9
S'R\xe9`^\xdb\xaa\x85>'
p641
tp642
Rp643
tp644
a(S'niht'
p645
g635
I0
I755
g5
(g9
S'\xd3\xfb~k\x82\xda\x88>'
p646
tp647
Rp648
tp649
a(S'iht'
p650
S'background'
p651
I0
I755
g5
(g9
S'\xf9\xbes\xba\x08\x97\x8b>'
p652
tp653
Rp654
tp655
a(S'sto-iht'
p656
g651
I0
I755
g5
(g9
S'c)\xaf\xba\xa6m\x84>'
p657
tp658
Rp659
tp660
a(S'cosamp'
p661
g651
I0
I755
g5
(g9
S'\xb3\xa6z\xeeR)\x0e='
p662
tp663
Rp664
tp665
a(S'graph-iht'
p666
S'background'
p667
I0
I755
g5
(g9
S'2h2(\xdf\xfe\x89>'
p668
tp669
Rp670
tp671
a(S'graph-cosamp'
p672
g667
I0
I755
g5
(g9
S'\xbe\xd4_\xa5\x97L\x10='
p673
tp674
Rp675
tp676
a(S'graph-sto-iht'
p677
g667
I0
I755
g5
(g9
S'%Ek\x03J\xd7\x85>'
p678
tp679
Rp680
tp681
a(S'niht'
p682
S'background'
p683
I0
I778
g5
(g9
S'\xbf\rKCo\xb7\x8a>'
p684
tp685
Rp686
tp687
a(S'iht'
p688
g683
I0
I778
g5
(g9
S'z\xc3G\xed\xc0\x7f\x8b>'
p689
tp690
Rp691
tp692
a(S'sto-iht'
p693
g683
I0
I778
g5
(g9
S'T\xa4u\x7f\x10\x07\x82>'
p694
tp695
Rp696
tp697
a(S'cosamp'
p698
S'background'
p699
I0
I778
g5
(g9
S'\xf4o\xd3\xb9m\t\r='
p700
tp701
Rp702
tp703
a(S'graph-iht'
p704
g699
I0
I778
g5
(g9
S'},\xff\x10l\x19\x8a>'
p705
tp706
Rp707
tp708
a(S'graph-cosamp'
p709
g699
I0
I778
g5
(g9
S'\xa6zc\xff%\xc8\x0e='
p710
tp711
Rp712
tp713
a(S'graph-sto-iht'
p714
S'background'
p715
I0
I778
g5
(g9
S'j]*\xbc#+\x87>'
p716
tp717
Rp718
tp719
a(S'niht'
p720
g715
I0
I802
g5
(g9
S'X\x95O@\xbaU\x88>'
p721
tp722
Rp723
tp724
a(S'iht'
p725
g715
I0
I802
g5
(g9
S'@\x8b\xce\xa4\x9c\xad\x8a>'
p726
tp727
Rp728
tp729
a(S'sto-iht'
p730
S'background'
p731
I0
I802
g5
(g9
S';\x9b-@hX\x83>'
p732
tp733
Rp734
tp735
a(S'cosamp'
p736
g731
I0
I802
g5
(g9
S'B\xb8\xfdgD/\n='
p737
tp738
Rp739
tp740
a(S'graph-iht'
p741
g731
I0
I802
g5
(g9
S'\xab_\xa5\xf2C\x9e\x88>'
p742
tp743
Rp744
tp745
a(S'graph-cosamp'
p746
S'background'
p747
I0
I802
g5
(g9
S'\x15\x9d\xfe\x1a\xc1\xdd\t='
p748
tp749
Rp750
tp751
a(S'graph-sto-iht'
p752
g747
I0
I802
g5
(g9
S'\xed@\x12\x15.\xca\x83>'
p753
tp754
Rp755
tp756
a(S'niht'
p757
g747
I0
I826
g5
(g9
S'\x86M\x91^\x04\xaf\x84>'
p758
tp759
Rp760
tp761
a(S'iht'
p762
S'background'
p763
I0
I826
g5
(g9
S'D|\x84\x06\xce\xde\x88>'
p764
tp765
Rp766
tp767
a(S'sto-iht'
p768
g763
I0
I826
g5
(g9
S'N\n\x8a\xfd\x9e\x9c\x86>'
p769
tp770
Rp771
tp772
a(S'cosamp'
p773
g763
I0
I826
g5
(g9
S"S'\xa3\xc04\xea\r="
p774
tp775
Rp776
tp777
a(S'graph-iht'
p778
S'background'
p779
I0
I826
g5
(g9
S'c\x99P_X\x95\x87>'
p780
tp781
Rp782
tp783
a(S'graph-cosamp'
p784
g779
I0
I826
g5
(g9
S'\xaf\xa4\xa7\xbe8<\n='
p785
tp786
Rp787
tp788
a(S'graph-sto-iht'
p789
g779
I0
I826
g5
(g9
S'\x94\xc0\xe0\xfb\x8dI\x80>'
p790
tp791
Rp792
tp793
a(S'niht'
p794
S'angio'
p795
I0
I573
g5
(g9
S'\xd4\x1c4\xa3\x88l\x10@'
p796
tp797
Rp798
tp799
a(S'iht'
p800
g795
I0
I573
g5
(g9
S'\xf6n\x18\x11/\x08\x11@'
p801
tp802
Rp803
tp804
a(S'sto-iht'
p805
g795
I0
I573
g5
(g9
S'\xdb\xce9\xb4\x15\xfb\x14@'
p806
tp807
Rp808
tp809
a(S'cosamp'
p810
S'angio'
p811
I0
I573
g5
(g9
S'N^:\xa1\x0b\xac\x0f@'
p812
tp813
Rp814
tp815
a(S'graph-iht'
p816
g811
I0
I573
g5
(g9
S'\x93\xc4\xf9\x1f\xab\x91\t@'
p817
tp818
Rp819
tp820
a(S'graph-cosamp'
p821
g811
I0
I573
g5
(g9
S'\r\x10\x07\xb8\xe1F\x0e@'
p822
tp823
Rp824
tp825
a(S'graph-sto-iht'
p826
S'angio'
p827
I0
I573
g5
(g9
S'\xe0`\xf3N\xb5y\x12@'
p828
tp829
Rp830
tp831
a(S'niht'
p832
g827
I0
I611
g5
(g9
S'\xca\x83\x85\xde\xd5\x0e\x10@'
p833
tp834
Rp835
tp836
a(S'iht'
p837
g827
I0
I611
g5
(g9
S'<\xd5\xe8\xebdA\x0f@'
p838
tp839
Rp840
tp841
a(S'sto-iht'
p842
S'angio'
p843
I0
I611
g5
(g9
S'\xb94\x02\x97\x18\x19\x11@'
p844
tp845
Rp846
tp847
a(S'cosamp'
p848
g843
I0
I611
g5
(g9
S'\x87\x00V_\xf0c\x0f@'
p849
tp850
Rp851
tp852
a(S'graph-iht'
p853
g843
I0
I611
g5
(g9
S'dv\x08E2\x05\n@'
p854
tp855
Rp856
tp857
a(S'graph-cosamp'
p858
S'angio'
p859
I0
I611
g5
(g9
S'\x8c\nU\xb0z\x97\x0c@'
p860
tp861
Rp862
tp863
a(S'graph-sto-iht'
p864
g859
I0
I611
g5
(g9
S'\x10\xa1\xf8m\xcbZ\x0c@'
p865
tp866
Rp867
tp868
a(S'niht'
p869
g859
I0
I649
g5
(g9
S'\xca\xbd\xe8\x84#\x1a\r@'
p870
tp871
Rp872
tp873
a(S'iht'
p874
S'angio'
p875
I0
I649
g5
(g9
S'\x08BMC\xaf\xbe\x0c@'
p876
tp877
Rp878
tp879
a(S'sto-iht'
p880
g875
I0
I649
g5
(g9
S'\xd5>\xaf\x8d\xe6\xdf\x12@'
p881
tp882
Rp883
tp884
a(S'cosamp'
p885
g875
I0
I649
g5
(g9
S'\xb7\xae\xe1b\x81n\x0e@'
p886
tp887
Rp888
tp889
a(S'graph-iht'
p890
S'angio'
p891
I0
I649
g5
(g9
S'\x13kO\xad0\xb7\x07@'
p892
tp893
Rp894
tp895
a(S'graph-cosamp'
p896
g891
I0
I649
g5
(g9
S'Kj@[/z\x0b@'
p897
tp898
Rp899
tp900
a(S'graph-sto-iht'
p901
g891
I0
I649
g5
(g9
S'\x7f\x17\xd4\xd6{\xd0\x05@'
p902
tp903
Rp904
tp905
a(S'niht'
p906
S'angio'
p907
I0
I687
g5
(g9
S'\xa1\x92,\x15f\xd3\x0c@'
p908
tp909
Rp910
tp911
a(S'iht'
p912
g907
I0
I687
g5
(g9
S'\x11v\x8d\x81\xd7X\x0e@'
p913
tp914
Rp915
tp916
a(S'sto-iht'
p917
g907
I0
I687
g5
(g9
S'[\xa9\xfb\xec\xae\n\x10@'
p918
tp919
Rp920
tp921
a(S'cosamp'
p922
S'angio'
p923
I0
I687
g5
(g9
S'\xdc\x1b4\x9b\xd1\xae\r@'
p924
tp925
Rp926
tp927
a(S'graph-iht'
p928
g923
I0
I687
g5
(g9
S'\xc8x\xccYQ#\x07@'
p929
tp930
Rp931
tp932
a(S'graph-cosamp'
p933
g923
I0
I687
g5
(g9
S'H\x07\xe0d}\xbe\x0b@'
p934
tp935
Rp936
tp937
a(S'graph-sto-iht'
p938
S'angio'
p939
I0
I687
g5
(g9
S'xn\x03x\xa5\x1d\x03@'
p940
tp941
Rp942
tp943
a(S'niht'
p944
g939
I0
I725
g5
(g9
S'\xf8Y\x1d\xc1M|\x0b@'
p945
tp946
Rp947
tp948
a(S'iht'
p949
g939
I0
I725
g5
(g9
S'I\xd5\xe3\x84V\x91\x0c@'
p950
tp951
Rp952
tp953
a(S'sto-iht'
p954
S'angio'
p955
I0
I725
g5
(g9
S'\xd9\xae\x868\xf7r\x12@'
p956
tp957
Rp958
tp959
a(S'cosamp'
p960
g955
I0
I725
g5
(g9
S'\xdf\xb3\x0f\xff\x8c\x9f\x0c@'
p961
tp962
Rp963
tp964
a(S'graph-iht'
p965
g955
I0
I725
g5
(g9
S'-\xd5q\x11O\xd2\x04@'
p966
tp967
Rp968
tp969
a(S'graph-cosamp'
p970
S'angio'
p971
I0
I725
g5
(g9
S'\x1a\xaf\x1c!\x12\xf9\t@'
p972
tp973
Rp974
tp975
a(S'graph-sto-iht'
p976
g971
I0
I725
g5
(g9
S']\xe7J\x9eH\xd8\x9e>'
p977
tp978
Rp979
tp980
a(S'niht'
p981
g971
I0
I764
g5
(g9
S'\xd8\xe8\xaf\xe5\x13\xad\t@'
p982
tp983
Rp984
tp985
a(S'iht'
p986
S'angio'
p987
I0
I764
g5
(g9
S'\xaa\x1e\xed\x92cx\x08@'
p988
tp989
Rp990
tp991
a(S'sto-iht'
p992
g987
I0
I764
g5
(g9
S'c;\x05*GV\t@'
p993
tp994
Rp995
tp996
a(S'cosamp'
p997
g987
I0
I764
g5
(g9
S'\xf3\x8b\x85\x8d\xbe]\x0c@'
p998
tp999
Rp1000
tp1001
a(S'graph-iht'
p1002
S'angio'
p1003
I0
I764
g5
(g9
S'\t\xb3\xbd\\\x8d\xad\x04@'
p1004
tp1005
Rp1006
tp1007
a(S'graph-cosamp'
p1008
g1003
I0
I764
g5
(g9
S'*/k9\x94\x19\t@'
p1009
tp1010
Rp1011
tp1012
a(S'graph-sto-iht'
p1013
g1003
I0
I764
g5
(g9
S't[685\xc6\x91>'
p1014
tp1015
Rp1016
tp1017
a(S'niht'
p1018
S'angio'
p1019
I0
I802
g5
(g9
S'\x0b\xce\xfez\xcao\x07@'
p1020
tp1021
Rp1022
tp1023
a(S'iht'
p1024
g1019
I0
I802
g5
(g9
S'\x87\xb4\x8d\xa7\n\x0b\x08@'
p1025
tp1026
Rp1027
tp1028
a(S'sto-iht'
p1029
g1019
I0
I802
g5
(g9
S'\xba3\xb2lz\x07\x0e@'
p1030
tp1031
Rp1032
tp1033
a(S'cosamp'
p1034
S'angio'
p1035
I0
I802
g5
(g9
S'\xb0\xa5\x1a3Sy\x0b@'
p1036
tp1037
Rp1038
tp1039
a(S'graph-iht'
p1040
g1035
I0
I802
g5
(g9
S'\x8e\xb1\xd4\xa2\x01\xa5\x03@'
p1041
tp1042
Rp1043
tp1044
a(S'graph-cosamp'
p1045
g1035
I0
I802
g5
(g9
S'\xe1\x97\xc8\x8f\xf5\x82\x07@'
p1046
tp1047
Rp1048
tp1049
a(S'graph-sto-iht'
p1050
S'angio'
p1051
I0
I802
g5
(g9
S'\x16\x18\xfd\xd4\xcay\x8d>'
p1052
tp1053
Rp1054
tp1055
a(S'niht'
p1056
g1051
I0
I840
g5
(g9
S'P(0\x06\xbe\xf9\x06@'
p1057
tp1058
Rp1059
tp1060
a(S'iht'
p1061
g1051
I0
I840
g5
(g9
S'\x96\xb1*nh\xdf\x06@'
p1062
tp1063
Rp1064
tp1065
a(S'sto-iht'
p1066
S'angio'
p1067
I0
I840
g5
(g9
S'\xd6\xb3\xa9q\x1c\x01\x0f@'
p1068
tp1069
Rp1070
tp1071
a(S'cosamp'
p1072
g1067
I0
I840
g5
(g9
S'\x0e\xbc*c>m\n@'
p1073
tp1074
Rp1075
tp1076
a(S'graph-iht'
p1077
g1067
I0
I840
g5
(g9
S"\xcf \x92'$\x89\x01@"
p1078
tp1079
Rp1080
tp1081
a(S'graph-cosamp'
p1082
S'angio'
p1083
I0
I840
g5
(g9
S'\xed\x9d\\#Q\x90\x06@'
p1084
tp1085
Rp1086
tp1087
a(S'graph-sto-iht'
p1088
g1083
I0
I840
g5
(g9
S"7\xd1'c\xdbz\x90>"
p1089
tp1090
Rp1091
tp1092
a(S'niht'
p1093
g1083
I0
I878
g5
(g9
S'$u\xdc\x9b\xad\xd6\x05@'
p1094
tp1095
Rp1096
tp1097
a(S'iht'
p1098
S'angio'
p1099
I0
I878
g5
(g9
S'X\x8f\r5\x8c\n\x04@'
p1100
tp1101
Rp1102
tp1103
a(S'sto-iht'
p1104
g1099
I0
I878
g5
(g9
S'\xa7\xef\xc8\xa9\xf2\xe9\x06@'
p1105
tp1106
Rp1107
tp1108
a(S'cosamp'
p1109
g1099
I0
I878
g5
(g9
S"'>S\xd0JH\x08@"
p1110
tp1111
Rp1112
tp1113
a(S'graph-iht'
p1114
S'angio'
p1115
I0
I878
g5
(g9
S'\x80\xb11\x06\xc9\xd7\x02@'
p1116
tp1117
Rp1118
tp1119
a(S'graph-cosamp'
p1120
g1115
I0
I878
g5
(g9
S'(\xe5\n\xf2\xbd2\x05@'
p1121
tp1122
Rp1123
tp1124
a(S'graph-sto-iht'
p1125
g1115
I0
I878
g5
(g9
S'\xea\xb6<\xcc5\xe0\x8d>'
p1126
tp1127
Rp1128
tp1129
a(S'niht'
p1130
S'angio'
p1131
I0
I916
g5
(g9
S'\xa5{\xb3\x0eM7\x03@'
p1132
tp1133
Rp1134
tp1135
a(S'iht'
p1136
g1131
I0
I916
g5
(g9
S'qd\xd8\xd6\xfb\xcf\x03@'
p1137
tp1138
Rp1139
tp1140
a(S'sto-iht'
p1141
g1131
I0
I916
g5
(g9
S'\xe4p\x18*j\xa1\x03@'
p1142
tp1143
Rp1144
tp1145
a(S'cosamp'
p1146
S'angio'
p1147
I0
I916
g5
(g9
S'\xc5\xd7\xb0\x18V\x05\x08@'
p1148
tp1149
Rp1150
tp1151
a(S'graph-iht'
p1152
g1147
I0
I916
g5
(g9
S'c\x92>\xe41L\xf9?'
p1153
tp1154
Rp1155
tp1156
a(S'graph-cosamp'
p1157
g1147
I0
I916
g5
(g9
S'<\xad\xee\xf7a\x06\x03@'
p1158
tp1159
Rp1160
tp1161
a(S'graph-sto-iht'
p1162
S'angio'
p1163
I0
I916
g5
(g9
S'\x9a\x10m\xfc|\xab\x8b>'
p1164
tp1165
Rp1166
tp1167
a(S'niht'
p1168
g1163
I0
I955
g5
(g9
S'\x02\xc8\xbb\xb2>\x17\xfe?'
p1169
tp1170
Rp1171
tp1172
a(S'iht'
p1173
g1163
I0
I955
g5
(g9
S'lA\xa2\xfe1\x80\xff?'
p1174
tp1175
Rp1176
tp1177
a(S'sto-iht'
p1178
S'angio'
p1179
I0
I955
g5
(g9
S'\x9e\xd5u\xb6"G\x03@'
p1180
tp1181
Rp1182
tp1183
a(S'cosamp'
p1184
g1179
I0
I955
g5
(g9
S'\xae\xf6\x81\xa6\xf5\xa9\x05@'
p1185
tp1186
Rp1187
tp1188
a(S'graph-iht'
p1189
g1179
I0
I955
g5
(g9
S'zT\rk2\xbb\xfd?'
p1190
tp1191
Rp1192
tp1193
a(S'graph-cosamp'
p1194
S'angio'
p1195
I0
I955
g5
(g9
S'\x9f.\xa3d(\xc7\x01@'
p1196
tp1197
Rp1198
tp1199
a(S'graph-sto-iht'
p1200
g1195
I0
I955
g5
(g9
S'\xfd\xc6\x1e\xda\x1c\x1f\x89>'
p1201
tp1202
Rp1203
tp1204
a(S'niht'
p1205
g1195
I0
I993
g5
(g9
S'\xb11\xf5MX\xf4\x87>'
p1206
tp1207
Rp1208
tp1209
a(S'iht'
p1210
S'angio'
p1211
I0
I993
g5
(g9
S'G\x1b&pL\xa1\xc1?'
p1212
tp1213
Rp1214
tp1215
a(S'sto-iht'
p1216
g1211
I0
I993
g5
(g9
S'\xaaq\x16\xa4\x9b7\x8a>'
p1217
tp1218
Rp1219
tp1220
a(S'cosamp'
p1221
g1211
I0
I993
g5
(g9
S'Z7*\x80ob"@'
p1222
tp1223
Rp1224
tp1225
a(S'graph-iht'
p1226
S'angio'
p1227
I0
I993
g5
(g9
S'*\x9c\x0c\xe9\xc3s\xf8?'
p1228
tp1229
Rp1230
tp1231
a(S'graph-cosamp'
p1232
g1227
I0
I993
g5
(g9
S'\xab\xf60\xe8\x8b7L@'
p1233
tp1234
Rp1235
tp1236
a(S'graph-sto-iht'
p1237
g1227
I0
I993
g5
(g9
S'\xd7\xe5\xff\xe7\xd1E\x8a>'
p1238
tp1239
Rp1240
tp1241
a(S'niht'
p1242
S'angio'
p1243
I0
I1031
g5
(g9
S'?^\x80\xaa\x80,\x86>'
p1244
tp1245
Rp1246
tp1247
a(S'iht'
p1248
g1243
I0
I1031
g5
(g9
S'\xbc\xdbn\xfc\xe7\x12\x8f>'
p1249
tp1250
Rp1251
tp1252
a(S'sto-iht'
p1253
g1243
I0
I1031
g5
(g9
S'\x1e\x9f4\x85\x87\xad\x8a>'
p1254
tp1255
Rp1256
tp1257
a(S'cosamp'
p1258
S'angio'
p1259
I0
I1031
g5
(g9
S'C\xac^\xb0\x9dS\x04A'
p1260
tp1261
Rp1262
tp1263
a(S'graph-iht'
p1264
g1259
I0
I1031
g5
(g9
S'\x02xW\xd4\x17[\xfa?'
p1265
tp1266
Rp1267
tp1268
a(S'graph-cosamp'
p1269
g1259
I0
I1031
g5
(g9
S'\xe2\x18\x00q?\xb5\xba@'
p1270
tp1271
Rp1272
tp1273
a(S'graph-sto-iht'
p1274
S'angio'
p1275
I0
I1031
g5
(g9
S'\x80\xab=\xceqd\x89>'
p1276
tp1277
Rp1278
tp1279
a(S'niht'
p1280
g1275
I0
I1069
g5
(g9
S'G,\x8f:3\x14\x8d>'
p1281
tp1282
Rp1283
tp1284
a(S'iht'
p1285
g1275
I0
I1069
g5
(g9
S'H\xee\x82\xbdF\x8c\x8f>'
p1286
tp1287
Rp1288
tp1289
a(S'sto-iht'
p1290
S'angio'
p1291
I0
I1069
g5
(g9
S'\x9d\xe7\xb4\x9cu\x04\x8b>'
p1292
tp1293
Rp1294
tp1295
a(S'cosamp'
p1296
g1291
I0
I1069
g5
(g9
S'W^\x12r\xebg$@'
p1297
tp1298
Rp1299
tp1300
a(S'graph-iht'
p1301
g1291
I0
I1069
g5
(g9
S'\x85U\xd9B\xd5\xd4\xf3?'
p1302
tp1303
Rp1304
tp1305
a(S'graph-cosamp'
p1306
S'angio'
p1307
I0
I1069
g5
(g9
S'\xd9\x0e\xdbG\xd3\x91\x14='
p1308
tp1309
Rp1310
tp1311
a(S'graph-sto-iht'
p1312
g1307
I0
I1069
g5
(g9
S'\xb3\x83\xda\x91\xa5t\x85>'
p1313
tp1314
Rp1315
tp1316
a(S'niht'
p1317
g1307
I0
I1107
g5
(g9
S':O-\xb1v\xdd\x8a>'
p1318
tp1319
Rp1320
tp1321
a(S'iht'
p1322
S'angio'
p1323
I0
I1107
g5
(g9
S'k\xef\xad-x;\x8f>'
p1324
tp1325
Rp1326
tp1327
a(S'sto-iht'
p1328
g1323
I0
I1107
g5
(g9
S'9\xa6\xb3\xb1\x89a\x86>'
p1329
tp1330
Rp1331
tp1332
a(S'cosamp'
p1333
g1323
I0
I1107
g5
(g9
S'\x8f\xd7\x0b\xc8\x9b\xcb\x15='
p1334
tp1335
Rp1336
tp1337
a(S'graph-iht'
p1338
S'angio'
p1339
I0
I1107
g5
(g9
S'\xdf\xf4\x1dI\x18\xb1\xeb?'
p1340
tp1341
Rp1342
tp1343
a(S'graph-cosamp'
p1344
g1339
I0
I1107
g5
(g9
S'!\xaf0\xb6A[\x14='
p1345
tp1346
Rp1347
tp1348
a(S'graph-sto-iht'
p1349
g1339
I0
I1107
g5
(g9
S'E[\xab\xd0\\\xd0\x83>'
p1350
tp1351
Rp1352
tp1353
a(S'niht'
p1354
S'angio'
p1355
I0
I1146
g5
(g9
S'c7\x8bU\xcc\x17\x8c>'
p1356
tp1357
Rp1358
tp1359
a(S'iht'
p1360
g1355
I0
I1146
g5
(g9
S'\x0eA\x1bW\xd9+\x8e>'
p1361
tp1362
Rp1363
tp1364
a(S'sto-iht'
p1365
g1355
I0
I1146
g5
(g9
S'\x01\xca\xdc\x9b\xd9\xf4\x83>'
p1366
tp1367
Rp1368
tp1369
a(S'cosamp'
p1370
S'angio'
p1371
I0
I1146
g5
(g9
S'\xebp\x13~\xdd\xbc\x15='
p1372
tp1373
Rp1374
tp1375
a(S'graph-iht'
p1376
g1371
I0
I1146
g5
(g9
S'\x9dg\xab\xdd\x03H\xe2?'
p1377
tp1378
Rp1379
tp1380
a(S'graph-cosamp'
p1381
g1371
I0
I1146
g5
(g9
S'\x9b\xbd\xd9\x9d\xe6"\x13='
p1382
tp1383
Rp1384
tp1385
a(S'graph-sto-iht'
p1386
S'angio'
p1387
I0
I1146
g5
(g9
S'\xd6\x8fv\xd9\x94\x02\x85>'
p1388
tp1389
Rp1390
tp1391
a(S'niht'
p1392
g1387
I0
I1184
g5
(g9
S'vq\xb7f#\xc4\x8a>'
p1393
tp1394
Rp1395
tp1396
a(S'iht'
p1397
g1387
I0
I1184
g5
(g9
S'\xcc;\xd4\x94\xa8\xd1\x8c>'
p1398
tp1399
Rp1400
tp1401
a(S'sto-iht'
p1402
S'angio'
p1403
I0
I1184
g5
(g9
S'\x1c\xbce\xc5\xb6Z\x85>'
p1404
tp1405
Rp1406
tp1407
a(S'cosamp'
p1408
g1403
I0
I1184
g5
(g9
S'q\x88\xaf"\xb3L\x13='
p1409
tp1410
Rp1411
tp1412
a(S'graph-iht'
p1413
g1403
I0
I1184
g5
(g9
S"\xb6ps;'\x03\x8b>"
p1414
tp1415
Rp1416
tp1417
a(S'graph-cosamp'
p1418
S'angio'
p1419
I0
I1184
g5
(g9
S'\xe8n\xe1\xf0*\x9c\x14='
p1420
tp1421
Rp1422
tp1423
a(S'graph-sto-iht'
p1424
g1419
I0
I1184
g5
(g9
S'\xa6v_5\xb3\x04\x87>'
p1425
tp1426
Rp1427
tp1428
a(S'niht'
p1429
g1419
I0
I1222
g5
(g9
S't\xa2\xd4c\xe1#\x8d>'
p1430
tp1431
Rp1432
tp1433
a(S'iht'
p1434
S'angio'
p1435
I0
I1222
g5
(g9
S'\xbd\xb7i\x05\x96\n\x8b>'
p1436
tp1437
Rp1438
tp1439
a(S'sto-iht'
p1440
g1435
I0
I1222
g5
(g9
S';\xc1\x9a\x88\xa5\x87\x86>'
p1441
tp1442
Rp1443
tp1444
a(S'cosamp'
p1445
g1435
I0
I1222
g5
(g9
S'\x022^\xd2\xa9X\x14='
p1446
tp1447
Rp1448
tp1449
a(S'graph-iht'
p1450
S'angio'
p1451
I0
I1222
g5
(g9
S'\xf7\xaa\xe7*\xc8T\x8a>'
p1452
tp1453
Rp1454
tp1455
a(S'graph-cosamp'
p1456
g1451
I0
I1222
g5
(g9
S'\xa94\x87\xbd\x89n\x12='
p1457
tp1458
Rp1459
tp1460
a(S'graph-sto-iht'
p1461
g1451
I0
I1222
g5
(g9
S'^\x9c\x15!\xa0|\x88>'
p1462
tp1463
Rp1464
tp1465
a(S'niht'
p1466
S'angio'
p1467
I0
I1260
g5
(g9
S'\x91\xf6Ri_\xe8\x89>'
p1468
tp1469
Rp1470
tp1471
a(S'iht'
p1472
g1467
I0
I1260
g5
(g9
S'\xedh*6\xbcD\x8c>'
p1473
tp1474
Rp1475
tp1476
a(S'sto-iht'
p1477
g1467
I0
I1260
g5
(g9
S'\xab\xc7\xe1\xc1\xbd_\x86>'
p1478
tp1479
Rp1480
tp1481
a(S'cosamp'
p1482
S'angio'
p1483
I0
I1260
g5
(g9
S'\xa8\no\xcd\x87\xa4\x11='
p1484
tp1485
Rp1486
tp1487
a(S'graph-iht'
p1488
g1483
I0
I1260
g5
(g9
S'q\xec0z\x92\x80\x8b>'
p1489
tp1490
Rp1491
tp1492
a(S'graph-cosamp'
p1493
g1483
I0
I1260
g5
(g9
S'Y^\xdb\xb1z\xae\x10='
p1494
tp1495
Rp1496
tp1497
a(S'graph-sto-iht'
p1498
S'angio'
p1499
I0
I1260
g5
(g9
S'ze?\x8b\x96\x9b\x86>'
p1500
tp1501
Rp1502
tp1503
a(S'niht'
p1504
g1499
I0
I1298
g5
(g9
S'\xe0\xeb\x98\xf1U\xd4\x87>'
p1505
tp1506
Rp1507
tp1508
a(S'iht'
p1509
g1499
I0
I1298
g5
(g9
S'\xeb\xc8\xd6\x1e\x08\xcf\x8a>'
p1510
tp1511
Rp1512
tp1513
a(S'sto-iht'
p1514
S'angio'
p1515
I0
I1298
g5
(g9
S',\x9bJ}m\x1c\x84>'
p1516
tp1517
Rp1518
tp1519
a(S'cosamp'
p1520
g1515
I0
I1298
g5
(g9
S'3\xb9[\xc5\xf5\xd9\x10='
p1521
tp1522
Rp1523
tp1524
a(S'graph-iht'
p1525
g1515
I0
I1298
g5
(g9
S'\x8f\xd2\xc57\xd9y\x89>'
p1526
tp1527
Rp1528
tp1529
a(S'graph-cosamp'
p1530
S'angio'
p1531
I0
I1298
g5
(g9
S')\x14\x06g\x05\xa7\x0f='
p1532
tp1533
Rp1534
tp1535
a(S'graph-sto-iht'
p1536
g1531
I0
I1298
g5
(g9
S'=\xd9n=\xe0U\x88>'
p1537
tp1538
Rp1539
tp1540
a(S'niht'
p1541
g1531
I0
I1337
g5
(g9
S'\xc7^\xcf\xdbT\xc3\x88>'
p1542
tp1543
Rp1544
tp1545
a(S'iht'
p1546
S'angio'
p1547
I0
I1337
g5
(g9
S'\xc2z2u\xc7\x8e\x88>'
p1548
tp1549
Rp1550
tp1551
a(S'sto-iht'
p1552
g1547
I0
I1337
g5
(g9
S'\xa7\xcb:\xf0\xa8{\x80>'
p1553
tp1554
Rp1555
tp1556
a(S'cosamp'
p1557
g1547
I0
I1337
g5
(g9
S'\x94\t~\x0c\xd6\x88\x10='
p1558
tp1559
Rp1560
tp1561
a(S'graph-iht'
p1562
S'angio'
p1563
I0
I1337
g5
(g9
S'a\xa3\x9b\xc0\x98,\x88>'
p1564
tp1565
Rp1566
tp1567
a(S'graph-cosamp'
p1568
g1563
I0
I1337
g5
(g9
S'L\x87\xef\x9c6R\x11='
p1569
tp1570
Rp1571
tp1572
a(S'graph-sto-iht'
p1573
g1563
I0
I1337
g5
(g9
S'\x04\x9dL\x97C0\x87>'
p1574
tp1575
Rp1576
tp1577
a(S'niht'
p1578
S'icml'
p1579
I0
I616
g5
(g9
S'\x19\x16\x96Ca/\t@'
p1580
tp1581
Rp1582
tp1583
a(S'iht'
p1584
g1579
I0
I616
g5
(g9
S'\xe1IyW]\x0c\x0c@'
p1585
tp1586
Rp1587
tp1588
a(S'sto-iht'
p1589
g1579
I0
I616
g5
(g9
S'}\x00\x00\x9e\x19a\x0f@'
p1590
tp1591
Rp1592
tp1593
a(S'cosamp'
p1594
S'icml'
p1595
I0
I616
g5
(g9
S'H\x9cfM-{\t@'
p1596
tp1597
Rp1598
tp1599
a(S'graph-iht'
p1600
g1595
I0
I616
g5
(g9
S'\x8a\xf4\xb4\xbd\xd6\x12\x04@'
p1601
tp1602
Rp1603
tp1604
a(S'graph-cosamp'
p1605
g1595
I0
I616
g5
(g9
S'\xcb\xbd\x9e\x94\xa5\x0c\x08@'
p1606
tp1607
Rp1608
tp1609
a(S'graph-sto-iht'
p1610
S'icml'
p1611
I0
I616
g5
(g9
S'\xe9p\x8c\xb8\xc91\x0c@'
p1612
tp1613
Rp1614
tp1615
a(S'niht'
p1616
g1611
I0
I657
g5
(g9
S'\xa4\xf3hO\x85\x16\t@'
p1617
tp1618
Rp1619
tp1620
a(S'iht'
p1621
g1611
I0
I657
g5
(g9
S'\xa5MZ\xa7\xf1#\t@'
p1622
tp1623
Rp1624
tp1625
a(S'sto-iht'
p1626
S'icml'
p1627
I0
I657
g5
(g9
S'\x8d\xa0\xc3\xdaFs\x10@'
p1628
tp1629
Rp1630
tp1631
a(S'cosamp'
p1632
g1627
I0
I657
g5
(g9
S'\xc1\xd1+\xc5`\xda\x08@'
p1633
tp1634
Rp1635
tp1636
a(S'graph-iht'
p1637
g1627
I0
I657
g5
(g9
S'bR\xdd@\x03N\x03@'
p1638
tp1639
Rp1640
tp1641
a(S'graph-cosamp'
p1642
S'icml'
p1643
I0
I657
g5
(g9
S'k\xfe\x9c\xd9\xd5\xdc\x06@'
p1644
tp1645
Rp1646
tp1647
a(S'graph-sto-iht'
p1648
g1643
I0
I657
g5
(g9
S'yL\xf5\xa6\xa9Z\x06@'
p1649
tp1650
Rp1651
tp1652
a(S'niht'
p1653
g1643
I0
I698
g5
(g9
S'X\x87\x9b-!0\x07@'
p1654
tp1655
Rp1656
tp1657
a(S'iht'
p1658
S'icml'
p1659
I0
I698
g5
(g9
S'\xd8G@w\xba\x9f\x08@'
p1660
tp1661
Rp1662
tp1663
a(S'sto-iht'
p1664
g1659
I0
I698
g5
(g9
S'\x80+\xaf=\x9a+\x10@'
p1665
tp1666
Rp1667
tp1668
a(S'cosamp'
p1669
g1659
I0
I698
g5
(g9
S'\x98\x84\x85<+<\x08@'
p1670
tp1671
Rp1672
tp1673
a(S'graph-iht'
p1674
S'icml'
p1675
I0
I698
g5
(g9
S'f\x8a\x11}\x10\xfd\x00@'
p1676
tp1677
Rp1678
tp1679
a(S'graph-cosamp'
p1680
g1675
I0
I698
g5
(g9
S'u\x99\xaa\x99\x97\xe0\x05@'
p1681
tp1682
Rp1683
tp1684
a(S'graph-sto-iht'
p1685
g1675
I0
I698
g5
(g9
S'\x086\xb0\xed\xd67\x06@'
p1686
tp1687
Rp1688
tp1689
a(S'niht'
p1690
S'icml'
p1691
I0
I739
g5
(g9
S'\xcc\x82\xbe\xcc!Y\x06@'
p1692
tp1693
Rp1694
tp1695
a(S'iht'
p1696
g1691
I0
I739
g5
(g9
S'\xb2\x14\xf5\x96\xf7\xfb\x05@'
p1697
tp1698
Rp1699
tp1700
a(S'sto-iht'
p1701
g1691
I0
I739
g5
(g9
S' \xd2\x95\xcb&\x8a\x10@'
p1702
tp1703
Rp1704
tp1705
a(S'cosamp'
p1706
S'icml'
p1707
I0
I739
g5
(g9
S'\xe5`\xa6\xfcQ0\x08@'
p1708
tp1709
Rp1710
tp1711
a(S'graph-iht'
p1712
g1707
I0
I739
g5
(g9
S'\xd0\xde\x928\xa4\xf9\xfd?'
p1713
tp1714
Rp1715
tp1716
a(S'graph-cosamp'
p1717
g1707
I0
I739
g5
(g9
S'K\xe9c\xf1&D\x05@'
p1718
tp1719
Rp1720
tp1721
a(S'graph-sto-iht'
p1722
S'icml'
p1723
I0
I739
g5
(g9
S'M\x90=,\x18\x1b\x02@'
p1724
tp1725
Rp1726
tp1727
a(S'niht'
p1728
g1723
I0
I780
g5
(g9
S'"\xe3I^P\xc4\x04@'
p1729
tp1730
Rp1731
tp1732
a(S'iht'
p1733
g1723
I0
I780
g5
(g9
S'\x89\x06b\xcd\xc2/\x03@'
p1734
tp1735
Rp1736
tp1737
a(S'sto-iht'
p1738
S'icml'
p1739
I0
I780
g5
(g9
S'\x86\xfe\xeb\x8eM\xdf\x0f@'
p1740
tp1741
Rp1742
tp1743
a(S'cosamp'
p1744
g1739
I0
I780
g5
(g9
S'\xc8|\xcf\xd2\r\x10\x07@'
p1745
tp1746
Rp1747
tp1748
a(S'graph-iht'
p1749
g1739
I0
I780
g5
(g9
S'pZ\xd2\x0c\xa7\xba\x00@'
p1750
tp1751
Rp1752
tp1753
a(S'graph-cosamp'
p1754
S'icml'
p1755
I0
I780
g5
(g9
S'<\xd1DC\xf8\xca\x04@'
p1756
tp1757
Rp1758
tp1759
a(S'graph-sto-iht'
p1760
g1755
I0
I780
g5
(g9
S'\n\xec\x9a\xe4\x9b\xba\x91>'
p1761
tp1762
Rp1763
tp1764
a(S'niht'
p1765
g1755
I0
I822
g5
(g9
S'N\xd9\xf7?4\xed\x02@'
p1766
tp1767
Rp1768
tp1769
a(S'iht'
p1770
S'icml'
p1771
I0
I822
g5
(g9
S'\x95\x99D\xd0C\xe2\x01@'
p1772
tp1773
Rp1774
tp1775
a(S'sto-iht'
p1776
g1771
I0
I822
g5
(g9
S'\r7h\x17\xcc>\t@'
p1777
tp1778
Rp1779
tp1780
a(S'cosamp'
p1781
g1771
I0
I822
g5
(g9
S'\xd2\xec\xc2x\xa5\xf2\x05@'
p1782
tp1783
Rp1784
tp1785
a(S'graph-iht'
p1786
S'icml'
p1787
I0
I822
g5
(g9
S'\xc8=\xa2Rb\x08\xfd?'
p1788
tp1789
Rp1790
tp1791
a(S'graph-cosamp'
p1792
g1787
I0
I822
g5
(g9
S'\xdb\xe0;\xeb\xf3\xb8\x03@'
p1793
tp1794
Rp1795
tp1796
a(S'graph-sto-iht'
p1797
g1787
I0
I822
g5
(g9
S'\xd5 \xfd\x03\x94z\x8f>'
p1798
tp1799
Rp1800
tp1801
a(S'niht'
p1802
S'icml'
p1803
I0
I863
g5
(g9
S'>e\xea(G`\x03@'
p1804
tp1805
Rp1806
tp1807
a(S'iht'
p1808
g1803
I0
I863
g5
(g9
S'\xa3\xc3\xd8\xd7\x1e\x80\x01@'
p1809
tp1810
Rp1811
tp1812
a(S'sto-iht'
p1813
g1803
I0
I863
g5
(g9
S'jz\x83\xc9\x19\xe1\n@'
p1814
tp1815
Rp1816
tp1817
a(S'cosamp'
p1818
S'icml'
p1819
I0
I863
g5
(g9
S'%\xf5\xad\xd9\xb3\xd3\x05@'
p1820
tp1821
Rp1822
tp1823
a(S'graph-iht'
p1824
g1819
I0
I863
g5
(g9
S'\x85D\xc1\xa7\xc7\xe8\xf6?'
p1825
tp1826
Rp1827
tp1828
a(S'graph-cosamp'
p1829
g1819
I0
I863
g5
(g9
S'eT\xd3\xa6\xdcm\x02@'
p1830
tp1831
Rp1832
tp1833
a(S'graph-sto-iht'
p1834
S'icml'
p1835
I0
I863
g5
(g9
S'\xce\xae+*ra\x90>'
p1836
tp1837
Rp1838
tp1839
a(S'niht'
p1840
g1835
I0
I904
g5
(g9
S'\xf0\xbdfz\x12\x85\xff?'
p1841
tp1842
Rp1843
tp1844
a(S'iht'
p1845
g1835
I0
I904
g5
(g9
S'R\x1fT\x1c\xf0\xa4\xfe?'
p1846
tp1847
Rp1848
tp1849
a(S'sto-iht'
p1850
S'icml'
p1851
I0
I904
g5
(g9
S'\xfe\x9f\xcc|\x88b\x0b@'
p1852
tp1853
Rp1854
tp1855
a(S'cosamp'
p1856
g1851
I0
I904
g5
(g9
S'[\x81i\xaaL\xa7\x04@'
p1857
tp1858
Rp1859
tp1860
a(S'graph-iht'
p1861
g1851
I0
I904
g5
(g9
S'\x9eB\xb0R\xfa\xda\xf6?'
p1862
tp1863
Rp1864
tp1865
a(S'graph-cosamp'
p1866
S'icml'
p1867
I0
I904
g5
(g9
S'*t\xe1\xd0\xeb\xa2\x01@'
p1868
tp1869
Rp1870
tp1871
a(S'graph-sto-iht'
p1872
g1867
I0
I904
g5
(g9
S'\xf0\xb0Z&\x08\x00\x90>'
p1873
tp1874
Rp1875
tp1876
a(S'niht'
p1877
g1867
I0
I945
g5
(g9
S'B/\xb3.%\x03\xfa?'
p1878
tp1879
Rp1880
tp1881
a(S'iht'
p1882
S'icml'
p1883
I0
I945
g5
(g9
S'\xa2i\x13\xbd$=\xf3?'
p1884
tp1885
Rp1886
tp1887
a(S'sto-iht'
p1888
g1883
I0
I945
g5
(g9
S'\xdc\xbf\xef\xcf\\\x82\x04@'
p1889
tp1890
Rp1891
tp1892
a(S'cosamp'
p1893
g1883
I0
I945
g5
(g9
S'\xbcL\xf30\x87P\x03@'
p1894
tp1895
Rp1896
tp1897
a(S'graph-iht'
p1898
S'icml'
p1899
I0
I945
g5
(g9
S'\xc3\xd0\x1fQ\x98\xa2\xf6?'
p1900
tp1901
Rp1902
tp1903
a(S'graph-cosamp'
p1904
g1899
I0
I945
g5
(g9
S'\xfc\x17k\xbe\x99\xa9\x00@'
p1905
tp1906
Rp1907
tp1908
a(S'graph-sto-iht'
p1909
g1899
I0
I945
g5
(g9
S'#\xee\xa9U@&\x8a>'
p1910
tp1911
Rp1912
tp1913
a(S'niht'
p1914
S'icml'
p1915
I0
I986
g5
(g9
S'\xe6\xa3\x86\x16xu\xf9?'
p1916
tp1917
Rp1918
tp1919
a(S'iht'
p1920
g1915
I0
I986
g5
(g9
S'\x10\x98a\x05v\x82\xef?'
p1921
tp1922
Rp1923
tp1924
a(S'sto-iht'
p1925
g1915
I0
I986
g5
(g9
S'!\xc4B\xee\x15\x9b\xfe?'
p1926
tp1927
Rp1928
tp1929
a(S'cosamp'
p1930
S'icml'
p1931
I0
I986
g5
(g9
S'\xda\x04\xe2\xb8ZO\x01@'
p1932
tp1933
Rp1934
tp1935
a(S'graph-iht'
p1936
g1931
I0
I986
g5
(g9
S'\x8b\x9a\xe1\x94OY\xf2?'
p1937
tp1938
Rp1939
tp1940
a(S'graph-cosamp'
p1941
g1931
I0
I986
g5
(g9
S'\xf6^\x05Q\xd2B\xfd?'
p1942
tp1943
Rp1944
tp1945
a(S'graph-sto-iht'
p1946
S'icml'
p1947
I0
I986
g5
(g9
S'N\x86\x18\x1af\x1f\x8f>'
p1948
tp1949
Rp1950
tp1951
a(S'niht'
p1952
g1947
I0
I1027
g5
(g9
S'\x10\xbd\xfaS0\x96\xf0?'
p1953
tp1954
Rp1955
tp1956
a(S'iht'
p1957
g1947
I0
I1027
g5
(g9
S'\xc9u\xc0\x97\xa8x\xeb?'
p1958
tp1959
Rp1960
tp1961
a(S'sto-iht'
p1962
S'icml'
p1963
I0
I1027
g5
(g9
S'\xc7\x9b%\x9b\x83\xb7\x89>'
p1964
tp1965
Rp1966
tp1967
a(S'cosamp'
p1968
g1963
I0
I1027
g5
(g9
S"mMl'j/\xfc?"
p1969
tp1970
Rp1971
tp1972
a(S'graph-iht'
p1973
g1963
I0
I1027
g5
(g9
S'\x12\xf2\\\xd6\xd1\xfe\xf5?'
p1974
tp1975
Rp1976
tp1977
a(S'graph-cosamp'
p1978
S'icml'
p1979
I0
I1027
g5
(g9
S'4\x07r\x8b\xd0E\xfa?'
p1980
tp1981
Rp1982
tp1983
a(S'graph-sto-iht'
p1984
g1979
I0
I1027
g5
(g9
S'\xc5ayk\x81\xf0\x8c>'
p1985
tp1986
Rp1987
tp1988
a(S'niht'
p1989
g1979
I0
I1068
g5
(g9
S'\xdf\x15w\x07\x9d\xce\x8d>'
p1990
tp1991
Rp1992
tp1993
a(S'iht'
p1994
S'icml'
p1995
I0
I1068
g5
(g9
S'\xbfL\xc5p\\\x0e\x90>'
p1996
tp1997
Rp1998
tp1999
a(S'sto-iht'
p2000
g1995
I0
I1068
g5
(g9
S'`\x07\xba]|\xb6\x89>'
p2001
tp2002
Rp2003
tp2004
a(S'cosamp'
p2005
g1995
I0
I1068
g5
(g9
S'~D{\xc9\x0e`#@'
p2006
tp2007
Rp2008
tp2009
a(S'graph-iht'
p2010
S'icml'
p2011
I0
I1068
g5
(g9
S'\x87\xeb.\xc8\x14\xa2\xed?'
p2012
tp2013
Rp2014
tp2015
a(S'graph-cosamp'
p2016
g2011
I0
I1068
g5
(g9
S'8\xa3\xad\xaa\xef\x8c!@'
p2017
tp2018
Rp2019
tp2020
a(S'graph-sto-iht'
p2021
g2011
I0
I1068
g5
(g9
S'\x938k\x19\x1c \x8c>'
p2022
tp2023
Rp2024
tp2025
a(S'niht'
p2026
S'icml'
p2027
I0
I1109
g5
(g9
S'3B\x08\xd8\x8b\xc1\x8c>'
p2028
tp2029
Rp2030
tp2031
a(S'iht'
p2032
g2027
I0
I1109
g5
(g9
S'\x16\xf0\xa7\x1c/\xb7\x8f>'
p2033
tp2034
Rp2035
tp2036
a(S'sto-iht'
p2037
g2027
I0
I1109
g5
(g9
S']\x8b"\x90\x8a\x08\x8c>'
p2038
tp2039
Rp2040
tp2041
a(S'cosamp'
p2042
S'icml'
p2043
I0
I1109
g5
(g9
S'\xa1\x01K\xe6Sq1@'
p2044
tp2045
Rp2046
tp2047
a(S'graph-iht'
p2048
g2043
I0
I1109
g5
(g9
S';7\xbd\x99\x17\x8c\xf0?'
p2049
tp2050
Rp2051
tp2052
a(S'graph-cosamp'
p2053
g2043
I0
I1109
g5
(g9
S'S<k\xbcM\xdc%@'
p2054
tp2055
Rp2056
tp2057
a(S'graph-sto-iht'
p2058
S'icml'
p2059
I0
I1109
g5
(g9
S'q5\x96\xad\x82!\x88>'
p2060
tp2061
Rp2062
tp2063
a(S'niht'
p2064
g2059
I0
I1150
g5
(g9
S';=c\x8a\xedF\x88>'
p2065
tp2066
Rp2067
tp2068
a(S'iht'
p2069
g2059
I0
I1150
g5
(g9
S'\x1d\xbePy7R\x8e>'
p2070
tp2071
Rp2072
tp2073
a(S'sto-iht'
p2074
S'icml'
p2075
I0
I1150
g5
(g9
S'\xc1h\xb4\x9aI\xaf\x8b>'
p2076
tp2077
Rp2078
tp2079
a(S'cosamp'
p2080
g2075
I0
I1150
g5
(g9
S'\xbbl|3\x9e\x05\x1e@'
p2081
tp2082
Rp2083
tp2084
a(S'graph-iht'
p2085
g2075
I0
I1150
g5
(g9
S'rQ\xc3\x16\xa8\xf8\xea?'
p2086
tp2087
Rp2088
tp2089
a(S'graph-cosamp'
p2090
S'icml'
p2091
I0
I1150
g5
(g9
S'\x9f\x94\x17\xb4\xfc\xe6\x10='
p2092
tp2093
Rp2094
tp2095
a(S'graph-sto-iht'
p2096
g2091
I0
I1150
g5
(g9
S'\xd8.\x92?\n\x0c\x89>'
p2097
tp2098
Rp2099
tp2100
a(S'niht'
p2101
g2091
I0
I1191
g5
(g9
S'V\x10:\xe5\x0cL\x88>'
p2102
tp2103
Rp2104
tp2105
a(S'iht'
p2106
S'icml'
p2107
I0
I1191
g5
(g9
S'\xf0\xa2;\x90\x01B\x8e>'
p2108
tp2109
Rp2110
tp2111
a(S'sto-iht'
p2112
g2107
I0
I1191
g5
(g9
S'd\xdcf\xf0\xc5I\x85>'
p2113
tp2114
Rp2115
tp2116
a(S'cosamp'
p2117
g2107
I0
I1191
g5
(g9
S'\xeab-\xfd{\xb9\x11='
p2118
tp2119
Rp2120
tp2121
a(S'graph-iht'
p2122
S'icml'
p2123
I0
I1191
g5
(g9
S'2\x93\xbe\x88S\xae\xf0?'
p2124
tp2125
Rp2126
tp2127
a(S'graph-cosamp'
p2128
g2123
I0
I1191
g5
(g9
S'\x8a\xdf\xa7\xf8\xab\xc2\x12='
p2129
tp2130
Rp2131
tp2132
a(S'graph-sto-iht'
p2133
g2123
I0
I1191
g5
(g9
S'x5G\xd6&\xb8\x84>'
p2134
tp2135
Rp2136
tp2137
a(S'niht'
p2138
S'icml'
p2139
I0
I1233
g5
(g9
S'\xb7v\x88\xb1-\xe4\x89>'
p2140
tp2141
Rp2142
tp2143
a(S'iht'
p2144
g2139
I0
I1233
g5
(g9
S'f\x9c\xf7\xfb\xde\xc5\x8e>'
p2145
tp2146
Rp2147
tp2148
a(S'sto-iht'
p2149
g2139
I0
I1233
g5
(g9
S'\r~\xcb\x9elY\x87>'
p2150
tp2151
Rp2152
tp2153
a(S'cosamp'
p2154
S'icml'
p2155
I0
I1233
g5
(g9
S'\x81\x88\x8e\x12z7\x10='
p2156
tp2157
Rp2158
tp2159
a(S'graph-iht'
p2160
g2155
I0
I1233
g5
(g9
S'\x05\xe9\x9fb\xf8X\x8d>'
p2161
tp2162
Rp2163
tp2164
a(S'graph-cosamp'
p2165
g2155
I0
I1233
g5
(g9
S'$\x93\x17\x83~\xb4\x11='
p2166
tp2167
Rp2168
tp2169
a(S'graph-sto-iht'
p2170
S'icml'
p2171
I0
I1233
g5
(g9
S'Kp\xca6\xea\x8d\x84>'
p2172
tp2173
Rp2174
tp2175
a(S'niht'
p2176
g2171
I0
I1274
g5
(g9
S'D\xaa\xe8\xef\xfeq\x8e>'
p2177
tp2178
Rp2179
tp2180
a(S'iht'
p2181
g2171
I0
I1274
g5
(g9
S'\x0f\xbf\x1a\xcfWE\x8c>'
p2182
tp2183
Rp2184
tp2185
a(S'sto-iht'
p2186
S'icml'
p2187
I0
I1274
g5
(g9
S'B\x84\x17\xce{\xac\x87>'
p2188
tp2189
Rp2190
tp2191
a(S'cosamp'
p2192
g2187
I0
I1274
g5
(g9
S'\xfe\xa8\x15\xee\x91\xb9\x10='
p2193
tp2194
Rp2195
tp2196
a(S'graph-iht'
p2197
g2187
I0
I1274
g5
(g9
S'\xe6\x14pa\xc7\xff\x8c>'
p2198
tp2199
Rp2200
tp2201
a(S'graph-cosamp'
p2202
S'icml'
p2203
I0
I1274
g5
(g9
S'\xf6\x94\x8b9Qu\x12='
p2204
tp2205
Rp2206
tp2207
a(S'graph-sto-iht'
p2208
g2203
I0
I1274
g5
(g9
S'/\xccd_\x96\x0b\x85>'
p2209
tp2210
Rp2211
tp2212
a(S'niht'
p2213
g2203
I0
I1315
g5
(g9
S'\x84\x84\xe1\x98\xfa\xdb\x85>'
p2214
tp2215
Rp2216
tp2217
a(S'iht'
p2218
S'icml'
p2219
I0
I1315
g5
(g9
S'oC\xd8\x00\xb2/\x8b>'
p2220
tp2221
Rp2222
tp2223
a(S'sto-iht'
p2224
g2219
I0
I1315
g5
(g9
S'\x97%\xc4j\xef~\x85>'
p2225
tp2226
Rp2227
tp2228
a(S'cosamp'
p2229
g2219
I0
I1315
g5
(g9
S'K*\x19~\xac\xc5\r='
p2230
tp2231
Rp2232
tp2233
a(S'graph-iht'
p2234
S'icml'
p2235
I0
I1315
g5
(g9
S'\x15(W\x86;\xef\x8b>'
p2236
tp2237
Rp2238
tp2239
a(S'graph-cosamp'
p2240
g2235
I0
I1315
g5
(g9
S'\xf1r\x9b\xf2\x1c\x83\x0e='
p2241
tp2242
Rp2243
tp2244
a(S'graph-sto-iht'
p2245
g2235
I0
I1315
g5
(g9
S'Rq\x9eq\xe4\xda\x88>'
p2246
tp2247
Rp2248
tp2249
a(S'niht'
p2250
S'icml'
p2251
I0
I1356
g5
(g9
S'0\rV\x0e\x0e \x86>'
p2252
tp2253
Rp2254
tp2255
a(S'iht'
p2256
g2251
I0
I1356
g5
(g9
S'y\r\x1a}\x0b\x99\x8c>'
p2257
tp2258
Rp2259
tp2260
a(S'sto-iht'
p2261
g2251
I0
I1356
g5
(g9
S'`\xbdK\x85=d\x85>'
p2262
tp2263
Rp2264
tp2265
a(S'cosamp'
p2266
S'icml'
p2267
I0
I1356
g5
(g9
S'\xed\xc0\x84KW\xfd\n='
p2268
tp2269
Rp2270
tp2271
a(S'graph-iht'
p2272
g2267
I0
I1356
g5
(g9
S'c\\\xc7\x9b\x1f3\x89>'
p2273
tp2274
Rp2275
tp2276
a(S'graph-cosamp'
p2277
g2267
I0
I1356
g5
(g9
S'5HE4\xba\xca\n='
p2278
tp2279
Rp2280
tp2281
a(S'graph-sto-iht'
p2282
S'icml'
p2283
I0
I1356
g5
(g9
S'=\xa03\xef\xe6T\x8a>'
p2284
tp2285
Rp2286
tp2287
a(S'niht'
p2288
g2283
I0
I1397
g5
(g9
S'\x9ao\xaa\xd1\x08\xbf\x8a>'
p2289
tp2290
Rp2291
tp2292
a(S'iht'
p2293
g2283
I0
I1397
g5
(g9
S'\xdf\xb7\x02\x7f\xf4~\x8a>'
p2294
tp2295
Rp2296
tp2297
a(S'sto-iht'
p2298
S'icml'
p2299
I0
I1397
g5
(g9
S'1\xf0\xc9\xc9\x83,\x86>'
p2300
tp2301
Rp2302
tp2303
a(S'cosamp'
p2304
g2299
I0
I1397
g5
(g9
S'\xeb\xfb*\x81\xfb\x13\r='
p2305
tp2306
Rp2307
tp2308
a(S'graph-iht'
p2309
g2299
I0
I1397
g5
(g9
S'\\v>\x05\xcc\x93\x8a>'
p2310
tp2311
Rp2312
tp2313
a(S'graph-cosamp'
p2314
S'icml'
p2315
I0
I1397
g5
(g9
S'\x9dlCG_\x80\r='
p2316
tp2317
Rp2318
tp2319
a(S'graph-sto-iht'
p2320
g2315
I0
I1397
g5
(g9
S'j\x19]~#.\x86>'
p2321
tp2322
Rp2323
tp2324
a(S'niht'
p2325
g2315
I0
I1438
g5
(g9
S"\xe3\x1a\xa0'\xf7\xed\x87>"
p2326
tp2327
Rp2328
tp2329
a(S'iht'
p2330
S'icml'
p2331
I0
I1438
g5
(g9
S'\xdc\x81owQ\xc5\x8a>'
p2332
tp2333
Rp2334
tp2335
a(S'sto-iht'
p2336
g2331
I0
I1438
g5
(g9
S'RH\xc4"\xc4\xa1\x89>'
p2337
tp2338
Rp2339
tp2340
a(S'cosamp'
p2341
g2331
I0
I1438
g5
(g9
S'\xddov\xaaH\xad\x0b='
p2342
tp2343
Rp2344
tp2345
a(S'graph-iht'
p2346
S'icml'
p2347
I0
I1438
g5
(g9
S'\'\t\x86B"\xc7\x8b>'
p2348
tp2349
Rp2350
tp2351
a(S'graph-cosamp'
p2352
g2347
I0
I1438
g5
(g9
S'\x8f\xf4\x96\x9e\x13\xf2\n='
p2353
tp2354
Rp2355
tp2356
a(S'graph-sto-iht'
p2357
g2347
I0
I1438
g5
(g9
S'\x0c\x832\xef\xe8=\x84>'
p2358
tp2359
Rp2360
tp2361
as.