(lp0
(I0
I3600
(lp1
(S'sto-iht'
p2
I9
F68.93088603019714
I9
F0.0
F0.0045795440673828125
cnumpy.core.multiarray
scalar
p3
(cnumpy
dtype
p4
(S'f8'
p5
I0
I1
tp6
Rp7
(I3
S'<'
p8
NNNI-1
I-1
I0
tp9
bS'\x82\xfbj\xf2\xd4n]>'
p10
tp11
Rp12
tp13
a(S'graph-sto-iht'
p14
I9
F68.92903995513916
I9
F0.1941828727722168
F0.28545069694519043
g3
(g7
S'\x98:\x16yY@\\>'
p15
tp16
Rp17
tp18
atp19
a(I1
I3600
(lp20
(g2
I9
F69.3748710155487
I9
F0.0
F0.004003047943115234
g3
(g7
S'lk#Y\x1c\x15e>'
p21
tp22
Rp23
tp24
a(g14
I9
F69.65681409835815
I9
F0.20697307586669922
F0.23460865020751953
g3
(g7
S'\xd0\xae\x0e\x03;\x1aY>'
p25
tp26
Rp27
tp28
atp29
a(I2
I3600
(lp30
(S'sto-iht'
p31
I9
F69.10966682434082
I9
F0.0
F0.004861116409301758
g3
(g7
S'\xf6\xff\xa2\x05[\x04w>'
p32
tp33
Rp34
tp35
a(S'graph-sto-iht'
p36
I9
F69.24420690536499
I9
F0.20455598831176758
F0.3260674476623535
g3
(g7
S'H\xe8Y\xac\xa1\xe4e>'
p37
tp38
Rp39
tp40
atp41
a(I3
I3600
(lp42
(g31
I9
F69.1723849773407
I9
F0.0
F0.003985404968261719
g3
(g7
S'\xbb\x8d%\xae1Kl>'
p43
tp44
Rp45
tp46
a(g36
I9
F69.63847994804382
I9
F0.21320271492004395
F0.45063328742980957
g3
(g7
S'\xcc\x9e\xf1|\xf1\x11c>'
p47
tp48
Rp49
tp50
atp51
a(I4
I3600
(lp52
(S'sto-iht'
p53
I9
F34.24766206741333
I9
F0.0
F0.0032529830932617188
g3
(g7
S'\x11\xf15h\xa1\x11q>'
p54
tp55
Rp56
tp57
a(S'graph-sto-iht'
p58
I9
F35.37576508522034
I9
F0.13029265403747559
F0.10013127326965332
g3
(g7
S'\xcb\xfbA\xe6\xf2\x87`>'
p59
tp60
Rp61
tp62
atp63
a(I5
I3600
(lp64
(g53
I10
F39.02368211746216
I10
F0.0
F0.003213167190551758
g3
(g7
S'D\x17\x84:-\xf4M>'
p65
tp66
Rp67
tp68
a(g58
I9
F35.3476300239563
I9
F0.13349580764770508
F0.14252495765686035
g3
(g7
S'\x96LUm\xa7\x90e>'
p69
tp70
Rp71
tp72
atp73
a(I6
I3600
(lp74
(S'sto-iht'
p75
I9
F66.57829809188843
I9
F0.0
F0.0039577484130859375
g3
(g7
S'\xa79\x11\xef\x0e\xc8d>'
p76
tp77
Rp78
tp79
a(S'graph-sto-iht'
p80
I9
F66.78278303146362
I9
F0.19677400588989258
F0.2488420009613037
g3
(g7
S'\xef\x07\x92\x83\xd4\xba]>'
p81
tp82
Rp83
tp84
atp85
a(I7
I3600
(lp86
(g75
I9
F67.24069499969482
I9
F0.0
F0.003987789154052734
g3
(g7
S'(&\xf0\x12\xc1\xa0f>'
p87
tp88
Rp89
tp90
a(g80
I9
F67.94893789291382
I9
F0.20378446578979492
F0.2460188865661621
g3
(g7
S'\xd4\xb3\xee\xaf\xc5\xddQ>'
p91
tp92
Rp93
tp94
atp95
a(I8
I3600
(lp96
(S'sto-iht'
p97
I8
F30.16370701789856
I8
F0.0
F0.0028693675994873047
g3
(g7
S'<\xfa\xdf\xbbxzs>'
p98
tp99
Rp100
tp101
a(S'graph-sto-iht'
p102
I8
F31.245139122009277
I8
F0.11755990982055664
F0.07773089408874512
g3
(g7
S'\xad\x12H\x0b\t8j>'
p103
tp104
Rp105
tp106
atp107
a(I9
I3600
(lp108
(g97
I9
F34.9872670173645
I9
F0.0
F0.0029625892639160156
g3
(g7
S'\xd1FE\xc8\x99\x1fe>'
p109
tp110
Rp111
tp112
a(g102
I9
F35.39574980735779
I9
F0.13373780250549316
F0.16502785682678223
g3
(g7
S'\xdf\xfe\x14\x01Y\xd9]>'
p113
tp114
Rp115
tp116
atp117
a(I10
I3600
(lp118
(S'sto-iht'
p119
I9
F68.7993369102478
I9
F0.0
F0.004400730133056641
g3
(g7
S'\xea\xf0\xf4+\xee\x87Q>'
p120
tp121
Rp122
tp123
a(S'graph-sto-iht'
p124
I9
F68.75061106681824
I9
F0.1970508098602295
F0.1949629783630371
g3
(g7
S'\xa8\xfcR\x84\xd5*K>'
p125
tp126
Rp127
tp128
atp129
a(I11
I3600
(lp130
(g119
I9
F69.0277419090271
I9
F0.0
F0.004034996032714844
g3
(g7
S'\x93\x80p\xa6k\xaag>'
p131
tp132
Rp133
tp134
a(g124
I9
F69.11462903022766
I9
F0.21542716026306152
F0.17472195625305176
g3
(g7
S'\xe5\xa7\x7f\xbbM\x97g>'
p135
tp136
Rp137
tp138
atp139
a(I12
I3600
(lp140
(S'sto-iht'
p141
I9
F62.24607491493225
I9
F0.0
F0.004148960113525391
g3
(g7
S'M\xb8(\x02?\x85m>'
p142
tp143
Rp144
tp145
a(S'graph-sto-iht'
p146
I9
F65.93309497833252
I9
F0.19417500495910645
F0.20083308219909668
g3
(g7
S'~`\t\xfc\xc85c>'
p147
tp148
Rp149
tp150
atp151
a(I13
I3600
(lp152
(g141
I9
F66.00656509399414
I9
F0.0
F0.00385284423828125
g3
(g7
S'\xc8R\xc5.\xd1QQ>'
p153
tp154
Rp155
tp156
a(g146
I8
F59.72979998588562
I8
F0.17747831344604492
F0.48958396911621094
g3
(g7
S'\xfa\x7f\xbc\xe1\xeb\xa6W>'
p157
tp158
Rp159
tp160
atp161
a(I14
I3600
(lp162
(S'sto-iht'
p163
I10
F38.298194885253906
I10
F0.0
F0.003342866897583008
g3
(g7
S'\x1f\x08%\x989za>'
p164
tp165
Rp166
tp167
a(S'graph-sto-iht'
p168
I10
F39.398776054382324
I10
F0.14621543884277344
F0.18410587310791016
g3
(g7
S'\xe9A\xd2\x99\x91AU>'
p169
tp170
Rp171
tp172
atp173
a(I15
I3600
(lp174
(g163
I9
F35.383260011672974
I9
F0.0
F0.0030465126037597656
g3
(g7
S'fF|#\xee\xf3l>'
p175
tp176
Rp177
tp178
a(g168
I9
F35.68851399421692
I9
F0.1339876651763916
F0.268390417098999
g3
(g7
S'\x9f\x91\xd5\x91\x92\x0fT>'
p179
tp180
Rp181
tp182
atp183
a(I16
I3600
(lp184
(S'sto-iht'
p185
I8
F57.951441049575806
I8
F0.0
F0.003815174102783203
g3
(g7
S'C\n\xda\xe6\xaa\xa3u>'
p186
tp187
Rp188
tp189
a(S'graph-sto-iht'
p190
I9
F66.3958089351654
I9
F0.1994762420654297
F0.5202970504760742
g3
(g7
S'#\xdc^\xba~\xdd[>'
p191
tp192
Rp193
tp194
atp195
a(I17
I3600
(lp196
(g185
I9
F66.07562589645386
I9
F0.0
F0.0038480758666992188
g3
(g7
S'$\x8f\x11o\x8dU_>'
p197
tp198
Rp199
tp200
a(g190
I9
F67.37645506858826
I9
F0.19613409042358398
F0.6136977672576904
g3
(g7
S"\xd8!s'JKc>"
p201
tp202
Rp203
tp204
atp205
a(I18
I3600
(lp206
(S'sto-iht'
p207
I8
F61.03609895706177
I8
F0.0
F0.0038640499114990234
g3
(g7
S'\xf3\xb6xHp\xe6j>'
p208
tp209
Rp210
tp211
a(S'graph-sto-iht'
p212
I8
F60.96046805381775
I8
F0.1845386028289795
F0.16202187538146973
g3
(g7
S"'\x9f\xf4\x03\x8e\xa5e>"
p213
tp214
Rp215
tp216
atp217
a(I19
I3600
(lp218
(g207
I8
F60.827629804611206
I8
F0.0
F0.0035047531127929688
g3
(g7
S'f+\x93\xe8\xfd]v>'
p219
tp220
Rp221
tp222
a(g212
I8
F62.00654196739197
I8
F0.20172381401062012
F0.20255231857299805
g3
(g7
S'\x96\xee\x91\xc0+\xe3e>'
p223
tp224
Rp225
tp226
atp227
a(I20
I3600
(lp228
(S'sto-iht'
p229
I9
F67.40378999710083
I9
F0.0
F0.004952192306518555
g3
(g7
S'\x93\xdc\x02\x1b\x93\x00d>'
p230
tp231
Rp232
tp233
a(S'graph-sto-iht'
p234
I9
F67.77271103858948
I9
F0.20634007453918457
F0.2741584777832031
g3
(g7
S"\x8d\xf2\xad\xff'cN>"
p235
tp236
Rp237
tp238
atp239
a(I21
I3600
(lp240
(g229
I9
F67.97677302360535
I9
F0.0
F0.004019975662231445
g3
(g7
S'~\x83\xb4\xa1hSQ>'
p241
tp242
Rp243
tp244
a(g234
I8
F61.1010639667511
I8
F0.19488811492919922
F0.3615446090698242
g3
(g7
S'\xd7)\xc7I\x94\xfdv>'
p245
tp246
Rp247
tp248
atp249
a(I22
I3600
(lp250
(S'sto-iht'
p251
I9
F68.69906497001648
I9
F0.0
F0.004129886627197266
g3
(g7
S'|\x7fc\x18Wn^>'
p252
tp253
Rp254
tp255
a(S'graph-sto-iht'
p256
I8
F61.19858694076538
I8
F0.17394471168518066
F0.2682778835296631
g3
(g7
S'\x14\x17mp9\x84q>'
p257
tp258
Rp259
tp260
atp261
a(I23
I3600
(lp262
(g251
I9
F68.792240858078
I9
F0.0
F0.004039764404296875
g3
(g7
S'R\x1f7m\xa1\x9er>'
p263
tp264
Rp265
tp266
a(g256
I9
F69.38907289505005
I9
F0.2142655849456787
F0.33454394340515137
g3
(g7
S'YV\x1c\x01\xb7\x1f`>'
p267
tp268
Rp269
tp270
atp271
a(I24
I3600
(lp272
(S'sto-iht'
p273
I9
F35.84660506248474
I9
F0.0
F0.0032460689544677734
g3
(g7
S'\xa8\x15\x89\xe5v\x97n>'
p274
tp275
Rp276
tp277
a(S'graph-sto-iht'
p278
I9
F35.29808497428894
I9
F0.1272268295288086
F0.27624988555908203
g3
(g7
S'4\x98\x94C\xd0\xf5N>'
p279
tp280
Rp281
tp282
atp283
a(I25
I3600
(lp284
(g273
I9
F35.11056208610535
I9
F0.0
F0.002905607223510742
g3
(g7
S'\xf1\xd9\x0c\x0e\xf1\x02O>'
p285
tp286
Rp287
tp288
a(g278
I9
F35.34440088272095
I9
F0.12294125556945801
F0.12175869941711426
g3
(g7
S'\xb4\xa7\x19\x8b\xb9qL>'
p289
tp290
Rp291
tp292
atp293
a(I26
I3600
(lp294
(S'sto-iht'
p295
I9
F67.65984988212585
I9
F0.0
F0.0045053958892822266
g3
(g7
S'\x08#`\xe7n@m>'
p296
tp297
Rp298
tp299
a(S'graph-sto-iht'
p300
I8
F60.34586501121521
I8
F0.1987144947052002
F0.1965792179107666
g3
(g7
S'Q\x9f$Y\x8e\x8cy>'
p301
tp302
Rp303
tp304
atp305
a(I27
I3600
(lp306
(g295
I9
F67.74600887298584
I9
F0.0
F0.004045963287353516
g3
(g7
S'\xc6u\x94\xd7T!^>'
p307
tp308
Rp309
tp310
a(g300
I9
F68.75157690048218
I9
F0.20989656448364258
F0.35001254081726074
g3
(g7
S'\xb6k\x06g\xe2bR>'
p311
tp312
Rp313
tp314
atp315
a(I28
I3600
(lp316
(S'sto-iht'
p317
I9
F68.95692110061646
I9
F0.0
F0.0042569637298583984
g3
(g7
S'r\xcb`S\t\x03r>'
p318
tp319
Rp320
tp321
a(S'graph-sto-iht'
p322
I9
F69.36603808403015
I9
F0.22059082984924316
F0.5141489505767822
g3
(g7
S'\xe2\xb0qp<\xc0M>'
p323
tp324
Rp325
tp326
atp327
a(I29
I3600
(lp328
(g317
I8
F61.21756911277771
I8
F0.0
F0.0037384033203125
g3
(g7
S'\x8d\x80\xe6\x03R}z>'
p329
tp330
Rp331
tp332
a(g322
I8
F61.834349155426025
I8
F0.19083952903747559
F0.1493229866027832
g3
(g7
S'\xc2\xc4\xdd\x16\xc4Tn>'
p333
tp334
Rp335
tp336
atp337
a(I30
I3600
(lp338
(S'sto-iht'
p339
I9
F67.45058393478394
I9
F0.0
F0.004945516586303711
g3
(g7
S'@l\x16\xef\r\x9d_>'
p340
tp341
Rp342
tp343
a(S'graph-sto-iht'
p344
I8
F60.809589862823486
I8
F0.18475008010864258
F0.4157583713531494
g3
(g7
S'\xc8\xdd\x87\x01<|m>'
p345
tp346
Rp347
tp348
atp349
a(I31
I3600
(lp350
(g339
I9
F56.841997146606445
I9
F0.0
F0.0035262107849121094
g3
(g7
S'%ka\xb18ac>'
p351
tp352
Rp353
tp354
a(g344
I9
F69.56926894187927
I9
F0.20542287826538086
F0.7325754165649414
g3
(g7
S'\xd9\xab\x17\x8e\xfd\xb8b>'
p355
tp356
Rp357
tp358
atp359
a(I32
I3600
(lp360
(S'sto-iht'
p361
I9
F67.33307099342346
I9
F0.0
F0.004965305328369141
g3
(g7
S'\xaa\xe9\x0c\xa4\xd0\xfaR>'
p362
tp363
Rp364
tp365
a(S'graph-sto-iht'
p366
I9
F68.0918869972229
I9
F0.20985031127929688
F0.40285301208496094
g3
(g7
S'%\xdd\xf5\xff}\xa4X>'
p367
tp368
Rp369
tp370
atp371
a(I33
I3600
(lp372
(g361
I9
F68.01770305633545
I9
F0.0
F0.004047870635986328
g3
(g7
S'\x89Pd\x9a\xbe\x07w>'
p373
tp374
Rp375
tp376
a(g366
I9
F68.20506691932678
I9
F0.2143843173980713
F0.29262709617614746
g3
(g7
S'\xb2\x8a\xb7\x93\xba\xe9n>'
p377
tp378
Rp379
tp380
atp381
a(I34
I3600
(lp382
(S'sto-iht'
p383
I9
F67.89842820167542
I9
F0.0
F0.00481414794921875
g3
(g7
S'[\\\xe7\xe7\xa4aa>'
p384
tp385
Rp386
tp387
a(S'graph-sto-iht'
p388
I9
F67.9947190284729
I9
F0.21499061584472656
F0.24088621139526367
g3
(g7
S'9H_\xda\x1e\x93\\>'
p389
tp390
Rp391
tp392
atp393
a(I35
I3600
(lp394
(g383
I9
F68.17580699920654
I9
F0.0
F0.0041277408599853516
g3
(g7
S'\xc2\x8f\xff%D\xb7`>'
p395
tp396
Rp397
tp398
a(g388
I9
F68.70905089378357
I9
F0.20742440223693848
F0.18096089363098145
g3
(g7
S'\xe8B\x0b7m\xe5U>'
p399
tp400
Rp401
tp402
atp403
a(I36
I3600
(lp404
(S'sto-iht'
p405
I9
F65.64017796516418
I9
F0.0
F0.004311323165893555
g3
(g7
S'\x87\x18\xb8g\x8b\x9ex>'
p406
tp407
Rp408
tp409
a(S'graph-sto-iht'
p410
I9
F66.39350891113281
I9
F0.1950550079345703
F0.44199466705322266
g3
(g7
S'\xed\x8d\x86\xd3rS^>'
p411
tp412
Rp413
tp414
atp415
a(I37
I3600
(lp416
(g405
I9
F63.5336799621582
I9
F0.0
F0.0039026737213134766
g3
(g7
S'0\x89ue\xaf\xfcR>'
p417
tp418
Rp419
tp420
a(g410
I8
F60.31639289855957
I8
F0.1831040382385254
F0.17672395706176758
g3
(g7
S'\xe7\xcdfat\xb2s>'
p421
tp422
Rp423
tp424
atp425
a(I38
I3600
(lp426
(S'sto-iht'
p427
I10
F38.52551603317261
I10
F0.0
F0.0033271312713623047
g3
(g7
S'\x81j\x92vZ\x03a>'
p428
tp429
Rp430
tp431
a(S'graph-sto-iht'
p432
I10
F39.49593997001648
I10
F0.14949917793273926
F0.21327829360961914
g3
(g7
S'\x93<\xb4j\xb7\x17Q>'
p433
tp434
Rp435
tp436
atp437
a(I39
I3600
(lp438
(g427
I9
F35.49644994735718
I9
F0.0
F0.0030024051666259766
g3
(g7
S'$K.\x8dN\xedS>'
p439
tp440
Rp441
tp442
a(g432
I9
F35.66759204864502
I9
F0.13420772552490234
F0.14237761497497559
g3
(g7
S'\x12\x150\xb5DlM>'
p443
tp444
Rp445
tp446
atp447
a(I40
I3600
(lp448
(S'sto-iht'
p449
I9
F35.067766189575195
I9
F0.0
F0.003031492233276367
g3
(g7
S'\xa7\xe9TM\xca\xbbc>'
p450
tp451
Rp452
tp453
a(S'graph-sto-iht'
p454
I9
F35.60390305519104
I9
F0.1292591094970703
F0.17438864707946777
g3
(g7
S'!z8E\xc2\xcaQ>'
p455
tp456
Rp457
tp458
atp459
a(I41
I3600
(lp460
(g449
I9
F35.29891610145569
I9
F0.0
F0.0029480457305908203
g3
(g7
S'\x10n%T)\xf6c>'
p461
tp462
Rp463
tp464
a(g454
I9
F35.70225501060486
I9
F0.12712955474853516
F0.21545052528381348
g3
(g7
S'\xa3hp\xc6\xa5vP>'
p465
tp466
Rp467
tp468
atp469
a(I42
I3600
(lp470
(S'sto-iht'
p471
I9
F67.41615009307861
I9
F0.0
F0.005101919174194336
g3
(g7
S'h\x0b\xae\x98\xa9\x81R>'
p472
tp473
Rp474
tp475
a(S'graph-sto-iht'
p476
I9
F67.61617183685303
I9
F0.20499110221862793
F0.1873462200164795
g3
(g7
S'\x1f\xea\x15\xba\xf0\x93c>'
p477
tp478
Rp479
tp480
atp481
a(I43
I3600
(lp482
(g471
I9
F67.89150595664978
I9
F0.0
F0.003831148147583008
g3
(g7
S'\xf3?\xe9\xef\xbeUZ>'
p483
tp484
Rp485
tp486
a(g476
I8
F60.28374886512756
I8
F0.18868112564086914
F0.21245789527893066
g3
(g7
S'\xdf\x8a\x86\x9d\xc0zy>'
p487
tp488
Rp489
tp490
atp491
a(I44
I3600
(lp492
(S'sto-iht'
p493
I9
F67.22083687782288
I9
F0.0
F0.0046541690826416016
g3
(g7
S'\n<\xaa$0EO>'
p494
tp495
Rp496
tp497
a(S'graph-sto-iht'
p498
I8
F60.521754026412964
I8
F0.1814582347869873
F0.36220288276672363
g3
(g7
S'@C\x95/\x9che>'
p499
tp500
Rp501
tp502
atp503
a(I45
I3600
(lp504
(g493
I9
F67.79067301750183
I9
F0.0
F0.004426240921020508
g3
(g7
S'\x8e\xa0\x8e\xcb\xdb\x01h>'
p505
tp506
Rp507
tp508
a(g498
I9
F68.67216205596924
I9
F0.21439313888549805
F0.3619236946105957
g3
(g7
S'\x82\x8e\x8el\x0e\xaa_>'
p509
tp510
Rp511
tp512
atp513
a(I46
I3600
(lp514
(S'sto-iht'
p515
I9
F67.033038854599
I9
F0.0
F0.005113840103149414
g3
(g7
S'\xae\xcd<\xc2hFw>'
p516
tp517
Rp518
tp519
a(S'graph-sto-iht'
p520
I9
F67.32444882392883
I9
F0.2031233310699463
F0.26340365409851074
g3
(g7
S'\xbc1\x95\x7fF\nm>'
p521
tp522
Rp523
tp524
atp525
a(I47
I3600
(lp526
(g515
I9
F45.530174016952515
I9
F0.0
F0.0030972957611083984
g3
(g7
S'\xd4\xa8iNX\x8fv>'
p527
tp528
Rp529
tp530
a(g520
I9
F35.34902095794678
I9
F0.1321098804473877
F0.08935022354125977
g3
(g7
S'\x94\x9c\xb8\x844\x96p>'
p531
tp532
Rp533
tp534
atp535
a(I48
I3600
(lp536
(S'sto-iht'
p537
I9
F65.68973994255066
I9
F0.0
F0.003946542739868164
g3
(g7
S'h\xd7x\xf3l^o>'
p538
tp539
Rp540
tp541
a(S'graph-sto-iht'
p542
I9
F66.20200991630554
I9
F0.2099015712738037
F0.2053210735321045
g3
(g7
S'\xb2\xca\xac\xe3z\x1eQ>'
p543
tp544
Rp545
tp546
atp547
a(I49
I3600
(lp548
(g537
I9
F66.52182102203369
I9
F0.0
F0.003850221633911133
g3
(g7
S'\x10\xf2Z\x02Y;d>'
p549
tp550
Rp551
tp552
a(g542
I9
F67.47303605079651
I9
F0.21035504341125488
F0.30078911781311035
g3
(g7
S'N\xd9\xfb\xe2\xa4`^>'
p553
tp554
Rp555
tp556
atp557
a(I0
I1800
(lp558
(S'sto-iht'
p559
I5
F37.17081117630005
I10
F0.0
F0.004368305206298828
g3
(g7
S'\x83\x89\xf6\x1c$\xfar>'
p560
tp561
Rp562
tp563
a(S'graph-sto-iht'
p564
I5
F37.9367299079895
I10
F0.21530795097351074
F0.5300507545471191
g3
(g7
S'\xf0\x9e?\xbd\x17\x8bR>'
p565
tp566
Rp567
tp568
atp569
a(I1
I1800
(lp570
(g559
I5
F37.47855615615845
I10
F0.0
F0.004279136657714844
g3
(g7
S'\x17\x1f\x17$\xcd\x82F>'
p571
tp572
Rp573
tp574
a(g564
I5
F37.670865058898926
I10
F0.22745513916015625
F0.22264599800109863
g3
(g7
S'[\x80(\x8c?\xc4d>'
p575
tp576
Rp577
tp578
atp579
a(I2
I1800
(lp580
(S'sto-iht'
p581
I5
F38.59328603744507
I10
F0.0
F0.005285739898681641
g3
(g7
S'\x84\xf5F\r\xddC;>'
p582
tp583
Rp584
tp585
a(S'graph-sto-iht'
p586
I5
F38.74866199493408
I10
F0.22792744636535645
F0.4038255214691162
g3
(g7
S'\x168\xf0\xbdSE9>'
p587
tp588
Rp589
tp590
atp591
a(I3
I1800
(lp592
(g581
I5
F37.9604709148407
I10
F0.0
F0.004530668258666992
g3
(g7
S'\x839~\xbe\n\xa4F>'
p593
tp594
Rp595
tp596
a(g586
I5
F38.70688986778259
I10
F0.21946477890014648
F0.2939479351043701
g3
(g7
S'\xcb\xbd\xc6\x857OD>'
p597
tp598
Rp599
tp600
atp601
a(I4
I1800
(lp602
(S'sto-iht'
p603
I5
F37.65581202507019
I10
F0.0
F0.005029439926147461
g3
(g7
S'\xa3\x95\x02\xac\x99\x02`>'
p604
tp605
Rp606
tp607
a(S'graph-sto-iht'
p608
I5
F37.93454194068909
I10
F0.21474170684814453
F0.4191296100616455
g3
(g7
S"\r\x08\x15A\xb2T'>"
p609
tp610
Rp611
tp612
atp613
a(I5
I1800
(lp614
(g603
I5
F38.06309509277344
I10
F0.0
F0.004302263259887695
g3
(g7
S'\x1a\x08$Gl\xa0a>'
p615
tp616
Rp617
tp618
a(g608
I5
F38.033403158187866
I10
F0.2249143123626709
F0.3002340793609619
g3
(g7
S'\x9c\xfc\xc4\xde\r\xf1">'
p619
tp620
Rp621
tp622
atp623
a(I6
I1800
(lp624
(S'sto-iht'
p625
I5
F36.783658027648926
I10
F0.0
F0.004418611526489258
g3
(g7
S'N\x8c\xf6<\x94@T>'
p626
tp627
Rp628
tp629
a(S'graph-sto-iht'
p630
I5
F37.79336094856262
I10
F0.21984004974365234
F0.44120097160339355
g3
(g7
S'>91\xd09%C>'
p631
tp632
Rp633
tp634
atp635
a(I7
I1800
(lp636
(g625
I5
F37.0789909362793
I10
F0.0
F0.004354953765869141
g3
(g7
S'\xff\x86w}\x10qW>'
p637
tp638
Rp639
tp640
a(g630
I5
F37.102941036224365
I10
F0.2159862518310547
F0.28850841522216797
g3
(g7
S'U\x87\x1f\xffX\xd4#>'
p641
tp642
Rp643
tp644
atp645
a(I8
I1800
(lp646
(S'sto-iht'
p647
I5
F37.03496503829956
I10
F0.0
F0.0045320987701416016
g3
(g7
S'\xfd\xf8\x0fx]\xe1D>'
p648
tp649
Rp650
tp651
a(S'graph-sto-iht'
p652
I5
F37.696529150009155
I10
F0.21734380722045898
F0.27712297439575195
g3
(g7
S'\xb0~\x86\xc7\xe2QT>'
p653
tp654
Rp655
tp656
atp657
a(I9
I1800
(lp658
(g647
I5
F37.292283058166504
I10
F0.0
F0.004316091537475586
g3
(g7
S'\xc8\xe5eG\xeb\xee>>'
p659
tp660
Rp661
tp662
a(g652
I5
F37.370306968688965
I10
F0.2139873504638672
F0.33804774284362793
g3
(g7
S'\x00E\xc7\n\x1b\xf0C>'
p663
tp664
Rp665
tp666
atp667
a(I10
I1800
(lp668
(S'sto-iht'
p669
I5
F36.951292991638184
I10
F0.0
F0.004553079605102539
g3
(g7
S'\x8be\x18\x12y\xddJ>'
p670
tp671
Rp672
tp673
a(S'graph-sto-iht'
p674
I5
F37.87351894378662
I10
F0.23127007484436035
F0.41614413261413574
g3
(g7
S'\x97\xc7\x9cjX\x187>'
p675
tp676
Rp677
tp678
atp679
a(I11
I1800
(lp680
(g669
I5
F37.03848719596863
I10
F0.0
F0.0042018890380859375
g3
(g7
S'\xb8\x92\x10\xdah\x825>'
p681
tp682
Rp683
tp684
a(g674
I5
F36.76010084152222
I10
F0.2197246551513672
F0.4106428623199463
g3
(g7
S'\t\xa6\x87\x07\x05\xbb3>'
p685
tp686
Rp687
tp688
atp689
a(I12
I1800
(lp690
(S'sto-iht'
p691
I6
F45.335241079330444
I12
F0.0
F0.0052297115325927734
g3
(g7
S'\xbb\ne\x0f\xddx7>'
p692
tp693
Rp694
tp695
a(S'graph-sto-iht'
p696
I5
F38.242796182632446
I10
F0.22333097457885742
F0.3436577320098877
g3
(g7
S':g\xb7H\x07\x99S>'
p697
tp698
Rp699
tp700
atp701
a(I13
I1800
(lp702
(g691
I5
F37.74807095527649
I10
F0.0
F0.004336357116699219
g3
(g7
S'\\\xecL\xcb\x06\x8fs>'
p703
tp704
Rp705
tp706
a(g696
I5
F37.50367498397827
I10
F0.21155786514282227
F0.2878882884979248
g3
(g7
S'\xfc%-\xa2k\x93I>'
p707
tp708
Rp709
tp710
atp711
a(I14
I1800
(lp712
(S'sto-iht'
p713
I5
F37.82896900177002
I10
F0.0
F0.004477977752685547
g3
(g7
S'F\xf9\xa2N\x0b\x80K>'
p714
tp715
Rp716
tp717
a(S'graph-sto-iht'
p718
I5
F38.28485083580017
I10
F0.22497200965881348
F0.20161032676696777
g3
(g7
S'\xcc\xec|\x026\x90q>'
p719
tp720
Rp721
tp722
atp723
a(I15
I1800
(lp724
(g713
I5
F37.60670208930969
I10
F0.0
F0.004361152648925781
g3
(g7
S'\x11\rYR!\xa9_>'
p725
tp726
Rp727
tp728
a(g718
I5
F37.83933210372925
I10
F0.23499631881713867
F0.37544941902160645
g3
(g7
S'F\xd7\xaa)\x03ce>'
p729
tp730
Rp731
tp732
atp733
a(I16
I1800
(lp734
(S'sto-iht'
p735
I6
F44.09516191482544
I12
F0.0
F0.005242824554443359
g3
(g7
S'\x85\xbc\t\xa6\x01@*>'
p736
tp737
Rp738
tp739
a(S'graph-sto-iht'
p740
I5
F37.43619704246521
I10
F0.2109689712524414
F0.38996243476867676
g3
(g7
S'\x84\x82\xf1\xf6d\xcda>'
p741
tp742
Rp743
tp744
atp745
a(I17
I1800
(lp746
(g735
I5
F37.213967084884644
I10
F0.0
F0.00425410270690918
g3
(g7
S'\x99\x00\n\xbc\xf7\xfaY>'
p747
tp748
Rp749
tp750
a(g740
I5
F37.25680899620056
I10
F0.21289968490600586
F0.5826725959777832
g3
(g7
S'A*z\x97\xcf\xfbN>'
p751
tp752
Rp753
tp754
atp755
a(I18
I1800
(lp756
(S'sto-iht'
p757
I5
F37.46994400024414
I10
F0.0
F0.004590034484863281
g3
(g7
S'N\xd6-%\xa9t]>'
p758
tp759
Rp760
tp761
a(S'graph-sto-iht'
p762
I5
F38.01024389266968
I10
F0.23909449577331543
F0.34195709228515625
g3
(g7
S'm\xca\x92\xfc\x8134>'
p763
tp764
Rp765
tp766
atp767
a(I19
I1800
(lp768
(g757
I5
F37.64415907859802
I10
F0.0
F0.004360675811767578
g3
(g7
S'\xac\x01K\xbd\x12tX>'
p769
tp770
Rp771
tp772
a(g762
I5
F37.9295768737793
I10
F0.23430895805358887
F0.5484304428100586
g3
(g7
S'if\xe4v\xb4\xf93>'
p773
tp774
Rp775
tp776
atp777
a(I20
I1800
(lp778
(S'sto-iht'
p779
I5
F36.872133016586304
I10
F0.0
F0.004511117935180664
g3
(g7
S'i\xde#\x89AY1>'
p780
tp781
Rp782
tp783
a(S'graph-sto-iht'
p784
I4
F29.95991086959839
I8
F0.17054533958435059
F0.14365410804748535
g3
(g7
S'5T/\xae\xeaEo>'
p785
tp786
Rp787
tp788
atp789
a(I21
I1800
(lp790
(g779
I5
F36.77267384529114
I10
F0.0
F0.004725217819213867
g3
(g7
S'\xed\x083\x05\xfc;)>'
p791
tp792
Rp793
tp794
a(g784
I5
F37.43201494216919
I10
F0.23251891136169434
F0.5917272567749023
g3
(g7
S'\x8e!zr\xc3\x1b3>'
p795
tp796
Rp797
tp798
atp799
a(I22
I1800
(lp800
(S'sto-iht'
p801
I5
F36.9137909412384
I10
F0.0
F0.0043680667877197266
g3
(g7
S'\xa3\xb9)n>\xfda>'
p802
tp803
Rp804
tp805
a(S'graph-sto-iht'
p806
I5
F37.91937589645386
I10
F0.23531079292297363
F0.36287808418273926
g3
(g7
S'g\xbd\xfe\x1a\rdX>'
p807
tp808
Rp809
tp810
atp811
a(I23
I1800
(lp812
(g801
I5
F37.17957282066345
I10
F0.0
F0.004448890686035156
g3
(g7
S'\x9fX\xd6k\xce\xe2M>'
p813
tp814
Rp815
tp816
a(g806
I5
F37.20389008522034
I10
F0.22050690650939941
F0.2940840721130371
g3
(g7
S'\x02@?H\x94\x91<>'
p817
tp818
Rp819
tp820
atp821
a(I24
I1800
(lp822
(S'sto-iht'
p823
I5
F36.886197090148926
I10
F0.0
F0.004492998123168945
g3
(g7
S'\xd7\xb7z\\%|T>'
p824
tp825
Rp826
tp827
a(S'graph-sto-iht'
p828
I5
F37.52759385108948
I10
F0.21323180198669434
F0.21536517143249512
g3
(g7
S'\xc7\x0fP\x99\x08\x077>'
p829
tp830
Rp831
tp832
atp833
a(I25
I1800
(lp834
(g823
I5
F37.11255598068237
I10
F0.0
F0.004317045211791992
g3
(g7
S'go\xa3\xd2\xfd\x8ce>'
p835
tp836
Rp837
tp838
a(g828
I5
F36.931869983673096
I10
F0.21204185485839844
F0.2089531421661377
g3
(g7
S'\x88\xfff\xe65\xecV>'
p839
tp840
Rp841
tp842
atp843
a(I26
I1800
(lp844
(S'sto-iht'
p845
I5
F38.416983127593994
I10
F0.0
F0.0044667720794677734
g3
(g7
S';\xbd\x1a\xd1u\x06J>'
p846
tp847
Rp848
tp849
a(S'graph-sto-iht'
p850
I5
F39.171711921691895
I10
F0.23314809799194336
F0.5412261486053467
g3
(g7
S'N\xe2T8\xca|:>'
p851
tp852
Rp853
tp854
atp855
a(I27
I1800
(lp856
(g845
I5
F38.67753291130066
I10
F0.0
F0.004551887512207031
g3
(g7
S'\x9a\x89\xa9\x0c\x7f5?>'
p857
tp858
Rp859
tp860
a(g850
I5
F38.437361001968384
I10
F0.23288536071777344
F0.23792529106140137
g3
(g7
S'l\xe5\xb9N\xf5z8>'
p861
tp862
Rp863
tp864
atp865
a(I28
I1800
(lp866
(S'sto-iht'
p867
I5
F37.5860378742218
I10
F0.0
F0.0046689510345458984
g3
(g7
S'\x99)k\xc1\twJ>'
p868
tp869
Rp870
tp871
a(S'graph-sto-iht'
p872
I4
F30.710989952087402
I8
F0.17603468894958496
F0.2159595489501953
g3
(g7
S'3\xb1\x90\t(\xbay>'
p873
tp874
Rp875
tp876
atp877
a(I29
I1800
(lp878
(g867
I5
F37.96358799934387
I10
F0.0
F0.004270076751708984
g3
(g7
S'b\xa4 \xb7\xe2\xb3?>'
p879
tp880
Rp881
tp882
a(g872
I5
F38.18943786621094
I10
F0.22594428062438965
F0.3631401062011719
g3
(g7
S'\xb6\xddr}hN0>'
p883
tp884
Rp885
tp886
atp887
a(I30
I1800
(lp888
(S'sto-iht'
p889
I5
F37.83483386039734
I10
F0.0
F0.004251003265380859
g3
(g7
S'\xf9\x1a\x94\x06\xde\x81d>'
p890
tp891
Rp892
tp893
a(S'graph-sto-iht'
p894
I5
F38.62202000617981
I10
F0.25978994369506836
F0.6473507881164551
g3
(g7
S'N7\x84\xd4\xb6\xbaJ>'
p895
tp896
Rp897
tp898
atp899
a(I31
I1800
(lp900
(g889
I5
F37.78174304962158
I10
F0.0
F0.004381895065307617
g3
(g7
S'.8\x80\xf1\xba\xdc2>'
p901
tp902
Rp903
tp904
a(g894
I5
F37.496665954589844
I10
F0.2205963134765625
F0.18151378631591797
g3
(g7
S'\xd8Y\xdb\xe7GeF>'
p905
tp906
Rp907
tp908
atp909
a(I32
I1800
(lp910
(S'sto-iht'
p911
I5
F37.3790020942688
I10
F0.0
F0.004480123519897461
g3
(g7
S'*\xc26\xdd&\x0em>'
p912
tp913
Rp914
tp915
a(S'graph-sto-iht'
p916
I5
F38.195131063461304
I10
F0.22089242935180664
F0.6086552143096924
g3
(g7
S'Z\xc8m\xa2y\x96@>'
p917
tp918
Rp919
tp920
atp921
a(I33
I1800
(lp922
(g911
I5
F37.649982929229736
I10
F0.0
F0.0043659210205078125
g3
(g7
S'\xfdl\xe5]\xfe\xe7J>'
p923
tp924
Rp925
tp926
a(g916
I5
F37.70680618286133
I10
F0.22940301895141602
F0.5193121433258057
g3
(g7
S'w\xa21\x1a \xddO>'
p927
tp928
Rp929
tp930
atp931
a(I34
I1800
(lp932
(S'sto-iht'
p933
I5
F37.77153396606445
I10
F0.0
F0.0046863555908203125
g3
(g7
S'\x7f_\xa3+\x05\xffq>'
p934
tp935
Rp936
tp937
a(S'graph-sto-iht'
p938
I5
F38.49708390235901
I10
F0.22941350936889648
F0.37860965728759766
g3
(g7
S'bO&f9L\\>'
p939
tp940
Rp941
tp942
atp943
a(I35
I1800
(lp944
(g933
I5
F38.17860198020935
I10
F0.0
F0.004449605941772461
g3
(g7
S'\xa2\xb8-47JU>'
p945
tp946
Rp947
tp948
a(g938
I5
F38.05998420715332
I10
F0.22477364540100098
F0.34589314460754395
g3
(g7
S'~\x8e\xf9\x15_\xdbF>'
p949
tp950
Rp951
tp952
atp953
a(I36
I1800
(lp954
(S'sto-iht'
p955
I5
F38.4379780292511
I10
F0.0
F0.00448155403137207
g3
(g7
S'<\x96\x94p\x12\xb64>'
p956
tp957
Rp958
tp959
a(S'graph-sto-iht'
p960
I5
F39.05749797821045
I10
F0.23156499862670898
F0.29352593421936035
g3
(g7
S'\x01\x19~\xbbM\x80X>'
p961
tp962
Rp963
tp964
atp965
a(I37
I1800
(lp966
(g955
I5
F38.737677812576294
I10
F0.0
F0.004453897476196289
g3
(g7
S'\xc4\x9aS\xaa\xa8\xc4Q>'
p967
tp968
Rp969
tp970
a(g960
I5
F38.5324170589447
I10
F0.23131990432739258
F0.2261948585510254
g3
(g7
S'\x85\x11\xada\x04\xe2$>'
p971
tp972
Rp973
tp974
atp975
a(I38
I1800
(lp976
(S'sto-iht'
p977
I5
F37.86439800262451
I10
F0.0
F0.004682064056396484
g3
(g7
S'\xc1\xbc/\xb6\xa75R>'
p978
tp979
Rp980
tp981
a(S'graph-sto-iht'
p982
I5
F38.56279802322388
I10
F0.23691368103027344
F0.230302095413208
g3
(g7
S'\x80\xf2\x84p\xda\xdb*>'
p983
tp984
Rp985
tp986
atp987
a(I39
I1800
(lp988
(g977
I5
F38.11642789840698
I10
F0.0
F0.004312038421630859
g3
(g7
S'P,%\x93\xc5C[>'
p989
tp990
Rp991
tp992
a(g982
I5
F38.054388999938965
I10
F0.22296786308288574
F0.28480005264282227
g3
(g7
S'\xeb\xc0-\xc5\x8es3>'
p993
tp994
Rp995
tp996
atp997
a(I40
I1800
(lp998
(S'sto-iht'
p999
I5
F37.5689640045166
I10
F0.0
F0.004499197006225586
g3
(g7
S'\xeavs\xa7V\x91Q>'
p1000
tp1001
Rp1002
tp1003
a(S'graph-sto-iht'
p1004
I5
F38.195374965667725
I10
F0.21665596961975098
F0.32376885414123535
g3
(g7
S'\xca\xe1\x9a\xce\x11\x91">'
p1005
tp1006
Rp1007
tp1008
atp1009
a(I41
I1800
(lp1010
(g999
I5
F37.53969693183899
I10
F0.0
F0.004351615905761719
g3
(g7
S'~\xcf\x1a\xefp\xc8m>'
p1011
tp1012
Rp1013
tp1014
a(g1004
I5
F37.76309394836426
I10
F0.22739887237548828
F0.569586992263794
g3
(g7
S'\xc8@\x89\xb0{%D>'
p1015
tp1016
Rp1017
tp1018
atp1019
a(I42
I1800
(lp1020
(S'sto-iht'
p1021
I5
F36.562248945236206
I10
F0.0
F0.004529237747192383
g3
(g7
S'\xbe\xed\x84\xa3\xf1\xd70>'
p1022
tp1023
Rp1024
tp1025
a(S'graph-sto-iht'
p1026
I4
F29.743228912353516
I8
F0.17147064208984375
F0.18439888954162598
g3
(g7
S'=\xae\x10\xa8\xa4\xd5q>'
p1027
tp1028
Rp1029
tp1030
atp1031
a(I43
I1800
(lp1032
(g1021
I5
F36.5572829246521
I10
F0.0
F0.0043392181396484375
g3
(g7
S'\xab\xae\xf4\xbd?\xd4T>'
p1033
tp1034
Rp1035
tp1036
a(g1026
I5
F37.760303020477295
I10
F0.21306896209716797
F0.40961599349975586
g3
(g7
S'\xe7\x87>VQ]q>'
p1037
tp1038
Rp1039
tp1040
atp1041
a(I44
I1800
(lp1042
(S'sto-iht'
p1043
I5
F37.60054278373718
I10
F0.0
F0.004437923431396484
g3
(g7
S'>\x9c\xf7\xd3\xc5\xbd@>'
p1044
tp1045
Rp1046
tp1047
a(S'graph-sto-iht'
p1048
I5
F38.27328896522522
I10
F0.21788954734802246
F0.4112119674682617
g3
(g7
S'\x17h\x81\xe6\xe0\x06<>'
p1049
tp1050
Rp1051
tp1052
atp1053
a(I45
I1800
(lp1054
(g1043
I5
F37.58529806137085
I10
F0.0
F0.004370450973510742
g3
(g7
S'j\xc6\x1f\x14\x8c<J>'
p1055
tp1056
Rp1057
tp1058
a(g1048
I5
F37.56211590766907
I10
F0.22478675842285156
F0.19192171096801758
g3
(g7
S'\x80\xe2\xe0\x0f\xe6\x1e$>'
p1059
tp1060
Rp1061
tp1062
atp1063
a(I46
I1800
(lp1064
(S'sto-iht'
p1065
I6
F43.29312300682068
I12
F0.0
F0.005499362945556641
g3
(g7
S'h4d\xfb\x87\xf01>'
p1066
tp1067
Rp1068
tp1069
a(S'graph-sto-iht'
p1070
I5
F37.05465507507324
I10
F0.22632551193237305
F0.41698694229125977
g3
(g7
S'\xde\x1c<#\xdb\xe5r>'
p1071
tp1072
Rp1073
tp1074
atp1075
a(I47
I1800
(lp1076
(g1065
I5
F37.503660917282104
I10
F0.0
F0.004307985305786133
g3
(g7
S'\x15\x04\x85^\x08\x05d>'
p1077
tp1078
Rp1079
tp1080
a(g1070
I5
F37.25643801689148
I10
F0.2061295509338379
F0.15804624557495117
g3
(g7
S'\xc5\x8a\xc3dp\xc7@>'
p1081
tp1082
Rp1083
tp1084
atp1085
a(I48
I1800
(lp1086
(S'sto-iht'
p1087
I5
F38.24732804298401
I10
F0.0
F0.006167173385620117
g3
(g7
S"-\xb5`2'$J>"
p1088
tp1089
Rp1090
tp1091
a(S'graph-sto-iht'
p1092
I5
F38.18736290931702
I10
F0.2126760482788086
F0.3957507610321045
g3
(g7
S':gJN\xd6\x03">'
p1093
tp1094
Rp1095
tp1096
atp1097
a(I49
I1800
(lp1098
(g1087
I5
F38.21094012260437
I10
F0.0
F0.004330873489379883
g3
(g7
S'}6%\xf7\xfc\xc9E>'
p1099
tp1100
Rp1101
tp1102
a(g1092
I5
F38.15354895591736
I10
F0.22013115882873535
F0.4158194065093994
g3
(g7
S'S\x14\x94\x12\xc72O>'
p1103
tp1104
Rp1105
tp1106
atp1107
a(I0
I900
(lp1108
(S'sto-iht'
p1109
I8
F32.67320513725281
I32
F0.0
F0.010274171829223633
g3
(g7
S'\x89xA\x87\x92VT>'
p1110
tp1111
Rp1112
tp1113
a(S'graph-sto-iht'
p1114
I7
F29.623997926712036
I28
F0.3571133613586426
F0.4799058437347412
g3
(g7
S'\x00\xe1.a_\xa0t>'
p1115
tp1116
Rp1117
tp1118
atp1119
a(I1
I900
(lp1120
(g1109
I8
F32.94402194023132
I32
F0.0
F0.010292291641235352
g3
(g7
S'rb\x03\xe1[\x12O>'
p1121
tp1122
Rp1123
tp1124
a(g1114
I7
F29.570380926132202
I28
F0.33593034744262695
F0.2563667297363281
g3
(g7
S'\xf2\x00\x0bt\xdbex>'
p1125
tp1126
Rp1127
tp1128
atp1129
a(I2
I900
(lp1130
(S'sto-iht'
p1131
I8
F60.40277290344238
I32
F0.0
F0.013903379440307617
g3
(g7
S'\xe7\xd7-\xfa\xcd\xb0N>'
p1132
tp1133
Rp1134
tp1135
a(S'graph-sto-iht'
p1136
I8
F62.1036581993103
I32
F0.6019892692565918
F0.8330709934234619
g3
(g7
S'1H\xa55d\x9bL>'
p1137
tp1138
Rp1139
tp1140
atp1141
a(I3
I900
(lp1142
(g1131
I8
F60.59332299232483
I32
F0.0
F0.013857126235961914
g3
(g7
S")\xd4\x9a'\xc2\xaaW>"
p1143
tp1144
Rp1145
tp1146
a(g1136
I8
F42.87804985046387
I32
F0.4612860679626465
F0.8489763736724854
g3
(g7
S'$+\xfeZ\xeck`>'
p1147
tp1148
Rp1149
tp1150
atp1151
a(I4
I900
(lp1152
(S'sto-iht'
p1153
I8
F33.01396417617798
I32
F0.0
F0.01049947738647461
g3
(g7
S'p\x07\x84\x08\xdc\xd4J>'
p1154
tp1155
Rp1156
tp1157
a(S'graph-sto-iht'
p1158
I8
F34.22456192970276
I32
F0.4088246822357178
F0.6213860511779785
g3
(g7
S'\x8d\xeb;V\xdd|G>'
p1159
tp1160
Rp1161
tp1162
atp1163
a(I5
I900
(lp1164
(g1153
I8
F33.08292603492737
I32
F0.0
F0.010457754135131836
g3
(g7
S'\xeaIA\x1d?O]>'
p1165
tp1166
Rp1167
tp1168
a(g1158
I8
F60.69681406021118
I32
F0.6013729572296143
F0.38004517555236816
g3
(g7
S'\xd4\x13\x05)8\x98_>'
p1169
tp1170
Rp1171
tp1172
atp1173
a(I6
I900
(lp1174
(S'sto-iht'
p1175
I8
F62.14391303062439
I32
F0.0
F0.014117002487182617
g3
(g7
S'\xa77d\x82\x054P>'
p1176
tp1177
Rp1178
tp1179
a(S'graph-sto-iht'
p1180
I7
F55.209898948669434
I28
F0.5439925193786621
F0.5838577747344971
g3
(g7
S'>\xe1\x1d,-\x8bx>'
p1181
tp1182
Rp1183
tp1184
atp1185
a(I7
I900
(lp1186
(g1175
I8
F62.84923315048218
I32
F0.0
F0.01388406753540039
g3
(g7
S'\x85\x1d\x1ds\xb7rJ>'
p1187
tp1188
Rp1189
tp1190
a(g1180
I8
F62.894761085510254
I32
F0.6115210056304932
F0.532470703125
g3
(g7
S'\x96\xe2_\xc0\xb5\xd9L>'
p1191
tp1192
Rp1193
tp1194
atp1195
a(I8
I900
(lp1196
(S'sto-iht'
p1197
I8
F60.65388011932373
I32
F0.0
F0.013900995254516602
g3
(g7
S"\xda\x89\x17\x03'yP>"
p1198
tp1199
Rp1200
tp1201
a(S'graph-sto-iht'
p1202
I7
F54.15206480026245
I28
F0.5705389976501465
F0.5348961353302002
g3
(g7
S'\x95\xb8l\x15\x8f j>'
p1203
tp1204
Rp1205
tp1206
atp1207
a(I9
I900
(lp1208
(g1197
I8
F39.92512917518616
I32
F0.0
F0.010988473892211914
g3
(g7
S'\x0b\x83\xd3\x0f`{Y>'
p1209
tp1210
Rp1211
tp1212
a(g1202
I8
F54.84840106964111
I32
F0.5646016597747803
F0.47338390350341797
g3
(g7
S'\xcd\xf3BN\xdd\xa3S>'
p1213
tp1214
Rp1215
tp1216
atp1217
a(I10
I900
(lp1218
(S'sto-iht'
p1219
I8
F32.77392387390137
I32
F0.0
F0.010543107986450195
g3
(g7
S'\x13J\xd3\x8ct\xd4V>'
p1220
tp1221
Rp1222
tp1223
a(S'graph-sto-iht'
p1224
I8
F34.0131139755249
I32
F0.39075803756713867
F0.8535566329956055
g3
(g7
S'<\xf4}&#\xfeY>'
p1225
tp1226
Rp1227
tp1228
atp1229
a(I11
I900
(lp1230
(g1219
I8
F32.8141450881958
I32
F0.0
F0.010400772094726562
g3
(g7
S'\x9a_8|\x16\x12H>'
p1231
tp1232
Rp1233
tp1234
a(g1224
I7
F30.19895887374878
I28
F0.3610851764678955
F0.511070728302002
g3
(g7
S'\x90\x95\t\x11aSy>'
p1235
tp1236
Rp1237
tp1238
atp1239
a(I12
I900
(lp1240
(S'sto-iht'
p1241
I7
F54.336743116378784
I28
F0.0
F0.012267827987670898
g3
(g7
S'\xc3\xd4~\xc0\x8e\x04|>'
p1242
tp1243
Rp1244
tp1245
a(S'graph-sto-iht'
p1246
I8
F62.84069800376892
I32
F0.6208691596984863
F0.596482515335083
g3
(g7
S'\xda\x1cs\x9f\xc9UH>'
p1247
tp1248
Rp1249
tp1250
atp1251
a(I13
I900
(lp1252
(g1241
I8
F63.23004198074341
I32
F0.0
F0.014585256576538086
g3
(g7
S'\x14\xe2z-\xac\x1eb>'
p1253
tp1254
Rp1255
tp1256
a(g1246
I8
F63.97658085823059
I32
F0.6444730758666992
F1.1376402378082275
g3
(g7
S'\xadU\x04\x8b\xf60_>'
p1257
tp1258
Rp1259
tp1260
atp1261
a(I14
I900
(lp1262
(S'sto-iht'
p1263
I8
F32.830666065216064
I32
F0.0
F0.010658740997314453
g3
(g7
S'\x1d\xe2\r*\xd7pO>'
p1264
tp1265
Rp1266
tp1267
a(S'graph-sto-iht'
p1268
I7
F29.563812017440796
I28
F0.35755062103271484
F0.33520030975341797
g3
(g7
S'5x\xe9\xb73\x15z>'
p1269
tp1270
Rp1271
tp1272
atp1273
a(I15
I900
(lp1274
(g1263
I8
F32.883580923080444
I32
F0.0
F0.010635614395141602
g3
(g7
S'm#\x11w\xad6L>'
p1275
tp1276
Rp1277
tp1278
a(g1268
I8
F45.60335302352905
I32
F0.48592185974121094
F0.4533650875091553
g3
(g7
S'\xff\x02\x80\x0f\x8b\xe9E>'
p1279
tp1280
Rp1281
tp1282
atp1283
a(I16
I900
(lp1284
(S'sto-iht'
p1285
I8
F33.21025800704956
I32
F0.0
F0.01069951057434082
g3
(g7
S'\xbf\xe4$"\xaaaK>'
p1286
tp1287
Rp1288
tp1289
a(S'graph-sto-iht'
p1290
I8
F33.94756102561951
I32
F0.39926981925964355
F0.48218226432800293
g3
(g7
S'l\x8a^D\t\x95R>'
p1291
tp1292
Rp1293
tp1294
atp1295
a(I17
I900
(lp1296
(g1285
I8
F33.10094904899597
I32
F0.0
F0.010692119598388672
g3
(g7
S'k\xfa\x93\x9b\xbcNW>'
p1297
tp1298
Rp1299
tp1300
a(g1290
I8
F43.588178873062134
I32
F0.48564958572387695
F0.8608925342559814
g3
(g7
S'\x87\x86\xc7\x97%fR>'
p1301
tp1302
Rp1303
tp1304
atp1305
a(I18
I900
(lp1306
(S'sto-iht'
p1307
I8
F60.56300210952759
I32
F0.0
F0.013709068298339844
g3
(g7
S'a\x85\xfa\xc3D<c>'
p1308
tp1309
Rp1310
tp1311
a(S'graph-sto-iht'
p1312
I8
F61.88773202896118
I32
F0.6119208335876465
F1.064168930053711
g3
(g7
S'\x01\x90,$\x03\x7fJ>'
p1313
tp1314
Rp1315
tp1316
atp1317
a(I19
I900
(lp1318
(g1307
I8
F61.8327910900116
I32
F0.0
F0.013570785522460938
g3
(g7
S'\x89\xa2 F\xa0\x16M>'
p1319
tp1320
Rp1321
tp1322
a(g1312
I8
F62.82739806175232
I32
F0.6397325992584229
F1.3598408699035645
g3
(g7
S'\x929\xfd\xb8b\x07S>'
p1323
tp1324
Rp1325
tp1326
atp1327
a(I20
I900
(lp1328
(S'sto-iht'
p1329
I7
F53.55919098854065
I28
F0.0
F0.011786699295043945
g3
(g7
S'<\xe8\xc6v\x81\x1bd>'
p1330
tp1331
Rp1332
tp1333
a(S'graph-sto-iht'
p1334
I7
F54.153218030929565
I28
F0.5158553123474121
F0.515841007232666
g3
(g7
S'\xae\xc7\x0cmx\x1a`>'
p1335
tp1336
Rp1337
tp1338
atp1339
a(I21
I900
(lp1340
(g1329
I8
F60.73436188697815
I32
F0.0
F0.01362299919128418
g3
(g7
S'\x17\x1bA\xd81\x15S>'
p1341
tp1342
Rp1343
tp1344
a(g1334
I8
F62.31147813796997
I32
F0.6009595394134521
F0.7723901271820068
g3
(g7
S'\x98\xb0H\x82\xa8]O>'
p1345
tp1346
Rp1347
tp1348
atp1349
a(I22
I900
(lp1350
(S'sto-iht'
p1351
I8
F60.45206618309021
I32
F0.0
F0.014314889907836914
g3
(g7
S':\xd4)\xa5H\xcfL>'
p1352
tp1353
Rp1354
tp1355
a(S'graph-sto-iht'
p1356
I7
F53.885026931762695
I28
F0.5401356220245361
F0.6616723537445068
g3
(g7
S'nU\xe6~E\xa6t>'
p1357
tp1358
Rp1359
tp1360
atp1361
a(I23
I900
(lp1362
(g1351
I8
F61.10846400260925
I32
F0.0
F0.014137506484985352
g3
(g7
S'\x04\xcaH\x9fsHK>'
p1363
tp1364
Rp1365
tp1366
a(g1356
I8
F62.91522812843323
I32
F0.6332540512084961
F1.5504469871520996
g3
(g7
S'\xa0\x95\xd2\xb3\x9eAH>'
p1367
tp1368
Rp1369
tp1370
atp1371
a(I24
I900
(lp1372
(S'sto-iht'
p1373
I8
F60.93054914474487
I32
F0.0
F0.01395416259765625
g3
(g7
S'\x00\x11\xe5\xaafg[>'
p1374
tp1375
Rp1376
tp1377
a(S'graph-sto-iht'
p1378
I8
F62.391637086868286
I32
F0.6183156967163086
F1.4201748371124268
g3
(g7
S'\xf5/\xbe<\x89\x1fG>'
p1379
tp1380
Rp1381
tp1382
atp1383
a(I25
I900
(lp1384
(g1373
I8
F61.678422927856445
I32
F0.0
F0.013945341110229492
g3
(g7
S'\xb3\x1d\x0c\xf3\x15\x9fX>'
p1385
tp1386
Rp1387
tp1388
a(g1378
I8
F62.23768091201782
I32
F0.6324529647827148
F1.1967766284942627
g3
(g7
S"\xe7\x9d\xd5\xad'\x99\\>"
p1389
tp1390
Rp1391
tp1392
atp1393
a(I26
I900
(lp1394
(S'sto-iht'
p1395
I7
F53.27197003364563
I28
F0.0
F0.012099027633666992
g3
(g7
S'\xaf\xd2K\x9cp\x9er>'
p1396
tp1397
Rp1398
tp1399
a(S'graph-sto-iht'
p1400
I7
F54.229766845703125
I28
F0.5211858749389648
F0.6773529052734375
g3
(g7
S'\xee\x924\xeagxu>'
p1401
tp1402
Rp1403
tp1404
atp1405
a(I27
I900
(lp1406
(g1395
I8
F61.548118114471436
I32
F0.0
F0.013822078704833984
g3
(g7
S'\xd0\x84\x1a]\t\xd2J>'
p1407
tp1408
Rp1409
tp1410
a(g1400
I8
F64.26996803283691
I32
F0.6352269649505615
F0.960040807723999
g3
(g7
S'\x04]i?\xb7\xedQ>'
p1411
tp1412
Rp1413
tp1414
atp1415
a(I28
I900
(lp1416
(S'sto-iht'
p1417
I8
F60.36225914955139
I32
F0.0
F0.013651847839355469
g3
(g7
S'\xe9\x1e\xa4I:\xe9X>'
p1418
tp1419
Rp1420
tp1421
a(S'graph-sto-iht'
p1422
I8
F62.381980895996094
I32
F0.5976965427398682
F0.884077787399292
g3
(g7
S'\x8f<l\xfe\xae@W>'
p1423
tp1424
Rp1425
tp1426
atp1427
a(I29
I900
(lp1428
(g1417
I7
F53.261577129364014
I28
F0.0
F0.011867046356201172
g3
(g7
S'a\xe8\xcb\x0f\xe8Uw>'
p1429
tp1430
Rp1431
tp1432
a(g1422
I7
F54.403656005859375
I28
F0.5252871513366699
F0.5347938537597656
g3
(g7
S'\xea\xccI\xf7\x0c\xf8h>'
p1433
tp1434
Rp1435
tp1436
atp1437
a(I30
I900
(lp1438
(S'sto-iht'
p1439
I8
F60.881250858306885
I32
F0.0
F0.014017581939697266
g3
(g7
S's\x81\xf0}r\xcbP>'
p1440
tp1441
Rp1442
tp1443
a(S'graph-sto-iht'
p1444
I8
F57.2138090133667
I32
F0.5603888034820557
F0.8516826629638672
g3
(g7
S'\xd7\x1b\x08\xb04\x87N>'
p1445
tp1446
Rp1447
tp1448
atp1449
a(I31
I900
(lp1450
(g1439
I8
F60.12292194366455
I32
F0.0
F0.013638496398925781
g3
(g7
S'i\x19h\x03\xeb\xc9e>'
p1451
tp1452
Rp1453
tp1454
a(g1444
I8
F63.48463201522827
I32
F0.6270730495452881
F1.5247328281402588
g3
(g7
S'\x99,%\x0f\x8a\xed\\>'
p1455
tp1456
Rp1457
tp1458
atp1459
a(I32
I900
(lp1460
(S'sto-iht'
p1461
I8
F61.11330199241638
I32
F0.0
F0.014020204544067383
g3
(g7
S'O\xf1\xac \x97 K>'
p1462
tp1463
Rp1464
tp1465
a(S'graph-sto-iht'
p1466
I8
F48.086052894592285
I32
F0.4911305904388428
F0.5902204513549805
g3
(g7
S'\xcb\xa3\xcc\xbb\xc5\x8cS>'
p1467
tp1468
Rp1469
tp1470
atp1471
a(I33
I900
(lp1472
(g1461
I8
F61.86194705963135
I32
F0.0
F0.01393890380859375
g3
(g7
S'B\x10\x12\x91\x93\\c>'
p1473
tp1474
Rp1475
tp1476
a(g1466
I8
F62.58630394935608
I32
F0.618980884552002
F0.7644965648651123
g3
(g7
S'\xa6IL>\x0czV>'
p1477
tp1478
Rp1479
tp1480
atp1481
a(I34
I900
(lp1482
(S'sto-iht'
p1483
I8
F61.320515871047974
I32
F0.0
F0.014738082885742188
g3
(g7
S'\xa1[\xc4\xd6\x828]>'
p1484
tp1485
Rp1486
tp1487
a(S'graph-sto-iht'
p1488
I8
F60.74327301979065
I32
F0.6017847061157227
F0.5957677364349365
g3
(g7
S'\x96\x85\xf2J(\x14\\>'
p1489
tp1490
Rp1491
tp1492
atp1493
a(I35
I900
(lp1494
(g1483
I8
F48.48485612869263
I32
F0.0
F0.012195110321044922
g3
(g7
S'\x12\x8a\xb9\xae>{r>'
p1495
tp1496
Rp1497
tp1498
a(g1488
I8
F63.88558602333069
I32
F0.6564321517944336
F0.8388612270355225
g3
(g7
S'\x8e\xf1\xf7\xeb\xad\x92k>'
p1499
tp1500
Rp1501
tp1502
atp1503
a(I36
I900
(lp1504
(S'sto-iht'
p1505
I8
F61.30059599876404
I32
F0.0
F0.01389312744140625
g3
(g7
S'\xa7+\x9a\xd5\x1fTp>'
p1506
tp1507
Rp1508
tp1509
a(S'graph-sto-iht'
p1510
I8
F62.374284982681274
I32
F0.6042461395263672
F1.3221817016601562
g3
(g7
S')G\x13\xa3%gP>'
p1511
tp1512
Rp1513
tp1514
atp1515
a(I37
I900
(lp1516
(g1505
I8
F54.576171875
I32
F0.0
F0.012787103652954102
g3
(g7
S'=\xa5\xcd\x9dM\xd9K>'
p1517
tp1518
Rp1519
tp1520
a(g1510
I7
F55.99389100074768
I28
F0.5698103904724121
F0.987767219543457
g3
(g7
S'\xd0_\xb7\xa4NYw>'
p1521
tp1522
Rp1523
tp1524
atp1525
a(I38
I900
(lp1526
(S'sto-iht'
p1527
I8
F61.53387808799744
I32
F0.0
F0.013840913772583008
g3
(g7
S'<\xb0\x14\xcb\xfa\xa0O>'
p1528
tp1529
Rp1530
tp1531
a(S'graph-sto-iht'
p1532
I8
F55.45295786857605
I32
F0.5551135540008545
F0.9087820053100586
g3
(g7
S'\xe3\xd6\xea/\x01\x8aI>'
p1533
tp1534
Rp1535
tp1536
atp1537
a(I39
I900
(lp1538
(g1527
I7
F38.16504883766174
I28
F0.0
F0.010163545608520508
g3
(g7
S'D\xee\xe8a\x9c\x15x>'
p1539
tp1540
Rp1541
tp1542
a(g1532
I7
F29.73103404045105
I28
F0.36770129203796387
F0.39151883125305176
g3
(g7
S'\x8f\xc1e\x9dn_s>'
p1543
tp1544
Rp1545
tp1546
atp1547
a(I40
I900
(lp1548
(S'sto-iht'
p1549
I8
F62.70266795158386
I32
F0.0
F0.013910770416259766
g3
(g7
S'l\xc2{8\xc0\x7fR>'
p1550
tp1551
Rp1552
tp1553
a(S'graph-sto-iht'
p1554
I8
F63.01936411857605
I32
F0.6320822238922119
F0.7746632099151611
g3
(g7
S'#\xe4\xc1{J<D>'
p1555
tp1556
Rp1557
tp1558
atp1559
a(I41
I900
(lp1560
(g1549
I8
F62.701475858688354
I32
F0.0
F0.014194726943969727
g3
(g7
S'\xfa\x8a+\x14\xab\x89P>'
p1561
tp1562
Rp1563
tp1564
a(g1554
I8
F61.60146403312683
I32
F0.5810656547546387
F1.2933144569396973
g3
(g7
S'\xca\xcf\xf8!\x11\xddP>'
p1565
tp1566
Rp1567
tp1568
atp1569
a(I42
I900
(lp1570
(S'sto-iht'
p1571
I8
F61.484598875045776
I32
F0.0
F0.013878583908081055
g3
(g7
S'\x96\xfe\x19\xbco5S>'
p1572
tp1573
Rp1574
tp1575
a(S'graph-sto-iht'
p1576
I8
F62.35302519798279
I32
F0.6008656024932861
F0.6722590923309326
g3
(g7
S'\x8bX\xebx\x10\xbcP>'
p1577
tp1578
Rp1579
tp1580
atp1581
a(I43
I900
(lp1582
(g1571
I8
F62.51526594161987
I32
F0.0
F0.01374506950378418
g3
(g7
S'\x1a\xe7\xba\x92\xae\xe9I>'
p1583
tp1584
Rp1585
tp1586
a(g1576
I8
F62.677831172943115
I32
F0.6220202445983887
F0.7044003009796143
g3
(g7
S'iC\xee5dLH>'
p1587
tp1588
Rp1589
tp1590
atp1591
a(I44
I900
(lp1592
(S'sto-iht'
p1593
I8
F60.5947790145874
I32
F0.0
F0.013771533966064453
g3
(g7
S'\xf99\xeeJ\x9e\xa9D>'
p1594
tp1595
Rp1596
tp1597
a(S'graph-sto-iht'
p1598
I7
F53.88842797279358
I28
F0.5267314910888672
F0.6357238292694092
g3
(g7
S'l\x88\xe7\xb7\xf9\x07u>'
p1599
tp1600
Rp1601
tp1602
atp1603
a(I45
I900
(lp1604
(g1593
I7
F54.06740093231201
I28
F0.0
F0.011986732482910156
g3
(g7
S'\xab\xcb\xcf\x10 kw>'
p1605
tp1606
Rp1607
tp1608
a(g1598
I8
F62.21365690231323
I32
F0.6314284801483154
F0.8415660858154297
g3
(g7
S'L5\xe0\x12"IR>'
p1609
tp1610
Rp1611
tp1612
atp1613
a(I46
I900
(lp1614
(S'sto-iht'
p1615
I8
F62.144684076309204
I32
F0.0
F0.014028549194335938
g3
(g7
S'r]<\x9c\xec5R>'
p1616
tp1617
Rp1618
tp1619
a(S'graph-sto-iht'
p1620
I8
F63.54986310005188
I32
F0.6031317710876465
F1.0430846214294434
g3
(g7
S' z\xd1\x04H\x87`>'
p1621
tp1622
Rp1623
tp1624
atp1625
a(I47
I900
(lp1626
(g1615
I8
F63.20611000061035
I32
F0.0
F0.013747215270996094
g3
(g7
S'\x91\x84\xa0v\x13\xfdG>'
p1627
tp1628
Rp1629
tp1630
a(g1620
I7
F56.56598711013794
I28
F0.5463662147521973
F1.3396081924438477
g3
(g7
S"\xdeb\xef\xbc':v>"
p1631
tp1632
Rp1633
tp1634
atp1635
a(I48
I900
(lp1636
(S'sto-iht'
p1637
I8
F62.73951077461243
I32
F0.0
F0.014074563980102539
g3
(g7
S'i\xc7-\xba5\x8eP>'
p1638
tp1639
Rp1640
tp1641
a(S'graph-sto-iht'
p1642
I7
F55.734044790267944
I28
F0.5375494956970215
F1.0484392642974854
g3
(g7
S'\xba\xb1K\x83\x84\xd0s>'
p1643
tp1644
Rp1645
tp1646
atp1647
a(I49
I900
(lp1648
(g1637
I8
F62.93513607978821
I32
F0.0
F0.01438450813293457
g3
(g7
S'7\xa4\x13\x83A2H>'
p1649
tp1650
Rp1651
tp1652
a(g1642
I7
F56.50712585449219
I28
F0.571570634841919
F0.9441497325897217
g3
(g7
S'\xb47#,C\x81w>'
p1653
tp1654
Rp1655
tp1656
atp1657
a(I0
I450
(lp1658
(S'sto-iht'
p1659
I9
F74.31668090820312
I72
F0.0
F0.03142690658569336
g3
(g7
S'\x1dr\xfd\xbf@\x8cU>'
p1660
tp1661
Rp1662
tp1663
a(S'graph-sto-iht'
p1664
I9
F76.04986596107483
I72
F1.3648991584777832
F2.1535866260528564
g3
(g7
S'y\x13\x85V\xfcrc>'
p1665
tp1666
Rp1667
tp1668
atp1669
a(I1
I450
(lp1670
(g1659
I9
F72.30442214012146
I72
F0.0
F0.0309295654296875
g3
(g7
S'\xebA\xa6\x0e\xd9jc>'
p1671
tp1672
Rp1673
tp1674
a(g1664
I9
F75.32296586036682
I72
F1.4995412826538086
F1.9247369766235352
g3
(g7
S'\xeb@\xf7\xbf\xa4\xa8_>'
p1675
tp1676
Rp1677
tp1678
atp1679
a(I2
I450
(lp1680
(S'sto-iht'
p1681
I9
F73.53927087783813
I72
F0.0
F0.03211092948913574
g3
(g7
S'\xd5k6\xfb\xbate>'
p1682
tp1683
Rp1684
tp1685
a(S'graph-sto-iht'
p1686
I9
F70.1434760093689
I72
F1.317838430404663
F2.183824062347412
g3
(g7
S'\xcf\x96C\x9f\x0e1Z>'
p1687
tp1688
Rp1689
tp1690
atp1691
a(I3
I450
(lp1692
(g1681
I9
F73.51485991477966
I72
F0.0
F0.032181501388549805
g3
(g7
S'\x16\x0f\x02\x05\xc4%h>'
p1693
tp1694
Rp1695
tp1696
a(g1686
I9
F78.08866000175476
I72
F1.4214532375335693
F2.4201838970184326
g3
(g7
S'x\x866\x9e*=e>'
p1697
tp1698
Rp1699
tp1700
atp1701
a(I4
I450
(lp1702
(S'sto-iht'
p1703
I9
F72.57831907272339
I72
F0.0
F0.030732154846191406
g3
(g7
S'\xa1\xdc\x05\x02\x16\x97b>'
p1704
tp1705
Rp1706
tp1707
a(S'graph-sto-iht'
p1708
I9
F76.26908683776855
I72
F1.361682653427124
F3.372250556945801
g3
(g7
S'-6(i\xd7\xeeb>'
p1709
tp1710
Rp1711
tp1712
atp1713
a(I5
I450
(lp1714
(g1703
I10
F70.40850496292114
I80
F0.0
F0.03180527687072754
g3
(g7
S'\xaa\xb9I\x14F\xacU>'
p1715
tp1716
Rp1717
tp1718
a(g1708
I9
F75.89838099479675
I72
F1.4064958095550537
F2.5553276538848877
g3
(g7
S'}\xce\xcd\xcdD\x81k>'
p1719
tp1720
Rp1721
tp1722
atp1723
a(I6
I450
(lp1724
(S'sto-iht'
p1725
I9
F73.53430008888245
I72
F0.0
F0.032198429107666016
g3
(g7
S'\xc8\xb6\xe2\x06\xeb2e>'
p1726
tp1727
Rp1728
tp1729
a(S'graph-sto-iht'
p1730
I9
F77.85290288925171
I72
F1.4115674495697021
F3.00116229057312
g3
(g7
S'\xd9\xb6~8\xb8\xc2d>'
p1731
tp1732
Rp1733
tp1734
atp1735
a(I7
I450
(lp1736
(g1725
I9
F73.62215614318848
I72
F0.0
F0.03199291229248047
g3
(g7
S'\x8f\x13\xa3m\xed\x1ct>'
p1737
tp1738
Rp1739
tp1740
a(g1730
I9
F76.33006501197815
I72
F1.4397101402282715
F2.0147674083709717
g3
(g7
S'\x82I/\x17B\x03l>'
p1741
tp1742
Rp1743
tp1744
atp1745
a(I8
I450
(lp1746
(S'sto-iht'
p1747
I9
F73.07022309303284
I72
F0.0
F0.0317533016204834
g3
(g7
S'\xd1\x0fv\xb4\xc4\xdcr>'
p1748
tp1749
Rp1750
tp1751
a(S'graph-sto-iht'
p1752
I9
F76.80686211585999
I72
F1.4166016578674316
F2.2044694423675537
g3
(g7
S' \xc2\xeb\xad\xe7\x9d]>'
p1753
tp1754
Rp1755
tp1756
atp1757
a(I9
I450
(lp1758
(g1747
I9
F73.50963521003723
I72
F0.0
F0.03178668022155762
g3
(g7
S'm\xe2\x04Nw\x89k>'
p1759
tp1760
Rp1761
tp1762
a(g1752
I9
F77.00039386749268
I72
F1.4392526149749756
F2.2450103759765625
g3
(g7
S'1]\xa0l\xc7\x8fq>'
p1763
tp1764
Rp1765
tp1766
atp1767
a(I10
I450
(lp1768
(S'sto-iht'
p1769
I9
F71.81563901901245
I72
F0.0
F0.03126692771911621
g3
(g7
S'p\xef\x84\xd4X\x8dk>'
p1770
tp1771
Rp1772
tp1773
a(S'graph-sto-iht'
p1774
I9
F75.65715599060059
I72
F1.3528189659118652
F2.777996301651001
g3
(g7
S'w\x8bp\x95\x0c\x19b>'
p1775
tp1776
Rp1777
tp1778
atp1779
a(I11
I450
(lp1780
(g1769
I9
F72.87230896949768
I72
F0.0
F0.031455278396606445
g3
(g7
S'\xbep\xbf#|Aj>'
p1781
tp1782
Rp1783
tp1784
a(g1774
I8
F65.90784692764282
I64
F1.2583818435668945
F1.5107920169830322
g3
(g7
S'A\x91`I\xf6\xe9{>'
p1785
tp1786
Rp1787
tp1788
atp1789
a(I12
I450
(lp1790
(S'sto-iht'
p1791
I9
F39.074984073638916
I72
F0.0
F0.022680997848510742
g3
(g7
S'\x93M\xf8\xa8\x9btf>'
p1792
tp1793
Rp1794
tp1795
a(S'graph-sto-iht'
p1796
I9
F62.83639693260193
I72
F1.1991033554077148
F2.796781301498413
g3
(g7
S'\xf4g\xd4\xc9\xa4Wb>'
p1797
tp1798
Rp1799
tp1800
atp1801
a(I13
I450
(lp1802
(g1791
I9
F71.51238298416138
I72
F0.0
F0.03054189682006836
g3
(g7
S'XO-z\xf1\xaaa>'
p1803
tp1804
Rp1805
tp1806
a(g1796
I9
F75.41976499557495
I72
F1.4688212871551514
F2.388885259628296
g3
(g7
S'\x9bdg\xe6^\x94\\>'
p1807
tp1808
Rp1809
tp1810
atp1811
a(I14
I450
(lp1812
(S'sto-iht'
p1813
I8
F61.69210505485535
I64
F0.0
F0.028126001358032227
g3
(g7
S'\xab\xb7\xf8\x1f\xfe8u>'
p1814
tp1815
Rp1816
tp1817
a(S'graph-sto-iht'
p1818
I8
F37.492851972579956
I64
F0.8657402992248535
F1.5976359844207764
g3
(g7
S"\x1a\xce\x1c\x84':v>"
p1819
tp1820
Rp1821
tp1822
atp1823
a(I15
I450
(lp1824
(g1813
I9
F39.35944700241089
I72
F0.0
F0.024129152297973633
g3
(g7
S'e\x81\xf9!\xaa\xf7k>'
p1825
tp1826
Rp1827
tp1828
a(g1818
I9
F70.01242804527283
I72
F1.3673725128173828
F2.3156204223632812
g3
(g7
S'\x80\x1e\x8f\x02\x89Sc>'
p1829
tp1830
Rp1831
tp1832
atp1833
a(I16
I450
(lp1834
(S'sto-iht'
p1835
I9
F71.118980884552
I72
F0.0
F0.031227827072143555
g3
(g7
S'%\x91\xa3\\\x1b\x9fe>'
p1836
tp1837
Rp1838
tp1839
a(S'graph-sto-iht'
p1840
I9
F74.39952492713928
I72
F1.3769052028656006
F2.2777671813964844
g3
(g7
S'W1 \xfe$\xb9U>'
p1841
tp1842
Rp1843
tp1844
atp1845
a(I17
I450
(lp1846
(g1835
I9
F62.700767993927
I72
F0.0
F0.028261899948120117
g3
(g7
S'\x13\xab\x81\xf1\x96SZ>'
p1847
tp1848
Rp1849
tp1850
a(g1840
I9
F59.871663093566895
I72
F1.1017634868621826
F1.858668327331543
g3
(g7
S'?}\xf0\x022![>'
p1851
tp1852
Rp1853
tp1854
atp1855
a(I18
I450
(lp1856
(S'sto-iht'
p1857
I9
F73.1926109790802
I72
F0.0
F0.031355857849121094
g3
(g7
S"\xc7V$+p'd>"
p1858
tp1859
Rp1860
tp1861
a(S'graph-sto-iht'
p1862
I9
F76.89461207389832
I72
F1.4429600238800049
F2.369589328765869
g3
(g7
S'\xf6\x16\xef\xc5\x94\xeaQ>'
p1863
tp1864
Rp1865
tp1866
atp1867
a(I19
I450
(lp1868
(g1857
I9
F73.50915312767029
I72
F0.0
F0.031555891036987305
g3
(g7
S"\x0co'\x81N\xddw>"
p1869
tp1870
Rp1871
tp1872
a(g1862
I9
F50.99069881439209
I72
F0.9836471080780029
F1.837141513824463
g3
(g7
S'\xc6V\x8c\xa9\x0b\xbep>'
p1873
tp1874
Rp1875
tp1876
atp1877
a(I20
I450
(lp1878
(S'sto-iht'
p1879
I9
F71.5310230255127
I72
F0.0
F0.03049755096435547
g3
(g7
S'\xc5\x1f6\xe7\xa2\t`>'
p1880
tp1881
Rp1882
tp1883
a(S'graph-sto-iht'
p1884
I9
F76.09301710128784
I72
F1.4376320838928223
F2.3406434059143066
g3
(g7
S'a\xe4\x9a\xc7\xf2\xb2d>'
p1885
tp1886
Rp1887
tp1888
atp1889
a(I21
I450
(lp1890
(g1879
I9
F62.96588492393494
I72
F0.0
F0.028397083282470703
g3
(g7
S'\xdc\xfc\x18\x10^wl>'
p1891
tp1892
Rp1893
tp1894
a(g1884
I9
F40.27745604515076
I72
F0.8174664974212646
F1.2921042442321777
g3
(g7
S'\xe0g\xc9\x86Q\xe5Q>'
p1895
tp1896
Rp1897
tp1898
atp1899
a(I22
I450
(lp1900
(S'sto-iht'
p1901
I9
F38.84124684333801
I72
F0.0
F0.023322105407714844
g3
(g7
S'\xa5\xaej\x01\x92\xd4f>'
p1902
tp1903
Rp1904
tp1905
a(S'graph-sto-iht'
p1906
I9
F40.538132190704346
I72
F0.9194068908691406
F0.7941756248474121
g3
(g7
S'\xd94\xda\xfc\xf2\x94N>'
p1907
tp1908
Rp1909
tp1910
atp1911
a(I23
I450
(lp1912
(g1901
I9
F38.81950497627258
I72
F0.0
F0.02329874038696289
g3
(g7
S'\xec4s\xael?j>'
p1913
tp1914
Rp1915
tp1916
a(g1906
I9
F40.78964805603027
I72
F0.8861379623413086
F1.0449409484863281
g3
(g7
S'N\x11\xbc\x1coFe>'
p1917
tp1918
Rp1919
tp1920
atp1921
a(I24
I450
(lp1922
(S'sto-iht'
p1923
I9
F71.19549107551575
I72
F0.0
F0.03035759925842285
g3
(g7
S'$+m\xed\x1b\x7fW>'
p1924
tp1925
Rp1926
tp1927
a(S'graph-sto-iht'
p1928
I9
F73.3357949256897
I72
F1.4035751819610596
F1.3622729778289795
g3
(g7
S'\xc9\nfs\r\x14N>'
p1929
tp1930
Rp1931
tp1932
atp1933
a(I25
I450
(lp1934
(g1923
I9
F71.81450200080872
I72
F0.0
F0.030320167541503906
g3
(g7
S'\xb6TNK\x03\x84p>'
p1935
tp1936
Rp1937
tp1938
a(g1928
I9
F51.448026180267334
I72
F0.9504718780517578
F1.828625202178955
g3
(g7
S'\xcb\xbe(\x05h\x98O>'
p1939
tp1940
Rp1941
tp1942
atp1943
a(I26
I450
(lp1944
(S'sto-iht'
p1945
I9
F74.00166702270508
I72
F0.0
F0.03213858604431152
g3
(g7
S'-\xfb&\xccHau>'
p1946
tp1947
Rp1948
tp1949
a(S'graph-sto-iht'
p1950
I9
F64.68005681037903
I72
F1.2228271961212158
F2.2227981090545654
g3
(g7
S'x\xc0]\x84vSa>'
p1951
tp1952
Rp1953
tp1954
atp1955
a(I27
I450
(lp1956
(g1945
I9
F59.29509902000427
I72
F0.0
F0.027836084365844727
g3
(g7
S'V\xdejW\x13\rO>'
p1957
tp1958
Rp1959
tp1960
a(g1950
I8
F65.10517382621765
I64
F1.1980745792388916
F1.4513001441955566
g3
(g7
S'\xa3\x88\xa5u\x92,s>'
p1961
tp1962
Rp1963
tp1964
atp1965
a(I28
I450
(lp1966
(S'sto-iht'
p1967
I9
F59.06555891036987
I72
F0.0
F0.028063297271728516
g3
(g7
S't\xeam\xf1B\xe2Y>'
p1968
tp1969
Rp1970
tp1971
a(S'graph-sto-iht'
p1972
I9
F70.43352794647217
I72
F1.3346741199493408
F4.199363708496094
g3
(g7
S'\xda|h\xa2!\x00T>'
p1973
tp1974
Rp1975
tp1976
atp1977
a(I29
I450
(lp1978
(g1967
I9
F66.79183006286621
I72
F0.0
F0.029787302017211914
g3
(g7
S'\xd2\xf4,\x96\x18Js>'
p1979
tp1980
Rp1981
tp1982
a(g1972
I9
F40.462947845458984
I72
F0.8345632553100586
F1.3536772727966309
g3
(g7
S'\xf6h\xce\xe9(\x17j>'
p1983
tp1984
Rp1985
tp1986
atp1987
a(I30
I450
(lp1988
(S'sto-iht'
p1989
I9
F73.06167197227478
I72
F0.0
F0.031423330307006836
g3
(g7
S'xI\xc0\x93\x8a,h>'
p1990
tp1991
Rp1992
tp1993
a(S'graph-sto-iht'
p1994
I9
F75.80911302566528
I72
F1.4610400199890137
F1.5537142753601074
g3
(g7
S'\x9b\xb1;\x0c.\x94p>'
p1995
tp1996
Rp1997
tp1998
atp1999
a(I31
I450
(lp2000
(g1989
I9
F48.33360409736633
I72
F0.0
F0.02527308464050293
g3
(g7
S'z\xb2\x06\xe6\xf8:o>'
p2001
tp2002
Rp2003
tp2004
a(g1994
I9
F40.31973600387573
I72
F0.8606979846954346
F1.094832181930542
g3
(g7
S'\xb9W\xd3\xb8,\xa5]>'
p2005
tp2006
Rp2007
tp2008
atp2009
a(I32
I450
(lp2010
(S'sto-iht'
p2011
I9
F73.1929578781128
I72
F0.0
F0.03206968307495117
g3
(g7
S'\x1b|E\xb4)_c>'
p2012
tp2013
Rp2014
tp2015
a(S'graph-sto-iht'
p2016
I9
F75.65127897262573
I72
F1.421720027923584
F1.885364294052124
g3
(g7
S'e\xcf\x10\xedx\xa4Y>'
p2017
tp2018
Rp2019
tp2020
atp2021
a(I33
I450
(lp2022
(g2011
I9
F39.31257390975952
I72
F0.0
F0.023489713668823242
g3
(g7
S'\xd7\x97\xc8\xb5\xde1j>'
p2023
tp2024
Rp2025
tp2026
a(g2016
I9
F40.45247507095337
I72
F0.8482904434204102
F1.3828139305114746
g3
(g7
S'}\xb5\x84?\xa9\xbdd>'
p2027
tp2028
Rp2029
tp2030
atp2031
a(I34
I450
(lp2032
(S'sto-iht'
p2033
I9
F66.39549684524536
I72
F0.0
F0.029871463775634766
g3
(g7
S'\xe4\xe6-\xfaD\xd1e>'
p2034
tp2035
Rp2036
tp2037
a(S'graph-sto-iht'
p2038
I9
F75.0339138507843
I72
F1.4155142307281494
F2.0775179862976074
g3
(g7
S"c\x0bE\xc5\x05'`>"
p2039
tp2040
Rp2041
tp2042
atp2043
a(I35
I450
(lp2044
(g2033
I9
F70.7264940738678
I72
F0.0
F0.030679941177368164
g3
(g7
S'\x0bT"\xf1;\x14`>'
p2045
tp2046
Rp2047
tp2048
a(g2038
I9
F58.15542984008789
I72
F1.043445348739624
F1.4500479698181152
g3
(g7
S'Y\x1aB\xa6\xa0\xf6S>'
p2049
tp2050
Rp2051
tp2052
atp2053
a(I36
I450
(lp2054
(S'sto-iht'
p2055
I9
F42.20561194419861
I72
F0.0
F0.02387237548828125
g3
(g7
S':PDx\x0c.b>'
p2056
tp2057
Rp2058
tp2059
a(S'graph-sto-iht'
p2060
I9
F58.10079598426819
I72
F1.1942658424377441
F3.2490079402923584
g3
(g7
S'\x04m\x89M\xcaBX>'
p2061
tp2062
Rp2063
tp2064
atp2065
a(I37
I450
(lp2066
(g2055
I9
F71.52189302444458
I72
F0.0
F0.031069278717041016
g3
(g7
S'u\x97\xce\xe3\xaa\xdb`>'
p2067
tp2068
Rp2069
tp2070
a(g2060
I9
F54.700079917907715
I72
F1.0281481742858887
F1.480733871459961
g3
(g7
S'\xb9\xb7O\x0c\x8d\xd4i>'
p2071
tp2072
Rp2073
tp2074
atp2075
a(I38
I450
(lp2076
(S'sto-iht'
p2077
I9
F73.57959699630737
I72
F0.0
F0.03203582763671875
g3
(g7
S'DM\xf7\x95\xf6ib>'
p2078
tp2079
Rp2080
tp2081
a(S'graph-sto-iht'
p2082
I9
F67.90817713737488
I72
F1.3009450435638428
F2.9139139652252197
g3
(g7
S'\xb0VQ\x8c_\xc4Z>'
p2083
tp2084
Rp2085
tp2086
atp2087
a(I39
I450
(lp2088
(g2077
I9
F71.41503190994263
I72
F0.0
F0.031524658203125
g3
(g7
S'o\x81\xd3\xdb\x06\xeee>'
p2089
tp2090
Rp2091
tp2092
a(g2082
I9
F54.557332038879395
I72
F1.005397081375122
F1.7154309749603271
g3
(g7
S'\x7f/\xb3\n\x11w\\>'
p2093
tp2094
Rp2095
tp2096
atp2097
a(I40
I450
(lp2098
(S'sto-iht'
p2099
I9
F71.78554010391235
I72
F0.0
F0.03132057189941406
g3
(g7
S'\xc2\xd1\xc3=\x8amU>'
p2100
tp2101
Rp2102
tp2103
a(S'graph-sto-iht'
p2104
I9
F76.83349299430847
I72
F1.4102849960327148
F3.2928905487060547
g3
(g7
S'\x87-f\x16\xa1\xc6\\>'
p2105
tp2106
Rp2107
tp2108
atp2109
a(I41
I450
(lp2110
(g2099
I9
F56.329890966415405
I72
F0.0
F0.027846097946166992
g3
(g7
S'\xc9\x0e(\xb8\x1e\xd6b>'
p2111
tp2112
Rp2113
tp2114
a(g2104
I9
F39.86024594306946
I72
F0.7701642513275146
F1.1279807090759277
g3
(g7
S'\xafQ\xda\xa0Y]Y>'
p2115
tp2116
Rp2117
tp2118
atp2119
a(I42
I450
(lp2120
(S'sto-iht'
p2121
I9
F73.03242588043213
I72
F0.0
F0.032134056091308594
g3
(g7
S'\xc03^\x83\xa4\xfff>'
p2122
tp2123
Rp2124
tp2125
a(S'graph-sto-iht'
p2126
I9
F78.00871014595032
I72
F1.5767910480499268
F2.889791250228882
g3
(g7
S'\x0c\xd7\xd7\xcce\xb4b>'
p2127
tp2128
Rp2129
tp2130
atp2131
a(I43
I450
(lp2132
(g2121
I9
F57.5078489780426
I72
F0.0
F0.027092456817626953
g3
(g7
S'\xf2\xcb\xdf\xb6\xff\xd2j>'
p2133
tp2134
Rp2135
tp2136
a(g2126
I9
F40.19218301773071
I72
F0.7928590774536133
F1.4865148067474365
g3
(g7
S'A}V):\xcea>'
p2137
tp2138
Rp2139
tp2140
atp2141
a(I44
I450
(lp2142
(S'sto-iht'
p2143
I9
F73.73502111434937
I72
F0.0
F0.03235340118408203
g3
(g7
S'a]\x14\x7f_\x02a>'
p2144
tp2145
Rp2146
tp2147
a(S'graph-sto-iht'
p2148
I9
F72.93489217758179
I72
F1.4439313411712646
F2.1211273670196533
g3
(g7
S'D\xc8\xa3\xe1\xa40\\>'
p2149
tp2150
Rp2151
tp2152
atp2153
a(I45
I450
(lp2154
(g2143
I9
F72.94058108329773
I72
F0.0
F0.03122568130493164
g3
(g7
S'1\xe9\xc6\xe5\xa8\x14t>'
p2155
tp2156
Rp2157
tp2158
a(g2148
I9
F48.64130902290344
I72
F0.8925843238830566
F1.809236764907837
g3
(g7
S'\xef\x93\xa9\xb6\x87ma>'
p2159
tp2160
Rp2161
tp2162
atp2163
a(I46
I450
(lp2164
(S'sto-iht'
p2165
I9
F38.877362966537476
I72
F0.0
F0.02369976043701172
g3
(g7
S'\xf3\xebPQRk`>'
p2166
tp2167
Rp2168
tp2169
a(S'graph-sto-iht'
p2170
I9
F40.30743598937988
I72
F0.8924636840820312
F0.7656691074371338
g3
(g7
S'i\xf52\x9e>?`>'
p2171
tp2172
Rp2173
tp2174
atp2175
a(I47
I450
(lp2176
(g2165
I9
F39.247626066207886
I72
F0.0
F0.0236818790435791
g3
(g7
S'q\x08\x11\x9e^\x83a>'
p2177
tp2178
Rp2179
tp2180
a(g2170
I9
F40.62057089805603
I72
F0.9145519733428955
F0.8814859390258789
g3
(g7
S'"H\xc1h\xc7\x9bX>'
p2181
tp2182
Rp2183
tp2184
atp2185
a(I48
I450
(lp2186
(S'sto-iht'
p2187
I9
F74.3321840763092
I72
F0.0
F0.032215118408203125
g3
(g7
S'zK\tp\x9dPX>'
p2188
tp2189
Rp2190
tp2191
a(S'graph-sto-iht'
p2192
I9
F75.9741280078888
I72
F1.4717450141906738
F1.4555599689483643
g3
(g7
S'\xa5\x92\xaa\xd5\x03\xe1`>'
p2193
tp2194
Rp2195
tp2196
atp2197
a(I49
I450
(lp2198
(g2187
I9
F72.35104393959045
I72
F0.0
F0.031244754791259766
g3
(g7
S'\xa5}\xb6\xea`\rh>'
p2199
tp2200
Rp2201
tp2202
a(g2192
I9
F46.960416078567505
I72
F0.8422079086303711
F0.91518235206604
g3
(g7
S'+}\xe5)\xc1\xf7Z>'
p2203
tp2204
Rp2205
tp2206
atp2207
a(I0
I360
(lp2208
(S'sto-iht'
p2209
I10
F83.81991600990295
I100
F0.0
F0.04429483413696289
g3
(g7
S'\xfa+\x0bGB9[>'
p2210
tp2211
Rp2212
tp2213
a(S'graph-sto-iht'
p2214
I9
F79.8975031375885
I90
F1.8237059116363525
F3.0550129413604736
g3
(g7
S'%\xf6/\x00\x89\x1dx>'
p2215
tp2216
Rp2217
tp2218
atp2219
a(I1
I360
(lp2220
(g2209
I9
F42.287524938583374
I90
F0.0
F0.029285192489624023
g3
(g7
S'\x82\x9fo\xac\x0f\x01m>'
p2221
tp2222
Rp2223
tp2224
a(g2214
I9
F41.84960103034973
I90
F0.987175464630127
F1.3887512683868408
g3
(g7
S'C@\x1d\xd2A@d>'
p2225
tp2226
Rp2227
tp2228
atp2229
a(I2
I360
(lp2230
(S'sto-iht'
p2231
I9
F75.67450094223022
I90
F0.0
F0.03990888595581055
g3
(g7
S"\xbe\xaa7'qvu>"
p2232
tp2233
Rp2234
tp2235
a(S'graph-sto-iht'
p2236
I9
F79.79080390930176
I90
F1.8245773315429688
F2.754971742630005
g3
(g7
S'xPa\x830\xfdh>'
p2237
tp2238
Rp2239
tp2240
atp2241
a(I3
I360
(lp2242
(g2231
I9
F55.92671179771423
I90
F0.0
F0.03285384178161621
g3
(g7
S'Q^\xc9t\x9f8m>'
p2243
tp2244
Rp2245
tp2246
a(g2236
I9
F41.9381799697876
I90
F0.9736795425415039
F1.4351909160614014
g3
(g7
S'\xc7\x10\x0000\xf0i>'
p2247
tp2248
Rp2249
tp2250
atp2251
a(I4
I360
(lp2252
(S'sto-iht'
p2253
I9
F74.67435789108276
I90
F0.0
F0.04020404815673828
g3
(g7
S'@\xcd\xf3\xd3\xc9\xb6l>'
p2254
tp2255
Rp2256
tp2257
a(S'graph-sto-iht'
p2258
I9
F78.62286400794983
I90
F1.8137497901916504
F2.1476545333862305
g3
(g7
S'\xf3S\xa6\xa9\xf4Hd>'
p2259
tp2260
Rp2261
tp2262
atp2263
a(I5
I360
(lp2264
(g2253
I10
F65.95672702789307
I100
F0.0
F0.038352251052856445
g3
(g7
S'\x07\x12$d\x85oW>'
p2265
tp2266
Rp2267
tp2268
a(g2258
I9
F39.58544921875
I90
F0.9416723251342773
F1.315134048461914
g3
(g7
S'\xa8\xed\x12\xb1\xa1\xe5u>'
p2269
tp2270
Rp2271
tp2272
atp2273
a(I6
I360
(lp2274
(S'sto-iht'
p2275
I10
F56.86118721961975
I100
F0.0
F0.03575420379638672
g3
(g7
S'./a\x17\x10\xe3Y>'
p2276
tp2277
Rp2278
tp2279
a(S'graph-sto-iht'
p2280
I9
F48.33525896072388
I90
F1.2697362899780273
F1.6159498691558838
g3
(g7
S'+`\xf1\x80X\xd0m>'
p2281
tp2282
Rp2283
tp2284
atp2285
a(I7
I360
(lp2286
(g2275
I9
F72.46729493141174
I90
F0.0
F0.038134098052978516
g3
(g7
S'\xd04\xd6\x90q\xdcy>'
p2287
tp2288
Rp2289
tp2290
a(g2280
I9
F64.50811815261841
I90
F1.4078998565673828
F2.6866049766540527
g3
(g7
S'K\x7f4\x19\xd0tq>'
p2291
tp2292
Rp2293
tp2294
atp2295
a(I8
I360
(lp2296
(S'sto-iht'
p2297
I9
F74.52737998962402
I90
F0.0
F0.03987479209899902
g3
(g7
S'\x93\xdd(U7\xaeg>'
p2298
tp2299
Rp2300
tp2301
a(S'graph-sto-iht'
p2302
I9
F47.14594912528992
I90
F1.2267274856567383
F2.071964740753174
g3
(g7
S'\x06\xe01\xa5\xaa\xdcv>'
p2303
tp2304
Rp2305
tp2306
atp2307
a(I9
I360
(lp2308
(g2297
I9
F40.099895000457764
I90
F0.0
F0.028833627700805664
g3
(g7
S'\x7f`\x82"\xce\xc8v>'
p2309
tp2310
Rp2311
tp2312
a(g2302
I9
F53.910085916519165
I90
F1.2170181274414062
F2.209322690963745
g3
(g7
S'\x98\x08\x9c\x82\x0f\x94i>'
p2313
tp2314
Rp2315
tp2316
atp2317
a(I10
I360
(lp2318
(S'sto-iht'
p2319
I9
F40.59165906906128
I90
F0.0
F0.028893709182739258
g3
(g7
S'\xc8\xba\x0b2\xb4\x7fg>'
p2320
tp2321
Rp2322
tp2323
a(S'graph-sto-iht'
p2324
I9
F70.76766180992126
I90
F1.667304515838623
F2.082102060317993
g3
(g7
S'\x9d&p<\xba\x9bX>'
p2325
tp2326
Rp2327
tp2328
atp2329
a(I11
I360
(lp2330
(g2319
I10
F76.74727606773376
I100
F0.0
F0.042032480239868164
g3
(g7
S'\xf6Etk!\xec[>'
p2331
tp2332
Rp2333
tp2334
a(g2324
I9
F37.35714507102966
I90
F0.7710728645324707
F1.1423351764678955
g3
(g7
S'\xfd\xa4t )4r>'
p2335
tp2336
Rp2337
tp2338
atp2339
a(I12
I360
(lp2340
(S'sto-iht'
p2341
I10
F80.89015984535217
I100
F0.0
F0.04242849349975586
g3
(g7
S'z\xb9\xa8\x0f\xa0:_>'
p2342
tp2343
Rp2344
tp2345
a(S'graph-sto-iht'
p2346
I9
F76.22240281105042
I90
F1.7000458240509033
F3.189319610595703
g3
(g7
S'\x94N\xd9\xb7(=w>'
p2347
tp2348
Rp2349
tp2350
atp2351
a(I13
I360
(lp2352
(g2341
I9
F43.0837779045105
I90
F0.0
F0.02764129638671875
g3
(g7
S'^\x95\x97\x8a\x8e\x8di>'
p2353
tp2354
Rp2355
tp2356
a(g2346
I9
F36.53000497817993
I90
F0.6995794773101807
F1.2900493144989014
g3
(g7
S'\x81\xe3B-uYg>'
p2357
tp2358
Rp2359
tp2360
atp2361
a(I14
I360
(lp2362
(S'sto-iht'
p2363
I9
F48.31289100646973
I90
F0.0
F0.03072333335876465
g3
(g7
S"\x1f\xff%M'\xada>"
p2364
tp2365
Rp2366
tp2367
a(S'graph-sto-iht'
p2368
I9
F75.68018102645874
I90
F1.7581424713134766
F1.6700654029846191
g3
(g7
S'\x95,D\\\x86\x05`>'
p2369
tp2370
Rp2371
tp2372
atp2373
a(I15
I360
(lp2374
(g2363
I9
F44.75141978263855
I90
F0.0
F0.028977632522583008
g3
(g7
S'\xf3\xb0P\xe7\x92\xbet>'
p2375
tp2376
Rp2377
tp2378
a(g2368
I9
F37.08686399459839
I90
F0.7084720134735107
F1.2483525276184082
g3
(g7
S'a\x9e\x87\r2xr>'
p2379
tp2380
Rp2381
tp2382
atp2383
a(I16
I360
(lp2384
(S'sto-iht'
p2385
I9
F73.09863710403442
I90
F0.0
F0.038208961486816406
g3
(g7
S'a\xa1=\xb6\x06\x98{>'
p2386
tp2387
Rp2388
tp2389
a(S'graph-sto-iht'
p2390
I9
F71.12542295455933
I90
F1.5516109466552734
F1.731112003326416
g3
(g7
S'\x00\x99\x86u\xa2\x1dk>'
p2391
tp2392
Rp2393
tp2394
atp2395
a(I17
I360
(lp2396
(g2385
I9
F35.82834005355835
I90
F0.0
F0.025086641311645508
g3
(g7
S'\xbf\xd5\xed\xca\xe1\xfau>'
p2397
tp2398
Rp2399
tp2400
a(g2390
I9
F36.48458981513977
I90
F0.6774311065673828
F1.5187382698059082
g3
(g7
S'y_\x86FG\xaas>'
p2401
tp2402
Rp2403
tp2404
atp2405
a(I18
I360
(lp2406
(S'sto-iht'
p2407
I9
F73.74142599105835
I90
F0.0
F0.03882026672363281
g3
(g7
S'\xfemq\x0b\x10?v>'
p2408
tp2409
Rp2410
tp2411
a(S'graph-sto-iht'
p2412
I9
F62.259631872177124
I90
F1.368757963180542
F2.782134771347046
g3
(g7
S'h\xd0j\xf1^\xe8n>'
p2413
tp2414
Rp2415
tp2416
atp2417
a(I19
I360
(lp2418
(g2407
I9
F36.52553606033325
I90
F0.0
F0.025629520416259766
g3
(g7
S'^>\xefJ\x1c6v>'
p2419
tp2420
Rp2421
tp2422
a(g2412
I9
F36.30671310424805
I90
F0.6869652271270752
F1.068160057067871
g3
(g7
S'\xb7\x98,\x15h\x06l>'
p2423
tp2424
Rp2425
tp2426
atp2427
a(I20
I360
(lp2428
(S'sto-iht'
p2429
I10
F82.80191802978516
I100
F0.0
F0.04338216781616211
g3
(g7
S'\xdf\x8a\xd1\x9b%yW>'
p2430
tp2431
Rp2432
tp2433
a(S'graph-sto-iht'
p2434
I9
F67.4945478439331
I90
F1.493532657623291
F2.631528615951538
g3
(g7
S'\x90\xda\xb7\xe7N\x1cx>'
p2435
tp2436
Rp2437
tp2438
atp2439
a(I21
I360
(lp2440
(g2429
I9
F35.20664119720459
I90
F0.0
F0.024811506271362305
g3
(g7
S'\xab\xebbh\xf5\xd2t>'
p2441
tp2442
Rp2443
tp2444
a(g2434
I9
F35.1983962059021
I90
F0.6343047618865967
F1.199601650238037
g3
(g7
S'\xb7\xa6\x80\xeb&mp>'
p2445
tp2446
Rp2447
tp2448
atp2449
a(I22
I360
(lp2450
(S'sto-iht'
p2451
I9
F72.56778407096863
I90
F0.0
F0.03868722915649414
g3
(g7
S'V\xad\xd4\x11\x8f\x02q>'
p2452
tp2453
Rp2454
tp2455
a(S'graph-sto-iht'
p2456
I9
F61.23252296447754
I90
F1.3933720588684082
F2.118776559829712
g3
(g7
S'\x0eAZ\x82m\xb7S>'
p2457
tp2458
Rp2459
tp2460
atp2461
a(I23
I360
(lp2462
(g2451
I9
F36.60798406600952
I90
F0.0
F0.025475263595581055
g3
(g7
S'\x19\xa1\x0c\x1f\xe7Pm>'
p2463
tp2464
Rp2465
tp2466
a(g2456
I9
F36.17443108558655
I90
F0.6919238567352295
F0.9127693176269531
g3
(g7
S'R\x7fn\xeb=\xdcl>'
p2467
tp2468
Rp2469
tp2470
atp2471
a(I24
I360
(lp2472
(S'sto-iht'
p2473
I9
F74.96726417541504
I90
F0.0
F0.03935527801513672
g3
(g7
S'\xaf\xf4\x83\r%7{>'
p2474
tp2475
Rp2476
tp2477
a(S'graph-sto-iht'
p2478
I9
F69.3248028755188
I90
F1.5645866394042969
F2.4403388500213623
g3
(g7
S'ZR\xd4i\x13\xbel>'
p2479
tp2480
Rp2481
tp2482
atp2483
a(I25
I360
(lp2484
(g2473
I9
F35.39088487625122
I90
F0.0
F0.02483344078063965
g3
(g7
S'\xf4\x02\xea\x9f-\x1ch>'
p2485
tp2486
Rp2487
tp2488
a(g2478
I9
F35.734330892562866
I90
F0.6889011859893799
F0.6748201847076416
g3
(g7
S'\xa5\x9a\x93V\xd2*\\>'
p2489
tp2490
Rp2491
tp2492
atp2493
a(I26
I360
(lp2494
(S'sto-iht'
p2495
I9
F73.76484298706055
I90
F0.0
F0.039763689041137695
g3
(g7
S'\x8b#\xc6T\xff\x8es>'
p2496
tp2497
Rp2498
tp2499
a(S'graph-sto-iht'
p2500
I9
F71.56178402900696
I90
F1.5816214084625244
F2.4918835163116455
g3
(g7
S'$\x8bF4\xf0\xc9`>'
p2501
tp2502
Rp2503
tp2504
atp2505
a(I27
I360
(lp2506
(g2495
I9
F35.132493019104004
I90
F0.0
F0.025223731994628906
g3
(g7
S'M\xbe\xd0l\x06\xb8o>'
p2507
tp2508
Rp2509
tp2510
a(g2500
I9
F35.347678899765015
I90
F0.6458120346069336
F1.0256612300872803
g3
(g7
S'\xc77\x9e\xb9\x07\xf8a>'
p2511
tp2512
Rp2513
tp2514
atp2515
a(I28
I360
(lp2516
(S'sto-iht'
p2517
I9
F54.04473400115967
I90
F0.0
F0.033586978912353516
g3
(g7
S'\x88\x8e\x944\xde\xbf]>'
p2518
tp2519
Rp2520
tp2521
a(S'graph-sto-iht'
p2522
I9
F56.246927976608276
I90
F1.4124736785888672
F2.207540273666382
g3
(g7
S'\xf8`\x08\x85\r\xddq>'
p2523
tp2524
Rp2525
tp2526
atp2527
a(I29
I360
(lp2528
(g2517
I9
F47.82273006439209
I90
F0.0
F0.029639482498168945
g3
(g7
S'\xbf21\x8bW[s>'
p2529
tp2530
Rp2531
tp2532
a(g2522
I9
F36.33572697639465
I90
F0.6972756385803223
F0.9965119361877441
g3
(g7
S'\xb3\xd2>Z\xc8\xf6r>'
p2533
tp2534
Rp2535
tp2536
atp2537
a(I30
I360
(lp2538
(S'sto-iht'
p2539
I9
F72.24242115020752
I90
F0.0
F0.039101600646972656
g3
(g7
S'\x99;M\xc6\x89<e>'
p2540
tp2541
Rp2542
tp2543
a(S'graph-sto-iht'
p2544
I9
F49.43662190437317
I90
F1.085003137588501
F3.1700990200042725
g3
(g7
S'*H\x11y\xe6k^>'
p2545
tp2546
Rp2547
tp2548
atp2549
a(I31
I360
(lp2550
(g2539
I9
F37.34211611747742
I90
F0.0
F0.02645564079284668
g3
(g7
S'8\xf1\x956\x99\x92w>'
p2551
tp2552
Rp2553
tp2554
a(g2544
I9
F36.6188759803772
I90
F0.694854736328125
F1.191683053970337
g3
(g7
S'\xad\xb0\xd5v\xcf\xd7g>'
p2555
tp2556
Rp2557
tp2558
atp2559
a(I32
I360
(lp2560
(S'sto-iht'
p2561
I9
F60.47608399391174
I90
F0.0
F0.035321712493896484
g3
(g7
S'\x0eQ\xaf\x00s\nf>'
p2562
tp2563
Rp2564
tp2565
a(S'graph-sto-iht'
p2566
I9
F41.99356198310852
I90
F1.0147595405578613
F1.3370747566223145
g3
(g7
S'G\xb3X|Z\xedd>'
p2567
tp2568
Rp2569
tp2570
atp2571
a(I33
I360
(lp2572
(g2561
I9
F38.817193031311035
I90
F0.0
F0.027599096298217773
g3
(g7
S'\x98\xf4r\xa1\x06\x8bx>'
p2573
tp2574
Rp2575
tp2576
a(g2566
I9
F37.36312198638916
I90
F0.7620682716369629
F1.468677043914795
g3
(g7
S'\xb7}\xb1\xedB@c>'
p2577
tp2578
Rp2579
tp2580
atp2581
a(I34
I360
(lp2582
(S'sto-iht'
p2583
I9
F51.525599002838135
I90
F0.0
F0.03247642517089844
g3
(g7
S'\xb1\xccN\xdd2\x9dt>'
p2584
tp2585
Rp2586
tp2587
a(S'graph-sto-iht'
p2588
I9
F42.20916700363159
I90
F1.111840009689331
F1.401665449142456
g3
(g7
S'\xfe\xbd*\xc5\x83Ju>'
p2589
tp2590
Rp2591
tp2592
atp2593
a(I35
I360
(lp2594
(g2583
I10
F43.310704946517944
I100
F0.0
F0.03076910972595215
g3
(g7
S'@\x8d\xba\x08\\\xa3d>'
p2595
tp2596
Rp2597
tp2598
a(g2588
I9
F37.19310212135315
I90
F0.7835052013397217
F0.8657336235046387
g3
(g7
S'\xd7\tkU\xaa4r>'
p2599
tp2600
Rp2601
tp2602
atp2603
a(I36
I360
(lp2604
(S'sto-iht'
p2605
I9
F66.52814316749573
I90
F0.0
F0.0370328426361084
g3
(g7
S'\xc1\x077\xbe\xc1\xbft>'
p2606
tp2607
Rp2608
tp2609
a(S'graph-sto-iht'
p2610
I9
F41.85039496421814
I90
F1.0334854125976562
F1.4494349956512451
g3
(g7
S'\x88\xd8\xcd\xb9~\xfdc>'
p2611
tp2612
Rp2613
tp2614
atp2615
a(I37
I360
(lp2616
(g2605
I9
F38.2117440700531
I90
F0.0
F0.026981353759765625
g3
(g7
S'NmkX>\xa9m>'
p2617
tp2618
Rp2619
tp2620
a(g2610
I9
F36.63380193710327
I90
F0.6918866634368896
F0.993283748626709
g3
(g7
S'\xbf\x18\xd2\x82\x9e\x8cf>'
p2621
tp2622
Rp2623
tp2624
atp2625
a(I38
I360
(lp2626
(S'sto-iht'
p2627
I9
F68.30918192863464
I90
F0.0
F0.03817629814147949
g3
(g7
S'Y\xc5\xfd\xe9\xae\xb4q>'
p2628
tp2629
Rp2630
tp2631
a(S'graph-sto-iht'
p2632
I9
F47.74530816078186
I90
F1.1273632049560547
F1.4186029434204102
g3
(g7
S'PQ\x9e\xfa<=i>'
p2633
tp2634
Rp2635
tp2636
atp2637
a(I39
I360
(lp2638
(g2627
I9
F38.16630506515503
I90
F0.0
F0.02722907066345215
g3
(g7
S'\x83y\xb8jr6r>'
p2639
tp2640
Rp2641
tp2642
a(g2632
I9
F36.67322897911072
I90
F0.6931312084197998
F1.0095574855804443
g3
(g7
S'\xb1\x15\xf8)!\x80b>'
p2643
tp2644
Rp2645
tp2646
atp2647
a(I40
I360
(lp2648
(S'sto-iht'
p2649
I10
F55.78053283691406
I100
F0.0
F0.03502178192138672
g3
(g7
S'w\x9e\x8c\x85\x89`R>'
p2650
tp2651
Rp2652
tp2653
a(S'graph-sto-iht'
p2654
I9
F41.76330208778381
I90
F1.0070993900299072
F1.3067424297332764
g3
(g7
S'\xe8v\xc3\xaf\x8e\xcah>'
p2655
tp2656
Rp2657
tp2658
atp2659
a(I41
I360
(lp2660
(g2649
I10
F42.73022985458374
I100
F0.0
F0.029854774475097656
g3
(g7
S'\xa0\x0b&\xd8\xb5\xedR>'
p2661
tp2662
Rp2663
tp2664
a(g2654
I9
F36.40623188018799
I90
F0.7010776996612549
F0.8053998947143555
g3
(g7
S'&\x96\xa0\xf8UDn>'
p2665
tp2666
Rp2667
tp2668
atp2669
a(I42
I360
(lp2670
(S'sto-iht'
p2671
I10
F79.77453207969666
I100
F0.0
F0.04297041893005371
g3
(g7
S']\x085\xcd\x81\xcdR>'
p2672
tp2673
Rp2674
tp2675
a(S'graph-sto-iht'
p2676
I9
F48.08790397644043
I90
F1.1120903491973877
F1.4694619178771973
g3
(g7
S'\xbc\x97\x95/\xf5\x08p>'
p2677
tp2678
Rp2679
tp2680
atp2681
a(I43
I360
(lp2682
(g2671
I9
F35.59217596054077
I90
F0.0
F0.025215864181518555
g3
(g7
S'\xb2\xbe&&\xfa\xb1w>'
p2683
tp2684
Rp2685
tp2686
a(g2676
I9
F36.21815204620361
I90
F0.6594769954681396
F1.298379898071289
g3
(g7
S';\xa4\x9a\xce5}i>'
p2687
tp2688
Rp2689
tp2690
atp2691
a(I44
I360
(lp2692
(S'sto-iht'
p2693
I9
F74.09926700592041
I90
F0.0
F0.038311004638671875
g3
(g7
S'V\xe1\xaa\xb4\xb8Tu>'
p2694
tp2695
Rp2696
tp2697
a(S'graph-sto-iht'
p2698
I9
F56.375529050827026
I90
F1.2880923748016357
F1.7913215160369873
g3
(g7
S']\xd8\xba\xa2<\x14v>'
p2699
tp2700
Rp2701
tp2702
atp2703
a(I45
I360
(lp2704
(g2693
I9
F36.02484703063965
I90
F0.0
F0.025675535202026367
g3
(g7
S'0\x87h\xfd/]w>'
p2705
tp2706
Rp2707
tp2708
a(g2698
I9
F35.79681396484375
I90
F0.672123908996582
F0.9912114143371582
g3
(g7
S'#\x9b\xba2;Mi>'
p2709
tp2710
Rp2711
tp2712
atp2713
a(I46
I360
(lp2714
(S'sto-iht'
p2715
I9
F68.5682270526886
I90
F0.0
F0.03764677047729492
g3
(g7
S'\x7f]\xc1\xa0\x130`>'
p2716
tp2717
Rp2718
tp2719
a(S'graph-sto-iht'
p2720
I9
F41.63486099243164
I90
F0.9765233993530273
F1.3285696506500244
g3
(g7
S'\x8a\xc9\xbe\xaaq\xa7P>'
p2721
tp2722
Rp2723
tp2724
atp2725
a(I47
I360
(lp2726
(g2715
I9
F36.90491700172424
I90
F0.0
F0.02606987953186035
g3
(g7
S'\xb4\xc1{z\xa8\xd6r>'
p2727
tp2728
Rp2729
tp2730
a(g2720
I9
F36.72954607009888
I90
F0.675656795501709
F1.4430108070373535
g3
(g7
S'\xb7A\xe4W\xe5\x7fk>'
p2731
tp2732
Rp2733
tp2734
atp2735
a(I48
I360
(lp2736
(S'sto-iht'
p2737
I10
F45.00442409515381
I100
F0.0
F0.03216385841369629
g3
(g7
S'\x83\xb5\x93@c\xe1Z>'
p2738
tp2739
Rp2740
tp2741
a(S'graph-sto-iht'
p2742
I9
F42.17326807975769
I90
F1.0359323024749756
F1.4002654552459717
g3
(g7
S'\x1d\xdc\x07\xa9\xf0\x83n>'
p2743
tp2744
Rp2745
tp2746
atp2747
a(I49
I360
(lp2748
(g2737
I9
F38.9364287853241
I90
F0.0
F0.02745652198791504
g3
(g7
S'\xe3PZ%\x97\xe1e>'
p2749
tp2750
Rp2751
tp2752
a(g2742
I9
F37.9097421169281
I90
F0.8120384216308594
F1.3437561988830566
g3
(g7
S'cW\xb1\x89\xfa\xfeb>'
p2753
tp2754
Rp2755
tp2756
atp2757
a.