(lp0
(I0
I4900
(lp1
(S'sto-iht'
p2
I8
F146.79803609848022
I8
F0.005322694778442383
cnumpy.core.multiarray
scalar
p3
(cnumpy
dtype
p4
(S'f8'
p5
I0
I1
tp6
Rp7
(I3
S'<'
p8
NNNI-1
I-1
I0
tp9
bS'W$>\x17\x97\xb5p>'
p10
tp11
Rp12
tp13
a(S'graph-sto-iht'
p14
I8
F146.5540189743042
I8
F0.9875545501708984
g3
(g7
S'\x8e\x16^\xdb]ec>'
p15
tp16
Rp17
tp18
atp19
a(I1
I4900
(lp20
(g2
I9
F164.12783694267273
I9
F0.005570173263549805
g3
(g7
S'\xc2\xf0\xc3\x0bP\xd1J>'
p21
tp22
Rp23
tp24
a(g14
I8
F148.18772506713867
I8
F1.7014341354370117
g3
(g7
S'\xb4\xb7\x1d\x1d\xfb]j>'
p25
tp26
Rp27
tp28
atp29
a(I2
I4900
(lp30
(S'sto-iht'
p31
I8
F150.46565198898315
I8
F0.005656242370605469
g3
(g7
S'<\xb4\xed_\n\x84\\>'
p32
tp33
Rp34
tp35
a(S'graph-sto-iht'
p36
I8
F150.8425600528717
I8
F1.3382108211517334
g3
(g7
S'\x13\x93\xe0B\x92\xc3P>'
p37
tp38
Rp39
tp40
atp41
a(I3
I4900
(lp42
(g31
I8
F100.75810599327087
I8
F0.004095315933227539
g3
(g7
S'S\x00\xb5\xc2\xc2\xee`>'
p43
tp44
Rp45
tp46
a(g36
I8
F78.11729097366333
I8
F0.6080226898193359
g3
(g7
S'\xee\x80\x17_\xb8\x1ch>'
p47
tp48
Rp49
tp50
atp51
a(I4
I4900
(lp52
(S'sto-iht'
p53
I9
F85.55890703201294
I9
F0.004261016845703125
g3
(g7
S'\xcdL\xf2\x87\x98\xb8\\>'
p54
tp55
Rp56
tp57
a(S'graph-sto-iht'
p58
I9
F87.07795405387878
I9
F0.5986826419830322
g3
(g7
S'i\xd8EkVXY>'
p59
tp60
Rp61
tp62
atp63
a(I5
I4900
(lp64
(g53
I8
F77.12855100631714
I8
F0.003659486770629883
g3
(g7
S'\xd7=\x01\xe94\xeeY>'
p65
tp66
Rp67
tp68
a(g58
I8
F77.35447311401367
I8
F0.39334845542907715
g3
(g7
S'l-u\xb4\xa7\x18O>'
p69
tp70
Rp71
tp72
atp73
a(I6
I4900
(lp74
(S'sto-iht'
p75
I8
F75.84761595726013
I8
F0.003516674041748047
g3
(g7
S'\r\xa02\x83\x88\xedv>'
p76
tp77
Rp78
tp79
a(S'graph-sto-iht'
p80
I8
F77.6211268901825
I8
F0.7078108787536621
g3
(g7
S'\xdd\x1e@\xee\xb0\xf0v>'
p81
tp82
Rp83
tp84
atp85
a(I7
I4900
(lp86
(g75
I8
F77.20538401603699
I8
F0.003568410873413086
g3
(g7
S'`\x01v\xb0\xed\xf8x>'
p87
tp88
Rp89
tp90
a(g80
I8
F78.11309289932251
I8
F0.6452276706695557
g3
(g7
S'\x88\xd3\xefHlrw>'
p91
tp92
Rp93
tp94
atp95
a(I8
I4900
(lp96
(S'sto-iht'
p97
I8
F76.4788110256195
I8
F0.003957271575927734
g3
(g7
S't#b\x18\xa0Ra>'
p98
tp99
Rp100
tp101
a(S'graph-sto-iht'
p102
I7
F68.29598093032837
I7
F0.9770071506500244
g3
(g7
S"\x18\\V\xeb\x91's>"
p103
tp104
Rp105
tp106
atp107
a(I9
I4900
(lp108
(g97
I9
F86.37130999565125
I9
F0.00408482551574707
g3
(g7
S'\xd59\xb5(]\xf8]>'
p109
tp110
Rp111
tp112
a(g102
I9
F87.05608105659485
I9
F0.6166219711303711
g3
(g7
S'l6ORT\x81W>'
p113
tp114
Rp115
tp116
atp117
a(I10
I4900
(lp118
(S'sto-iht'
p119
I8
F151.1144061088562
I8
F0.004882335662841797
g3
(g7
S'\xbf2\x13\x1fKcs>'
p120
tp121
Rp122
tp123
a(S'graph-sto-iht'
p124
I8
F151.8575620651245
I8
F0.8533830642700195
g3
(g7
S'v\xe3u\xad8\x0ck>'
p125
tp126
Rp127
tp128
atp129
a(I11
I4900
(lp130
(g119
I9
F140.28903007507324
I9
F0.00491786003112793
g3
(g7
S'\xa6s-\xb8\xc7\xf1H>'
p131
tp132
Rp133
tp134
a(g124
I8
F152.65920305252075
I8
F0.7211852073669434
g3
(g7
S'\x13\xbe,\x15s|e>'
p135
tp136
Rp137
tp138
atp139
a(I12
I4900
(lp140
(S'sto-iht'
p141
I9
F165.6334319114685
I9
F0.005999326705932617
g3
(g7
S'\x93\x18\xd0FlhN>'
p142
tp143
Rp144
tp145
a(S'graph-sto-iht'
p146
I8
F146.42550706863403
I8
F0.6486878395080566
g3
(g7
S'\xa1D\xb8Sp\x01d>'
p147
tp148
Rp149
tp150
atp151
a(I13
I4900
(lp152
(g141
I8
F146.73104810714722
I8
F0.004916191101074219
g3
(g7
S'\x1f\xe8u\xba\xd8\x1em>'
p153
tp154
Rp155
tp156
a(g146
I8
F149.2004098892212
I8
F1.1572566032409668
g3
(g7
S'\x04h\xd3\xb0\xe9\x1fd>'
p157
tp158
Rp159
tp160
atp161
a(I14
I4900
(lp162
(S'sto-iht'
p163
I8
F145.70514917373657
I8
F0.00473475456237793
g3
(g7
S'\xf3\xce\xfa\x86\xb2\xcbq>'
p164
tp165
Rp166
tp167
a(S'graph-sto-iht'
p168
I8
F147.35762190818787
I8
F0.6947863101959229
g3
(g7
S'\xd8\x8a-}\x04\xcbm>'
p169
tp170
Rp171
tp172
atp173
a(I15
I4900
(lp174
(g163
I8
F146.22362804412842
I8
F0.004685163497924805
g3
(g7
S'\xe9<\xfc\x9d\xc4\xe6m>'
p175
tp176
Rp177
tp178
a(g168
I8
F149.05723905563354
I8
F1.2252984046936035
g3
(g7
S'\x8a\x10\xc9\xa7\x00\xebb>'
p179
tp180
Rp181
tp182
atp183
a(I16
I4900
(lp184
(S'sto-iht'
p185
I8
F150.354660987854
I8
F0.0048367977142333984
g3
(g7
S'\x96\x13\xb1\x01\xa2\nr>'
p186
tp187
Rp188
tp189
a(S'graph-sto-iht'
p190
I8
F150.52588295936584
I8
F0.8243329524993896
g3
(g7
S'\xac\xfc\xb8m[\xe8c>'
p191
tp192
Rp193
tp194
atp195
a(I17
I4900
(lp196
(g185
I9
F120.9727418422699
I9
F0.004398822784423828
g3
(g7
S'\x83\xbe\xa5l\xd3\xe2Q>'
p197
tp198
Rp199
tp200
a(g190
I9
F87.59080719947815
I9
F0.6713778972625732
g3
(g7
S'Q\xb2\x19t\xec\xf8G>'
p201
tp202
Rp203
tp204
atp205
a(I18
I4900
(lp206
(S'sto-iht'
p207
I9
F86.33486700057983
I9
F0.004289150238037109
g3
(g7
S'\xc8Dd\xe1\xaffI>'
p208
tp209
Rp210
tp211
a(S'graph-sto-iht'
p212
I8
F77.49904799461365
I8
F0.44845128059387207
g3
(g7
S'\xa9C\x8d\xc2t0r>'
p213
tp214
Rp215
tp216
atp217
a(I19
I4900
(lp218
(g207
I8
F77.17681694030762
I8
F0.003670930862426758
g3
(g7
S'\xdc\xee\xa6G\x8b\x9bu>'
p219
tp220
Rp221
tp222
a(g212
I8
F77.97856998443604
I8
F0.9833536148071289
g3
(g7
S'\x1e\xc6\xd27Rje>'
p223
tp224
Rp225
tp226
atp227
a(I20
I4900
(lp228
(S'sto-iht'
p229
I9
F168.85663986206055
I9
F0.005796909332275391
g3
(g7
S'\xaa\xc4\xb6\xc7\xb6AI>'
p230
tp231
Rp232
tp233
a(S'graph-sto-iht'
p234
I8
F149.98440194129944
I8
F0.795745849609375
g3
(g7
S'\xa6\x80\xf7\xdd\xd2QZ>'
p235
tp236
Rp237
tp238
atp239
a(I21
I4900
(lp240
(g229
I8
F149.74073195457458
I8
F0.004855155944824219
g3
(g7
S"\xb0\x96?\x88\xbc'n>"
p241
tp242
Rp243
tp244
a(g234
I8
F151.06320309638977
I8
F1.0737082958221436
g3
(g7
S'EX\x1e\xee\xf9\xd0`>'
p245
tp246
Rp247
tp248
atp249
a(I22
I4900
(lp250
(S'sto-iht'
p251
I9
F165.12961196899414
I9
F0.005274057388305664
g3
(g7
S'3\xd1\x9c\xb7\xbc\x8bL>'
p252
tp253
Rp254
tp255
a(S'graph-sto-iht'
p256
I8
F147.1628680229187
I8
F1.4848742485046387
g3
(g7
S'\x83>\x0f\xdda\x01q>'
p257
tp258
Rp259
tp260
atp261
a(I23
I4900
(lp262
(g251
I9
F110.3374412059784
I9
F0.004273414611816406
g3
(g7
S'\xc4\xeb\x0b\xb7\x7f<T>'
p263
tp264
Rp265
tp266
a(g256
I8
F78.38506388664246
I8
F0.7222259044647217
g3
(g7
S'\xc9\x05\x9cg\xe4\xf4p>'
p267
tp268
Rp269
tp270
atp271
a(I24
I4900
(lp272
(S'sto-iht'
p273
I8
F146.19782090187073
I8
F0.004782915115356445
g3
(g7
S'o\xe6\x81\xfb,I`>'
p274
tp275
Rp276
tp277
a(S'graph-sto-iht'
p278
I8
F147.57892203330994
I8
F0.6708199977874756
g3
(g7
S'\x98\xcd\x0ehF\xc2I>'
p279
tp280
Rp281
tp282
atp283
a(I25
I4900
(lp284
(g273
I9
F165.33114004135132
I9
F0.005326509475708008
g3
(g7
S'C\xba\x8d\xcfT\x8d^>'
p285
tp286
Rp287
tp288
a(g278
I8
F149.73984003067017
I8
F1.170647144317627
g3
(g7
S'b\x01]f\xefDw>'
p289
tp290
Rp291
tp292
atp293
a(I26
I4900
(lp294
(S'sto-iht'
p295
I9
F165.06349921226501
I9
F0.005860805511474609
g3
(g7
S'\x1e\xeb\xf0\x85%cQ>'
p296
tp297
Rp298
tp299
a(S'graph-sto-iht'
p300
I8
F146.26414394378662
I8
F0.8709614276885986
g3
(g7
S'\x1b2\x89\xe3\xa6Lr>'
p301
tp302
Rp303
tp304
atp305
a(I27
I4900
(lp306
(g295
I8
F145.94336318969727
I8
F0.0049288272857666016
g3
(g7
S'OZ\xb1\x03%\x00n>'
p307
tp308
Rp309
tp310
a(g300
I8
F146.72530317306519
I8
F0.6692383289337158
g3
(g7
S'\x80\x93\xa9\xa1\xdf.l>'
p311
tp312
Rp313
tp314
atp315
a(I28
I4900
(lp316
(S'sto-iht'
p317
I8
F149.95937299728394
I8
F0.005373239517211914
g3
(g7
S'\xeb\xee\x0eZ\x92\xb4r>'
p318
tp319
Rp320
tp321
a(S'graph-sto-iht'
p322
I8
F150.64683604240417
I8
F1.3520545959472656
g3
(g7
S'rk\r\xc0\xa5\x81i>'
p323
tp324
Rp325
tp326
atp327
a(I29
I4900
(lp328
(g317
I8
F132.1752429008484
I8
F0.004621028900146484
g3
(g7
S'~\xd0\xed :\xadb>'
p329
tp330
Rp331
tp332
a(g322
I8
F151.68509197235107
I8
F1.1888985633850098
g3
(g7
S'\xfe=\xe1+O\xaab>'
p333
tp334
Rp335
tp336
atp337
a(I30
I4900
(lp338
(S'sto-iht'
p339
I9
F167.90806102752686
I9
F0.0054492950439453125
g3
(g7
S';Z\x8ab2"N>'
p340
tp341
Rp342
tp343
a(S'graph-sto-iht'
p344
I8
F151.08921885490417
I8
F0.6557960510253906
g3
(g7
S'\x8a,\x01>\xf3\xbfo>'
p345
tp346
Rp347
tp348
atp349
a(I31
I4900
(lp350
(g339
I8
F151.0974051952362
I8
F0.0047261714935302734
g3
(g7
S'\x85\x1d\xa2%\x15\x90l>'
p351
tp352
Rp353
tp354
a(g344
I8
F137.118323802948
I8
F0.7426512241363525
g3
(g7
S'\x96\x05\rm\xb9\x9aw>'
p355
tp356
Rp357
tp358
atp359
a(I32
I4900
(lp360
(S'sto-iht'
p361
I9
F163.2078821659088
I9
F0.005322456359863281
g3
(g7
S'Dfu\xe7\x04\xceJ>'
p362
tp363
Rp364
tp365
a(S'graph-sto-iht'
p366
I9
F165.19302201271057
I9
F0.8539867401123047
g3
(g7
S'z\x8f\x04C\x92~L>'
p367
tp368
Rp369
tp370
atp371
a(I33
I4900
(lp372
(g361
I8
F144.51360893249512
I8
F0.004561185836791992
g3
(g7
S'm\xa8\x04E[&y>'
p373
tp374
Rp375
tp376
a(g366
I8
F149.72589898109436
I8
F1.3367061614990234
g3
(g7
S'x{\xa7eC\x03`>'
p377
tp378
Rp379
tp380
atp381
a(I34
I4900
(lp382
(S'sto-iht'
p383
I8
F146.2519769668579
I8
F0.005320549011230469
g3
(g7
S'C\xedC\xde#\xfc[>'
p384
tp385
Rp386
tp387
a(S'graph-sto-iht'
p388
I8
F145.85621619224548
I8
F0.7194626331329346
g3
(g7
S'(@$\xa2x\xffW>'
p389
tp390
Rp391
tp392
atp393
a(I35
I4900
(lp394
(g383
I8
F144.2224338054657
I8
F0.004869937896728516
g3
(g7
S'#\xd4~\x90o\xb8S>'
p395
tp396
Rp397
tp398
a(g388
I7
F129.38229298591614
I7
F1.12518310546875
g3
(g7
S'\xff\xe4\x8f\x1f\xfcMt>'
p399
tp400
Rp401
tp402
atp403
a(I36
I4900
(lp404
(S'sto-iht'
p405
I8
F149.9612500667572
I8
F0.005339384078979492
g3
(g7
S'\x8a\xce\xf9\xd6\xd5\x13w>'
p406
tp407
Rp408
tp409
a(S'graph-sto-iht'
p410
I8
F149.9573450088501
I8
F0.8764398097991943
g3
(g7
S'$X\xb5{RPs>'
p411
tp412
Rp413
tp414
atp415
a(I37
I4900
(lp416
(g405
I8
F148.53681206703186
I8
F0.0049250125885009766
g3
(g7
S'u\xae\xaap!\xecs>'
p417
tp418
Rp419
tp420
a(g410
I8
F150.20194911956787
I8
F0.9085021018981934
g3
(g7
S'\xb6*"\xfd\x8d+k>'
p421
tp422
Rp423
tp424
atp425
a(I38
I4900
(lp426
(S'sto-iht'
p427
I9
F169.0554440021515
I9
F0.005482912063598633
g3
(g7
S'\xdd\xdeO\xc8\xf5\xc9F>'
p428
tp429
Rp430
tp431
a(S'graph-sto-iht'
p432
I8
F151.49315476417542
I8
F1.1852147579193115
g3
(g7
S'\xd9<\x84\x950Of>'
p433
tp434
Rp435
tp436
atp437
a(I39
I4900
(lp438
(g427
I9
F170.1104109287262
I9
F0.005469322204589844
g3
(g7
S'(\xfa\x8c\x04|}c>'
p439
tp440
Rp441
tp442
a(g432
I9
F169.6684319972992
I9
F0.9226202964782715
g3
(g7
S'\x9aM\x8a\xe2\xeb4d>'
p443
tp444
Rp445
tp446
atp447
a(I40
I4900
(lp448
(S'sto-iht'
p449
I8
F145.28296208381653
I8
F0.004724025726318359
g3
(g7
S'\xc9\xf7>\xf4\xdc\xb2^>'
p450
tp451
Rp452
tp453
a(S'graph-sto-iht'
p454
I8
F146.86997199058533
I8
F0.797299861907959
g3
(g7
S'\x93\xeb\xdb@U U>'
p455
tp456
Rp457
tp458
atp459
a(I41
I4900
(lp460
(g449
I8
F146.2196559906006
I8
F0.0046427249908447266
g3
(g7
S'\x82\xdb\x94\x81a]y>'
p461
tp462
Rp463
tp464
a(g454
I8
F148.22336792945862
I8
F0.6460525989532471
g3
(g7
S'k\xa4?\x07\x87\x8ep>'
p465
tp466
Rp467
tp468
atp469
a(I42
I4900
(lp470
(S'sto-iht'
p471
I8
F149.49273204803467
I8
F0.005214214324951172
g3
(g7
S'k\xb0x\xd3\xf0Fd>'
p472
tp473
Rp474
tp475
a(S'graph-sto-iht'
p476
I8
F149.4956920146942
I8
F0.7373130321502686
g3
(g7
S'^\xf9\xec\xec\xbb\ra>'
p477
tp478
Rp479
tp480
atp481
a(I43
I4900
(lp482
(g471
I8
F137.72403693199158
I8
F0.0046274662017822266
g3
(g7
S'\xeb\xb1\xcf\xff.\x83_>'
p483
tp484
Rp485
tp486
a(g476
I8
F151.1901340484619
I8
F0.9345290660858154
g3
(g7
S'\x19\xc1\x8cg_yM>'
p487
tp488
Rp489
tp490
atp491
a(I44
I4900
(lp492
(S'sto-iht'
p493
I9
F164.84802317619324
I9
F0.005998134613037109
g3
(g7
S'\x0f\x884\x13\x9c\xd3Y>'
p494
tp495
Rp496
tp497
a(S'graph-sto-iht'
p498
I8
F146.13134717941284
I8
F0.981083869934082
g3
(g7
S'K\xdf\xd5\xe5\xb4>y>'
p499
tp500
Rp501
tp502
atp503
a(I45
I4900
(lp504
(g493
I8
F109.19280505180359
I8
F0.004063129425048828
g3
(g7
S'#B}\x15\x83\xb1X>'
p505
tp506
Rp507
tp508
a(g498
I8
F77.5212140083313
I8
F0.7143380641937256
g3
(g7
S'\xdc\x9b}-|\tu>'
p509
tp510
Rp511
tp512
atp513
a(I46
I4900
(lp514
(S'sto-iht'
p515
I9
F163.5234739780426
I9
F0.005362033843994141
g3
(g7
S'\xc8\xf3^rT<P>'
p516
tp517
Rp518
tp519
a(S'graph-sto-iht'
p520
I9
F164.04608488082886
I9
F0.7122335433959961
g3
(g7
S"\xf9\xe0\xc3\xc3'\xf8M>"
p521
tp522
Rp523
tp524
atp525
a(I47
I4900
(lp526
(g515
I8
F144.01771092414856
I8
F0.004757881164550781
g3
(g7
S'\xefL7R\xfcJb>'
p527
tp528
Rp529
tp530
a(g520
I8
F98.80699491500854
I8
F0.5262587070465088
g3
(g7
S'\x08>\x88\xd2\xa1\xe7L>'
p531
tp532
Rp533
tp534
atp535
a(I48
I4900
(lp536
(S'sto-iht'
p537
I9
F168.86088585853577
I9
F0.005505561828613281
g3
(g7
S'\x1f\x05\xf6r\x0f\xb4O>'
p538
tp539
Rp540
tp541
a(S'graph-sto-iht'
p542
I8
F150.332937002182
I8
F0.8631629943847656
g3
(g7
S'\xe0s\xb0\xf9\xb7\xabr>'
p543
tp544
Rp545
tp546
atp547
a(I49
I4900
(lp548
(g537
I8
F141.2814838886261
I8
F0.004596233367919922
g3
(g7
S'\xe3h3\xf0\xa1\xd9[>'
p549
tp550
Rp551
tp552
a(g542
I8
F152.36738395690918
I8
F1.2049498558044434
g3
(g7
S'\x0b~\xeb\xe2=\xd3Q>'
p553
tp554
Rp555
tp556
atp557
a(I0
I2450
(lp558
(S'sto-iht'
p559
I4
F75.75452208518982
I8
F0.0054225921630859375
g3
(g7
S'-\x8d\xc7\xf8\x00\x9fZ>'
p560
tp561
Rp562
tp563
a(S'graph-sto-iht'
p564
I4
F76.52458310127258
I8
F0.8596029281616211
g3
(g7
S'\x1fGf\x99K,W>'
p565
tp566
Rp567
tp568
atp569
a(I1
I2450
(lp570
(g559
I5
F93.57090497016907
I10
F0.0061817169189453125
g3
(g7
S']Y\x00\xc7\x8cjP>'
p571
tp572
Rp573
tp574
a(g564
I5
F95.15378212928772
I10
F1.0454351902008057
g3
(g7
S'\xf1\xc5\xc9)g\xc9\x16>'
p575
tp576
Rp577
tp578
atp579
a(I2
I2450
(lp580
(S'sto-iht'
p581
I5
F94.97027015686035
I10
F0.00614476203918457
g3
(g7
S'`\xa3\xcb\xca\xb0I3>'
p582
tp583
Rp584
tp585
a(S'graph-sto-iht'
p586
I5
F96.41833400726318
I10
F1.1897599697113037
g3
(g7
S'\x06\xb9\x11\x94\xabC\x1b>'
p587
tp588
Rp589
tp590
atp591
a(I3
I2450
(lp592
(g581
I5
F94.99221706390381
I10
F0.0059549808502197266
g3
(g7
S'\x97{[\xd5\xc9\x1a\x1b>'
p593
tp594
Rp595
tp596
a(g586
I5
F94.94570899009705
I10
F1.155632734298706
g3
(g7
S'\xd0\xc00.\xc6]\x1e>'
p597
tp598
Rp599
tp600
atp601
a(I4
I2450
(lp602
(S'sto-iht'
p603
I5
F92.51848697662354
I10
F0.006528615951538086
g3
(g7
S'\x04,l\x81\x12_K>'
p604
tp605
Rp606
tp607
a(S'graph-sto-iht'
p608
I5
F92.28849005699158
I10
F1.167957067489624
g3
(g7
S'\xae\xa9i\x92\x91\xa5H>'
p609
tp610
Rp611
tp612
atp613
a(I5
I2450
(lp614
(g603
I5
F92.36021304130554
I10
F0.006047487258911133
g3
(g7
S'r5\x86\xc7j!S>'
p615
tp616
Rp617
tp618
a(g608
I5
F79.69676899909973
I10
F1.5678024291992188
g3
(g7
S'q\xde\xa2\xed\xb4\xd7@>'
p619
tp620
Rp621
tp622
atp623
a(I6
I2450
(lp624
(S'sto-iht'
p625
I4
F73.86358594894409
I8
F0.004817008972167969
g3
(g7
S'\x12\x95\xf4Q\x98\xccs>'
p626
tp627
Rp628
tp629
a(S'graph-sto-iht'
p630
I4
F75.66491198539734
I8
F0.4821128845214844
g3
(g7
S'\xedJ\xaf\x94\xeee^>'
p631
tp632
Rp633
tp634
atp635
a(I7
I2450
(lp636
(g625
I5
F93.24013996124268
I10
F0.005861043930053711
g3
(g7
S'\xb8\x97\x8dM&\xe6W>'
p637
tp638
Rp639
tp640
a(g630
I5
F93.43889617919922
I10
F1.9127516746520996
g3
(g7
S'\xa3~\x8fS$\xdf">'
p641
tp642
Rp643
tp644
atp645
a(I8
I2450
(lp646
(S'sto-iht'
p647
I5
F91.94089984893799
I10
F0.006464719772338867
g3
(g7
S'v\xe4\x02\x14\xc6S3>'
p648
tp649
Rp650
tp651
a(S'graph-sto-iht'
p652
I5
F92.5235230922699
I10
F1.064363718032837
g3
(g7
S'P\xcb\xa3\xb1\x12\x0e->'
p653
tp654
Rp655
tp656
atp657
a(I9
I2450
(lp658
(g647
I5
F91.53355407714844
I10
F0.006342649459838867
g3
(g7
S'\xe3\x9e\xa2J\x96\xec\x1d>'
p659
tp660
Rp661
tp662
a(g652
I5
F91.34845304489136
I10
F0.8862979412078857
g3
(g7
S'\xaa\x178\xf0@/F>'
p663
tp664
Rp665
tp666
atp667
a(I10
I2450
(lp668
(S'sto-iht'
p669
I5
F96.74520993232727
I10
F0.006061077117919922
g3
(g7
S'\xd5\xc5\x03p\xcb\x00B>'
p670
tp671
Rp672
tp673
a(S'graph-sto-iht'
p674
I5
F96.70514106750488
I10
F1.047304391860962
g3
(g7
S'y \xaa\x0e\xcf\xa2G>'
p675
tp676
Rp677
tp678
atp679
a(I11
I2450
(lp680
(g669
I4
F76.14516496658325
I8
F0.004845142364501953
g3
(g7
S'm\xcf\xd3@N0p>'
p681
tp682
Rp683
tp684
a(g674
I4
F75.76616716384888
I8
F0.8530511856079102
g3
(g7
S',\x82\x94\x88\xae]v>'
p685
tp686
Rp687
tp688
atp689
a(I12
I2450
(lp690
(S'sto-iht'
p691
I4
F75.58929991722107
I8
F0.004792213439941406
g3
(g7
S'\xd6}\xc12\x9e\xe9v>'
p692
tp693
Rp694
tp695
a(S'graph-sto-iht'
p696
I5
F95.03385496139526
I10
F0.9670538902282715
g3
(g7
S'\xd3N\xbd\xd4\xddK,>'
p697
tp698
Rp699
tp700
atp701
a(I13
I2450
(lp702
(g691
I5
F94.54194617271423
I10
F0.005865335464477539
g3
(g7
S"\x08\xdc\x14N\xbdS'>"
p703
tp704
Rp705
tp706
a(g696
I5
F96.19294810295105
I10
F1.848008394241333
g3
(g7
S'\xe0\xaf\xceT\xe8\xb1#>'
p707
tp708
Rp709
tp710
atp711
a(I14
I2450
(lp712
(S'sto-iht'
p713
I5
F94.79296398162842
I10
F0.006573677062988281
g3
(g7
S'\x10\x9c\x12^\x80,<>'
p714
tp715
Rp716
tp717
a(S'graph-sto-iht'
p718
I5
F95.14303803443909
I10
F0.7499837875366211
g3
(g7
S'\xa9\xea\x8e\xf6\xa5\xd9P>'
p719
tp720
Rp721
tp722
atp723
a(I15
I2450
(lp724
(g713
I5
F94.53080201148987
I10
F0.00605463981628418
g3
(g7
S'\xb4c\xd4\xe90\xfb?>'
p725
tp726
Rp727
tp728
a(g718
I4
F75.0447850227356
I8
F0.7516224384307861
g3
(g7
S'\xfb\xe4\xfb\xd4\x0f\xeeq>'
p729
tp730
Rp731
tp732
atp733
a(I16
I2450
(lp734
(S'sto-iht'
p735
I5
F92.17702794075012
I10
F0.006128549575805664
g3
(g7
S'3;\x99\xf0L\xd9\x18>'
p736
tp737
Rp738
tp739
a(S'graph-sto-iht'
p740
I5
F94.15495085716248
I10
F0.9739644527435303
g3
(g7
S'\x92\x0b\xa4\xech\x8d">'
p741
tp742
Rp743
tp744
atp745
a(I17
I2450
(lp746
(g735
I5
F92.80524682998657
I10
F0.00597834587097168
g3
(g7
S'dS@p\xbe\xdfb>'
p747
tp748
Rp749
tp750
a(g740
I5
F92.66602492332458
I10
F1.2987134456634521
g3
(g7
S'\x1f\xc8\xd5\xe5\xcc\x13\x19>'
p751
tp752
Rp753
tp754
atp755
a(I18
I2450
(lp756
(S'sto-iht'
p757
I5
F92.0937340259552
I10
F0.006428718566894531
g3
(g7
S'\xe4\x14\x06\xf1\xeeN?>'
p758
tp759
Rp760
tp761
a(S'graph-sto-iht'
p762
I4
F74.59209299087524
I8
F1.202298641204834
g3
(g7
S'<\xe3r\x8d\xd5\ne>'
p763
tp764
Rp765
tp766
atp767
a(I19
I2450
(lp768
(g757
I5
F91.55735206604004
I10
F0.006038665771484375
g3
(g7
S'\x8c\x05N\xbfZ\x16<>'
p769
tp770
Rp771
tp772
a(g762
I4
F73.16561603546143
I8
F0.8506650924682617
g3
(g7
S'\xc6\xbb+\xc3\xa0\xa9j>'
p773
tp774
Rp775
tp776
atp777
a(I20
I2450
(lp778
(S'sto-iht'
p779
I5
F92.11295294761658
I10
F0.006400108337402344
g3
(g7
S'a\xb9\xdf4 \xcaO>'
p780
tp781
Rp782
tp783
a(S'graph-sto-iht'
p784
I4
F74.36815285682678
I8
F0.9849796295166016
g3
(g7
S'\xa2Cm\xc4\xc25u>'
p785
tp786
Rp787
tp788
atp789
a(I21
I2450
(lp790
(g779
I5
F91.5774929523468
I10
F0.006081342697143555
g3
(g7
S')\xba%P\xadu>>'
p791
tp792
Rp793
tp794
a(g784
I5
F91.3528790473938
I10
F0.7396082878112793
g3
(g7
S'1V\x0e\xa8z\xfe3>'
p795
tp796
Rp797
tp798
atp799
a(I22
I2450
(lp800
(S'sto-iht'
p801
I5
F91.69358110427856
I10
F0.005902767181396484
g3
(g7
S'z\x0e\xf9\xe8\xe1\xdbC>'
p802
tp803
Rp804
tp805
a(S'graph-sto-iht'
p806
I5
F93.32005190849304
I10
F1.2237300872802734
g3
(g7
S'j\x92WT\xdf\x04">'
p807
tp808
Rp809
tp810
atp811
a(I23
I2450
(lp812
(g801
I5
F92.2481439113617
I10
F0.005850315093994141
g3
(g7
S'o\xddwb@\xbd">'
p813
tp814
Rp815
tp816
a(g806
I5
F92.53201508522034
I10
F1.462151050567627
g3
(g7
S'\xe5\xd7\xc8eq\xdd7>'
p817
tp818
Rp819
tp820
atp821
a(I24
I2450
(lp822
(S'sto-iht'
p823
I5
F95.8474190235138
I10
F0.006096839904785156
g3
(g7
S'\xbf%\xef6v\xa8/>'
p824
tp825
Rp826
tp827
a(S'graph-sto-iht'
p828
I5
F96.18464398384094
I10
F1.4631989002227783
g3
(g7
S'\xb3\xfe\x98\xa3ML^>'
p829
tp830
Rp831
tp832
atp833
a(I25
I2450
(lp834
(g823
I5
F94.8844690322876
I10
F0.005919694900512695
g3
(g7
S'k\xb3\xd9Vj\x02\x16>'
p835
tp836
Rp837
tp838
a(g828
I5
F94.92925381660461
I10
F0.9248294830322266
g3
(g7
S'\x99\r\x84\x9b\xb9:$>'
p839
tp840
Rp841
tp842
atp843
a(I26
I2450
(lp844
(S'sto-iht'
p845
I5
F92.27385091781616
I10
F0.006544351577758789
g3
(g7
S'\xce\xc1\x81\xe01c\x08>'
p846
tp847
Rp848
tp849
a(S'graph-sto-iht'
p850
I4
F74.24435687065125
I8
F0.7268900871276855
g3
(g7
S'tu\xe74\x0cJS>'
p851
tp852
Rp853
tp854
atp855
a(I27
I2450
(lp856
(g845
I5
F91.79777884483337
I10
F0.006089210510253906
g3
(g7
S'\x06KmH\x91\xe3b>'
p857
tp858
Rp859
tp860
a(g850
I5
F91.78217601776123
I10
F0.9249794483184814
g3
(g7
S'\xa9\xe2\xfb=\x19\x0e#>'
p861
tp862
Rp863
tp864
atp865
a(I28
I2450
(lp866
(S'sto-iht'
p867
I5
F92.29301118850708
I10
F0.006481647491455078
g3
(g7
S'A[\xcf\x00\xd9\x9d\x16>'
p868
tp869
Rp870
tp871
a(S'graph-sto-iht'
p872
I5
F93.16331601142883
I10
F1.296438455581665
g3
(g7
S'\x9c\xaai\\D\x13!>'
p873
tp874
Rp875
tp876
atp877
a(I29
I2450
(lp878
(g867
I5
F91.82095789909363
I10
F0.006414890289306641
g3
(g7
S'"\xf46G7$R>'
p879
tp880
Rp881
tp882
a(g872
I5
F92.03784704208374
I10
F1.2974083423614502
g3
(g7
S'\xc1\x07\x7f\xafap\x17>'
p883
tp884
Rp885
tp886
atp887
a(I30
I2450
(lp888
(S'sto-iht'
p889
I5
F92.05186891555786
I10
F0.0059108734130859375
g3
(g7
S'\xd8\x08\x8aP\xf2\x9f8>'
p890
tp891
Rp892
tp893
a(S'graph-sto-iht'
p894
I5
F93.65195894241333
I10
F1.0931944847106934
g3
(g7
S'\x94\x80\xd2\xd6\xe3`\x10>'
p895
tp896
Rp897
tp898
atp899
a(I31
I2450
(lp900
(g889
I5
F92.45213103294373
I10
F0.005944967269897461
g3
(g7
S'6x>\xf4\x9f\xa3F>'
p901
tp902
Rp903
tp904
a(g894
I4
F73.7505190372467
I8
F0.7917687892913818
g3
(g7
S'\xcb+\xf5\xcb\xf8\xfau>'
p905
tp906
Rp907
tp908
atp909
a(I32
I2450
(lp910
(S'sto-iht'
p911
I5
F96.49926996231079
I10
F0.006062507629394531
g3
(g7
S's\xce\xd8\x96\x07k)>'
p912
tp913
Rp914
tp915
a(S'graph-sto-iht'
p916
I5
F96.01963090896606
I10
F0.9731929302215576
g3
(g7
S'\xe6\xb0\x97\x97R\x84$>'
p917
tp918
Rp919
tp920
atp921
a(I33
I2450
(lp922
(g911
I5
F95.04611897468567
I10
F0.006057024002075195
g3
(g7
S'\xc9\x9foL\xbc\xc5\x16>'
p923
tp924
Rp925
tp926
a(g916
I4
F76.23758888244629
I8
F1.0362744331359863
g3
(g7
S'C,t\xb6c\xe1j>'
p927
tp928
Rp929
tp930
atp931
a(I34
I2450
(lp932
(S'sto-iht'
p933
I5
F94.42025399208069
I10
F0.006722688674926758
g3
(g7
S')\xe8\xca\x8b\xcb\xafK>'
p934
tp935
Rp936
tp937
a(S'graph-sto-iht'
p938
I5
F95.76480484008789
I10
F1.6961164474487305
g3
(g7
S'\xc7>1\xd1\xc3@0>'
p939
tp940
Rp941
tp942
atp943
a(I35
I2450
(lp944
(g933
I5
F94.4170069694519
I10
F0.006143093109130859
g3
(g7
S'8\x87\x0f\xd27\x92T>'
p945
tp946
Rp947
tp948
a(g938
I5
F94.15775895118713
I10
F1.1228156089782715
g3
(g7
S'\xd5\x92v\xbe>\xa1S>'
p949
tp950
Rp951
tp952
atp953
a(I36
I2450
(lp954
(S'sto-iht'
p955
I5
F96.9652910232544
I10
F0.0060176849365234375
g3
(g7
S',\x96\xcd\xd3\xdbUA>'
p956
tp957
Rp958
tp959
a(S'graph-sto-iht'
p960
I4
F77.83803296089172
I8
F1.1043217182159424
g3
(g7
S'\xda\x0f\x02\x99\xd8\xfeg>'
p961
tp962
Rp963
tp964
atp965
a(I37
I2450
(lp966
(g955
I5
F95.27708005905151
I10
F0.005971193313598633
g3
(g7
S'\x12E\x0b\xc5\xe3\x9a\x17>'
p967
tp968
Rp969
tp970
a(g960
I4
F76.29989099502563
I8
F1.2971374988555908
g3
(g7
S'\xcd\x9a\x1bW|\x13b>'
p971
tp972
Rp973
tp974
atp975
a(I38
I2450
(lp976
(S'sto-iht'
p977
I5
F94.53339505195618
I10
F0.006460905075073242
g3
(g7
S'8g\x1d\xdb\xd7\xdfE>'
p978
tp979
Rp980
tp981
a(S'graph-sto-iht'
p982
I5
F95.83858108520508
I10
F1.5347161293029785
g3
(g7
S'\xf4>\x1a\xcf.\xc4\x19>'
p983
tp984
Rp985
tp986
atp987
a(I39
I2450
(lp988
(g977
I5
F94.40131497383118
I10
F0.0062291622161865234
g3
(g7
S'u\xc0\x88!\xae97>'
p989
tp990
Rp991
tp992
a(g982
I5
F94.45598912239075
I10
F1.453484296798706
g3
(g7
S'L\x14\x00\xdc\x90\x0f%>'
p993
tp994
Rp995
tp996
atp997
a(I40
I2450
(lp998
(S'sto-iht'
p999
I5
F91.93767404556274
I10
F0.006056308746337891
g3
(g7
S'\x99.I\xa98\x8b%>'
p1000
tp1001
Rp1002
tp1003
a(S'graph-sto-iht'
p1004
I5
F93.3521409034729
I10
F1.2239549160003662
g3
(g7
S'\xbbQ\x04w\xefE1>'
p1005
tp1006
Rp1007
tp1008
atp1009
a(I41
I2450
(lp1010
(g999
I4
F73.6682550907135
I8
F0.00477910041809082
g3
(g7
S'1\xdbe\x17\x06@m>'
p1011
tp1012
Rp1013
tp1014
a(g1004
I4
F73.37448310852051
I8
F0.6931765079498291
g3
(g7
S'm\x89\xc8R(\x83R>'
p1015
tp1016
Rp1017
tp1018
atp1019
a(I42
I2450
(lp1020
(S'sto-iht'
p1021
I5
F94.76296186447144
I10
F0.006769418716430664
g3
(g7
S'\xe9\xf97rh\xf2B>'
p1022
tp1023
Rp1024
tp1025
a(S'graph-sto-iht'
p1026
I5
F95.46263408660889
I10
F1.0109095573425293
g3
(g7
S'\xe3K\x98J\xee\x7f">'
p1027
tp1028
Rp1029
tp1030
atp1031
a(I43
I2450
(lp1032
(g1021
I5
F94.65323495864868
I10
F0.006116390228271484
g3
(g7
S'\xc5V\x1b3\x8a\xf50>'
p1033
tp1034
Rp1035
tp1036
a(g1026
I5
F94.35935306549072
I10
F1.100816249847412
g3
(g7
S'\x05;\xb80~\xf4R>'
p1037
tp1038
Rp1039
tp1040
atp1041
a(I44
I2450
(lp1042
(S'sto-iht'
p1043
I5
F48.23565101623535
I10
F0.004420757293701172
g3
(g7
S'\xb99:y>\xab%>'
p1044
tp1045
Rp1046
tp1047
a(S'graph-sto-iht'
p1048
I4
F40.17741918563843
I8
F0.5958178043365479
g3
(g7
S'6\xa0\xd6KR.s>'
p1049
tp1050
Rp1051
tp1052
atp1053
a(I45
I2450
(lp1054
(g1043
I5
F49.23649501800537
I10
F0.004411935806274414
g3
(g7
S'\xc0\x86%\x84\x98vJ>'
p1055
tp1056
Rp1057
tp1058
a(g1048
I5
F50.11450219154358
I10
F1.172276258468628
g3
(g7
S'Y\xea\xba2\xad\x84:>'
p1059
tp1060
Rp1061
tp1062
atp1063
a(I46
I2450
(lp1064
(S'sto-iht'
p1065
I5
F94.69291520118713
I10
F0.006613254547119141
g3
(g7
S'8!\xd0\x84*\x87&>'
p1066
tp1067
Rp1068
tp1069
a(S'graph-sto-iht'
p1070
I5
F95.09488487243652
I10
F0.7263717651367188
g3
(g7
S"R\x03{{t,'>"
p1071
tp1072
Rp1073
tp1074
atp1075
a(I47
I2450
(lp1076
(g1065
I5
F94.51490020751953
I10
F0.006194353103637695
g3
(g7
S'H$\x9f7K\x952>'
p1077
tp1078
Rp1079
tp1080
a(g1070
I4
F75.13860297203064
I8
F0.6981022357940674
g3
(g7
S'\xc7\xb6\x1b\xf7\xfabw>'
p1081
tp1082
Rp1083
tp1084
atp1085
a(I48
I2450
(lp1086
(S'sto-iht'
p1087
I5
F48.04485011100769
I10
F0.004499673843383789
g3
(g7
S'\x7f\xcf\x8d\x9c{]5>'
p1088
tp1089
Rp1090
tp1091
a(S'graph-sto-iht'
p1092
I4
F39.552523136138916
I8
F0.4675722122192383
g3
(g7
S'\x93\xfc\x85LJ_k>'
p1093
tp1094
Rp1095
tp1096
atp1097
a(I49
I2450
(lp1098
(g1087
I5
F48.8029260635376
I10
F0.004438161849975586
g3
(g7
S'3%c\xa5\xecd;>'
p1099
tp1100
Rp1101
tp1102
a(g1092
I100
F1311.458936214447
I200
F9.618982076644897
g3
(g7
S'\x8e\xcc\xda\xb7X\xd7\xd0?'
p1103
tp1104
Rp1105
tp1106
atp1107
a(I0
I1225
(lp1108
(S'sto-iht'
p1109
I8
F80.78364896774292
I32
F0.014021158218383789
g3
(g7
S'VEF\x7fz\xfdO>'
p1110
tp1111
Rp1112
tp1113
a(S'graph-sto-iht'
p1114
I8
F96.5395758152008
I32
F2.455521583557129
g3
(g7
S'\xdc=\xb9;\xfb\xd4M>'
p1115
tp1116
Rp1117
tp1118
atp1119
a(I1
I1225
(lp1120
(g1109
I8
F147.73460292816162
I32
F0.01836085319519043
g3
(g7
S']\x86wO\xaf$G>'
p1121
tp1122
Rp1123
tp1124
a(g1114
I7
F134.1640338897705
I28
F2.988079309463501
g3
(g7
S'\x19x\x82\xd2\x84H{>'
p1125
tp1126
Rp1127
tp1128
atp1129
a(I2
I1225
(lp1130
(S'sto-iht'
p1131
I8
F118.08141613006592
I32
F0.01695561408996582
g3
(g7
S'\x86\xf4\xbdz\xcf#E>'
p1132
tp1133
Rp1134
tp1135
a(S'graph-sto-iht'
p1136
I8
F156.66179990768433
I32
F2.160402536392212
g3
(g7
S'\x06\x01|\x04^\xa5H>'
p1137
tp1138
Rp1139
tp1140
atp1141
a(I3
I1225
(lp1142
(g1131
I7
F134.2759289741516
I28
F0.0168609619140625
g3
(g7
S'Q\x12\x8d~1\x86r>'
p1143
tp1144
Rp1145
tp1146
a(g1136
I7
F137.05735683441162
I28
F2.4638009071350098
g3
(g7
S'\x1a"\xcd\xe9\xa4&r>'
p1147
tp1148
Rp1149
tp1150
atp1151
a(I4
I1225
(lp1152
(S'sto-iht'
p1153
I8
F132.5627670288086
I32
F0.018185138702392578
g3
(g7
S'\x89{?\xef\xa3@F>'
p1154
tp1155
Rp1156
tp1157
a(S'graph-sto-iht'
p1158
I8
F157.41883397102356
I32
F3.4275097846984863
g3
(g7
S'N\x01*\xf4z\xaaG>'
p1159
tp1160
Rp1161
tp1162
atp1163
a(I5
I1225
(lp1164
(g1153
I7
F134.4661750793457
I28
F0.01708388328552246
g3
(g7
S'\xa51\x12\xfc\x8bgs>'
p1165
tp1166
Rp1167
tp1168
a(g1158
I8
F156.69534397125244
I32
F2.7047781944274902
g3
(g7
S'\xc3-\xe5\xda\xeb\tR>'
p1169
tp1170
Rp1171
tp1172
atp1173
a(I6
I1225
(lp1174
(S'sto-iht'
p1175
I8
F106.95096611976624
I32
F0.01656317710876465
g3
(g7
S'X\xb4L\xeb\xef@P>'
p1176
tp1177
Rp1178
tp1179
a(S'graph-sto-iht'
p1180
I8
F156.5114688873291
I32
F5.165836572647095
g3
(g7
S'\xbf\x08\xb8\x16SeM>'
p1181
tp1182
Rp1183
tp1184
atp1185
a(I7
I1225
(lp1186
(g1175
I8
F150.1714310646057
I32
F0.019475460052490234
g3
(g7
S'\xbf\x85\xfc/\x00\x8bD>'
p1187
tp1188
Rp1189
tp1190
a(g1180
I7
F134.43540215492249
I28
F2.3362350463867188
g3
(g7
S'\xf1_\x7f\x8f\x19\xf2q>'
p1191
tp1192
Rp1193
tp1194
atp1195
a(I8
I1225
(lp1196
(S'sto-iht'
p1197
I8
F149.54656386375427
I32
F0.019459009170532227
g3
(g7
S'\xe6\xb1\x18\x15\x87dY>'
p1198
tp1199
Rp1200
tp1201
a(S'graph-sto-iht'
p1202
I8
F154.03067803382874
I32
F2.0284299850463867
g3
(g7
S'\x81L\x17\xd1\xfa\x15T>'
p1203
tp1204
Rp1205
tp1206
atp1207
a(I9
I1225
(lp1208
(g1197
I7
F134.88635897636414
I28
F0.017359018325805664
g3
(g7
S'\xf4\xd2\xee\x8f\x11Nw>'
p1209
tp1210
Rp1211
tp1212
a(g1202
I7
F135.47903394699097
I28
F1.9771323204040527
g3
(g7
S'\xbc\x8e\x90\x9cf\xd7t>'
p1213
tp1214
Rp1215
tp1216
atp1217
a(I10
I1225
(lp1218
(S'sto-iht'
p1219
I8
F150.43220782279968
I32
F0.019504070281982422
g3
(g7
S's\x12\x01\x0b\xe0\\N>'
p1220
tp1221
Rp1222
tp1223
a(S'graph-sto-iht'
p1224
I7
F134.436998128891
I28
F3.681305170059204
g3
(g7
S'\x91\x87F\xe2\x08ay>'
p1225
tp1226
Rp1227
tp1228
atp1229
a(I11
I1225
(lp1230
(g1219
I7
F130.53370690345764
I28
F0.016757965087890625
g3
(g7
S'\xc3C\xb7`\x05Hu>'
p1231
tp1232
Rp1233
tp1234
a(g1224
I7
F134.4969141483307
I28
F3.5037026405334473
g3
(g7
S'\xdbf\xb6\x04\xdbEk>'
p1235
tp1236
Rp1237
tp1238
atp1239
a(I12
I1225
(lp1240
(S'sto-iht'
p1241
I8
F152.00810599327087
I32
F0.018968820571899414
g3
(g7
S'7F>\xf6z\xbbI>'
p1242
tp1243
Rp1244
tp1245
a(S'graph-sto-iht'
p1246
I7
F132.92859292030334
I28
F2.6014699935913086
g3
(g7
S'\x13\xd22~[Jt>'
p1247
tp1248
Rp1249
tp1250
atp1251
a(I13
I1225
(lp1252
(g1241
I7
F133.08981800079346
I28
F0.01659846305847168
g3
(g7
S'\x90\x8b\xf1\x8bW\xfbu>'
p1253
tp1254
Rp1255
tp1256
a(g1246
I8
F156.00066304206848
I32
F4.870230197906494
g3
(g7
S'\xd6\xe2\x1a\x11\x90<F>'
p1257
tp1258
Rp1259
tp1260
atp1261
a(I14
I1225
(lp1262
(S'sto-iht'
p1263
I7
F132.04218316078186
I28
F0.016460418701171875
g3
(g7
S'\x9eM\xb5\xc64Mz>'
p1264
tp1265
Rp1266
tp1267
a(S'graph-sto-iht'
p1268
I7
F117.86585807800293
I28
F1.986762285232544
g3
(g7
S'\xf2w\x13L\xa5\xa7x>'
p1269
tp1270
Rp1271
tp1272
atp1273
a(I15
I1225
(lp1274
(g1263
I8
F80.16089582443237
I32
F0.014116287231445312
g3
(g7
S'\xf5\x02\xfa\xea_\x97N>'
p1275
tp1276
Rp1277
tp1278
a(g1268
I7
F72.00180792808533
I28
F1.7552895545959473
g3
(g7
S'\xe05\xe1HINv>'
p1279
tp1280
Rp1281
tp1282
atp1283
a(I16
I1225
(lp1284
(S'sto-iht'
p1285
I8
F150.97709393501282
I32
F0.01941394805908203
g3
(g7
S'\x90\x8e\x9e\xf6\xd80I>'
p1286
tp1287
Rp1288
tp1289
a(S'graph-sto-iht'
p1290
I7
F133.55491518974304
I28
F3.3157355785369873
g3
(g7
S'y\x13e\xe6p\xdel>'
p1291
tp1292
Rp1293
tp1294
atp1295
a(I17
I1225
(lp1296
(g1285
I8
F150.77962017059326
I32
F0.01965188980102539
g3
(g7
S'\xbb\xecP\xaf\x8c\x07Q>'
p1297
tp1298
Rp1299
tp1300
a(g1290
I8
F154.0624279975891
I32
F4.0960235595703125
g3
(g7
S'\xaeli*\xd23H>'
p1301
tp1302
Rp1303
tp1304
atp1305
a(I18
I1225
(lp1306
(S'sto-iht'
p1307
I7
F135.45015692710876
I28
F0.016730070114135742
g3
(g7
S'4\xc0\x14[MJb>'
p1308
tp1309
Rp1310
tp1311
a(S'graph-sto-iht'
p1312
I7
F133.09293413162231
I28
F2.65994930267334
g3
(g7
S'pQ>\xf7g\xb1e>'
p1313
tp1314
Rp1315
tp1316
atp1317
a(I19
I1225
(lp1318
(g1307
I8
F156.5791540145874
I32
F0.019100189208984375
g3
(g7
S'\x14\xd2<9\xe6\xc8T>'
p1319
tp1320
Rp1321
tp1322
a(g1312
I8
F159.17713689804077
I32
F4.121409177780151
g3
(g7
S'\xcf\xacU\x84\xa64O>'
p1323
tp1324
Rp1325
tp1326
atp1327
a(I20
I1225
(lp1328
(S'sto-iht'
p1329
I7
F132.48505902290344
I28
F0.016548871994018555
g3
(g7
S'\x1a)+\xef\x94\x04R>'
p1330
tp1331
Rp1332
tp1333
a(S'graph-sto-iht'
p1334
I7
F134.24082708358765
I28
F3.226905345916748
g3
(g7
S'w\x10B\xe1Y!`>'
p1335
tp1336
Rp1337
tp1338
atp1339
a(I21
I1225
(lp1340
(g1329
I8
F150.56958198547363
I32
F0.0185396671295166
g3
(g7
S'\xce\x1c\x13\xff\x11 R>'
p1341
tp1342
Rp1343
tp1344
a(g1334
I8
F156.12245202064514
I32
F5.6356847286224365
g3
(g7
S'f\xbd\x9am\x13II>'
p1345
tp1346
Rp1347
tp1348
atp1349
a(I22
I1225
(lp1350
(S'sto-iht'
p1351
I7
F130.5097439289093
I28
F0.01684403419494629
g3
(g7
S'\x81\xb4\xfbq\xdb\xbby>'
p1352
tp1353
Rp1354
tp1355
a(S'graph-sto-iht'
p1356
I7
F130.15337491035461
I28
F2.3171639442443848
g3
(g7
S'\xe6\xf5\x0e\xf2\x8aJ{>'
p1357
tp1358
Rp1359
tp1360
atp1361
a(I23
I1225
(lp1362
(g1351
I8
F151.30472898483276
I32
F0.01954197883605957
g3
(g7
S'R\xfb\x8f\x98\xa1\xd8B>'
p1363
tp1364
Rp1365
tp1366
a(g1356
I7
F133.32732605934143
I28
F2.271578073501587
g3
(g7
S'\x9d\xff\xc5bj\x0b{>'
p1367
tp1368
Rp1369
tp1370
atp1371
a(I24
I1225
(lp1372
(S'sto-iht'
p1373
I7
F130.5193920135498
I28
F0.01718425750732422
g3
(g7
S'\xff\x0cy\x0f\xb1\xdcp>'
p1374
tp1375
Rp1376
tp1377
a(S'graph-sto-iht'
p1378
I7
F133.6831760406494
I28
F4.22384238243103
g3
(g7
S'U\xe2\x96W\xdd\x8an>'
p1379
tp1380
Rp1381
tp1382
atp1383
a(I25
I1225
(lp1384
(g1373
I8
F151.17958188056946
I32
F0.019567012786865234
g3
(g7
S'\xe7v\xa4ku\x9fG>'
p1385
tp1386
Rp1387
tp1388
a(g1378
I8
F152.86446595191956
I32
F3.0516397953033447
g3
(g7
S'\x8f@?\xd7.\x9eC>'
p1389
tp1390
Rp1391
tp1392
atp1393
a(I26
I1225
(lp1394
(S'sto-iht'
p1395
I7
F136.02434301376343
I28
F0.01680278778076172
g3
(g7
S'\xb2\\\x03\xd9\xe9\xf7w>'
p1396
tp1397
Rp1398
tp1399
a(S'graph-sto-iht'
p1400
I7
F120.63730502128601
I28
F4.11722731590271
g3
(g7
S'u-\x86\x0c\x87Qt>'
p1401
tp1402
Rp1403
tp1404
atp1405
a(I27
I1225
(lp1406
(g1395
I8
F141.84793496131897
I32
F0.018004894256591797
g3
(g7
S'\x13\xe6\x93\xf8\xde\x04e>'
p1407
tp1408
Rp1409
tp1410
a(g1400
I8
F153.53372311592102
I32
F2.975700855255127
g3
(g7
S'\x80\xd84\x85\x92\xc2^>'
p1411
tp1412
Rp1413
tp1414
atp1415
a(I28
I1225
(lp1416
(S'sto-iht'
p1417
I7
F69.61199402809143
I28
F0.012508630752563477
g3
(g7
S'\xd0\xda\x1e\xbaU+{>'
p1418
tp1419
Rp1420
tp1421
a(S'graph-sto-iht'
p1422
I7
F71.0488829612732
I28
F1.4392549991607666
g3
(g7
S'\x1cx\x89\xc4\xb4\xf4l>'
p1423
tp1424
Rp1425
tp1426
atp1427
a(I29
I1225
(lp1428
(g1417
I8
F79.49773502349854
I32
F0.014394283294677734
g3
(g7
S'\x85H\xb2Q>\xd9S>'
p1429
tp1430
Rp1431
tp1432
a(g1422
I7
F114.06130003929138
I28
F2.8220748901367188
g3
(g7
S'w|\xcb\x96\x1c\xcfu>'
p1433
tp1434
Rp1435
tp1436
atp1437
a(I30
I1225
(lp1438
(S'sto-iht'
p1439
I7
F134.6046919822693
I28
F0.017295122146606445
g3
(g7
S'\xd8\x81\xa3;Z\x9at>'
p1440
tp1441
Rp1442
tp1443
a(S'graph-sto-iht'
p1444
I7
F123.11568093299866
I28
F2.381532669067383
g3
(g7
S'\x81\xcc\xf3?\xe31n>'
p1445
tp1446
Rp1447
tp1448
atp1449
a(I31
I1225
(lp1450
(g1439
I7
F69.67853999137878
I28
F0.012787818908691406
g3
(g7
S'\x816\xda\x9eylz>'
p1451
tp1452
Rp1453
tp1454
a(g1444
I7
F72.0365378856659
I28
F2.226217746734619
g3
(g7
S'\x8d&)\x9b\xbbVx>'
p1455
tp1456
Rp1457
tp1458
atp1459
a(I32
I1225
(lp1460
(S'sto-iht'
p1461
I7
F134.7702829837799
I28
F0.0172882080078125
g3
(g7
S'\x9a\xeaB^\x1aNi>'
p1462
tp1463
Rp1464
tp1465
a(S'graph-sto-iht'
p1466
I7
F123.04786896705627
I28
F3.621962547302246
g3
(g7
S'\xf8\x854\xdcb\x05p>'
p1467
tp1468
Rp1469
tp1470
atp1471
a(I33
I1225
(lp1472
(g1461
I7
F69.86005210876465
I28
F0.012697219848632812
g3
(g7
S')\xe7\r;\xec\x08z>'
p1473
tp1474
Rp1475
tp1476
a(g1466
I7
F71.44998097419739
I28
F1.5326416492462158
g3
(g7
S'i\xa2\xe4\x93\xc9\xfal>'
p1477
tp1478
Rp1479
tp1480
atp1481
a(I34
I1225
(lp1482
(S'sto-iht'
p1483
I8
F150.53882694244385
I32
F0.01882338523864746
g3
(g7
S'Q\xeb7\xf0\xea\xdfK>'
p1484
tp1485
Rp1486
tp1487
a(S'graph-sto-iht'
p1488
I8
F152.68093705177307
I32
F2.8806047439575195
g3
(g7
S'?\x01\xca\xb1\n\xa7E>'
p1489
tp1490
Rp1491
tp1492
atp1493
a(I35
I1225
(lp1494
(g1483
I8
F151.8721568584442
I32
F0.018715381622314453
g3
(g7
S'\x84\x04\xda`\x8fcY>'
p1495
tp1496
Rp1497
tp1498
a(g1488
I8
F154.5168251991272
I32
F3.6563003063201904
g3
(g7
S'.\xd2\xf8I\xf6\xdfP>'
p1499
tp1500
Rp1501
tp1502
atp1503
a(I36
I1225
(lp1504
(S'sto-iht'
p1505
I8
F154.5848548412323
I32
F0.019326210021972656
g3
(g7
S'\x96J\x18\xbc\xacKO>'
p1506
tp1507
Rp1508
tp1509
a(S'graph-sto-iht'
p1510
I8
F137.81955909729004
I32
F2.8447821140289307
g3
(g7
S'_x\x15`\x99gC>'
p1511
tp1512
Rp1513
tp1514
atp1515
a(I37
I1225
(lp1516
(g1505
I8
F155.94992804527283
I32
F0.0191347599029541
g3
(g7
S'!\xed/\xf6\x9eJH>'
p1517
tp1518
Rp1519
tp1520
a(g1510
I7
F139.56965899467468
I28
F3.9740326404571533
g3
(g7
S'\xda\xac)\xbe\xbe=x>'
p1521
tp1522
Rp1523
tp1524
atp1525
a(I38
I1225
(lp1526
(S'sto-iht'
p1527
I7
F135.50916194915771
I28
F0.017165184020996094
g3
(g7
S'q\xcdQ$\xe6,t>'
p1528
tp1529
Rp1530
tp1531
a(S'graph-sto-iht'
p1532
I7
F137.4745969772339
I28
F3.1825857162475586
g3
(g7
S'AW\xbe\xcd\xb8\x82v>'
p1533
tp1534
Rp1535
tp1536
atp1537
a(I39
I1225
(lp1538
(g1527
I7
F135.81511092185974
I28
F0.01708197593688965
g3
(g7
S'c\xc4\x89\xd0\xd1\x1dk>'
p1539
tp1540
Rp1541
tp1542
a(g1532
I7
F138.3282811641693
I28
F3.005139112472534
g3
(g7
S'\xef "\xca\x87\x93d>'
p1543
tp1544
Rp1545
tp1546
atp1547
a(I40
I1225
(lp1548
(S'sto-iht'
p1549
I7
F130.82065892219543
I28
F0.017110824584960938
g3
(g7
S'\x91<\xd0\xb6\xf6\xd2x>'
p1550
tp1551
Rp1552
tp1553
a(S'graph-sto-iht'
p1554
I7
F132.81789016723633
I28
F3.1871283054351807
g3
(g7
S'\xe7\xde\x02S\xae\xddq>'
p1555
tp1556
Rp1557
tp1558
atp1559
a(I41
I1225
(lp1560
(g1549
I7
F132.73613595962524
I28
F0.017284393310546875
g3
(g7
S'\xdd\xca\x89\xb5i\xbdz>'
p1561
tp1562
Rp1563
tp1564
a(g1554
I7
F135.8802399635315
I28
F4.153143644332886
g3
(g7
S'\x90\xe0o\xf3\xc3\xcdz>'
p1565
tp1566
Rp1567
tp1568
atp1569
a(I42
I1225
(lp1570
(S'sto-iht'
p1571
I7
F136.52818298339844
I28
F0.016820430755615234
g3
(g7
S'\xc4\xfdzp\x12Zi>'
p1572
tp1573
Rp1574
tp1575
a(S'graph-sto-iht'
p1576
I7
F137.8827040195465
I28
F2.8436779975891113
g3
(g7
S'\x1e_;\xff\xa6\xe1n>'
p1577
tp1578
Rp1579
tp1580
atp1581
a(I43
I1225
(lp1582
(g1571
I8
F156.09174394607544
I32
F0.019341230392456055
g3
(g7
S'.\x91bV\xbd\x9bE>'
p1583
tp1584
Rp1585
tp1586
a(g1576
I8
F160.7259738445282
I32
F5.553041458129883
g3
(g7
S'\x9cQtL\x8c\xe9M>'
p1587
tp1588
Rp1589
tp1590
atp1591
a(I44
I1225
(lp1592
(S'sto-iht'
p1593
I7
F132.00168204307556
I28
F0.01650071144104004
g3
(g7
S'3\xa4\x12\xb6FB_>'
p1594
tp1595
Rp1596
tp1597
a(S'graph-sto-iht'
p1598
I7
F134.2263629436493
I28
F2.9696340560913086
g3
(g7
S'l8w\xe37\xc8d>'
p1599
tp1600
Rp1601
tp1602
atp1603
a(I45
I1225
(lp1604
(g1593
I7
F131.98619103431702
I28
F0.01641845703125
g3
(g7
S'\xb0\n\x1dW\x17\x84{>'
p1605
tp1606
Rp1607
tp1608
a(g1598
I7
F135.27749395370483
I28
F2.784202814102173
g3
(g7
S'\xbf\xba\r\xad\x84Ex>'
p1609
tp1610
Rp1611
tp1612
atp1613
a(I46
I1225
(lp1614
(S'sto-iht'
p1615
I8
F153.365168094635
I32
F0.019838809967041016
g3
(g7
S'\xc5w\xa5o\x11\x9cF>'
p1616
tp1617
Rp1618
tp1619
a(S'graph-sto-iht'
p1620
I7
F137.85809206962585
I28
F3.8093128204345703
g3
(g7
S'\x94\x1a6\xa7\x9cey>'
p1621
tp1622
Rp1623
tp1624
atp1625
a(I47
I1225
(lp1626
(g1615
I8
F154.49695491790771
I32
F0.019663572311401367
g3
(g7
S'|\x11N\xae\xed\xffP>'
p1627
tp1628
Rp1629
tp1630
a(g1620
I7
F138.68547296524048
I28
F4.207501411437988
g3
(g7
S'\x88\xfb\xa5\xd3\xbf\xc4v>'
p1631
tp1632
Rp1633
tp1634
atp1635
a(I48
I1225
(lp1636
(S'sto-iht'
p1637
I7
F130.45959615707397
I28
F0.016962528228759766
g3
(g7
S'\x89S\xbd\x9cMQl>'
p1638
tp1639
Rp1640
tp1641
a(S'graph-sto-iht'
p1642
I7
F133.92377996444702
I28
F3.7024574279785156
g3
(g7
S'\xe6\xcc\xb5\xb1\xdd\xc1k>'
p1643
tp1644
Rp1645
tp1646
atp1647
a(I49
I1225
(lp1648
(g1637
I7
F132.32309007644653
I28
F0.016891956329345703
g3
(g7
S'O\x070\xe2\xe8\x8by>'
p1649
tp1650
Rp1651
tp1652
a(g1642
I7
F134.59342002868652
I28
F3.42501163482666
g3
(g7
S'\x8d\xee\x1e\x86\xa7\xf7q>'
p1653
tp1654
Rp1655
tp1656
atp1657
a(I0
I612
(lp1658
(S'sto-iht'
p1659
I9
F177.82296895980835
I72
F0.043999671936035156
g3
(g7
S'|\x0b\xb6\xd0!HU>'
p1660
tp1661
Rp1662
tp1663
a(S'graph-sto-iht'
p1664
I9
F183.9381148815155
I72
F5.865427732467651
g3
(g7
S'\xe5\xdf\x89\x008fR>'
p1665
tp1666
Rp1667
tp1668
atp1669
a(I1
I612
(lp1670
(g1659
I9
F178.91736698150635
I72
F0.04376411437988281
g3
(g7
S'\xfd\xfd\x7f_\x02\xf4U>'
p1671
tp1672
Rp1673
tp1674
a(g1664
I8
F162.57442593574524
I64
F4.121767520904541
g3
(g7
S'_\xa7\x0f\x01\x9a\xd6k>'
p1675
tp1676
Rp1677
tp1678
atp1679
a(I2
I612
(lp1680
(S'sto-iht'
p1681
I9
F178.7712128162384
I72
F0.04305553436279297
g3
(g7
S'\xd5\xe4x\xd2Pqr>'
p1682
tp1683
Rp1684
tp1685
a(S'graph-sto-iht'
p1686
I9
F125.01063990592957
I72
F3.1491239070892334
g3
(g7
S'@\x07Vh\xe7/[>'
p1687
tp1688
Rp1689
tp1690
atp1691
a(I3
I612
(lp1692
(g1681
I9
F94.66623592376709
I72
F0.03195929527282715
g3
(g7
S'\xbew\xfd\xe4\xd3|h>'
p1693
tp1694
Rp1695
tp1696
a(g1686
I9
F96.66292786598206
I72
F2.539340019226074
g3
(g7
S'.S\xbe,:\xdeU>'
p1697
tp1698
Rp1699
tp1700
atp1701
a(I4
I612
(lp1702
(S'sto-iht'
p1703
I9
F179.20527601242065
I72
F0.04328155517578125
g3
(g7
S'\x03\xc5y\x08\xcc\xf5P>'
p1704
tp1705
Rp1706
tp1707
a(S'graph-sto-iht'
p1708
I9
F118.70164394378662
I72
F4.116522550582886
g3
(g7
S'P\xdc\xd7\x90\xfb\x9fV>'
p1709
tp1710
Rp1711
tp1712
atp1713
a(I5
I612
(lp1714
(g1703
I9
F94.25142502784729
I72
F0.032161712646484375
g3
(g7
S'2\x08l\x87N(b>'
p1715
tp1716
Rp1717
tp1718
a(g1708
I9
F96.57362818717957
I72
F2.4930691719055176
g3
(g7
S'\xfb\xa5\x14\x01\x1e\xecW>'
p1719
tp1720
Rp1721
tp1722
atp1723
a(I6
I612
(lp1724
(S'sto-iht'
p1725
I9
F94.4520149230957
I72
F0.0328984260559082
g3
(g7
S'\x12R\x8c\x9f>HP>'
p1726
tp1727
Rp1728
tp1729
a(S'graph-sto-iht'
p1730
I9
F97.05719304084778
I72
F3.137359142303467
g3
(g7
S'\xbd\xc7\xd48oWP>'
p1731
tp1732
Rp1733
tp1734
atp1735
a(I7
I612
(lp1736
(g1725
I9
F94.1847939491272
I72
F0.032646894454956055
g3
(g7
S'\xf8#\x08\xfa-\xc5`>'
p1737
tp1738
Rp1739
tp1740
a(g1730
I9
F96.58057498931885
I72
F2.3361763954162598
g3
(g7
S'\\\xcdp\x11\x1f\xedY>'
p1741
tp1742
Rp1743
tp1744
atp1745
a(I8
I612
(lp1746
(S'sto-iht'
p1747
I9
F93.85719108581543
I72
F0.032685279846191406
g3
(g7
S'A{y\x12`\x0eT>'
p1748
tp1749
Rp1750
tp1751
a(S'graph-sto-iht'
p1752
I8
F152.44623613357544
I64
F3.873295783996582
g3
(g7
S'=\x1a\x92\x91\x07\x83x>'
p1753
tp1754
Rp1755
tp1756
atp1757
a(I9
I612
(lp1758
(g1747
I9
F178.8276960849762
I72
F0.0416262149810791
g3
(g7
S'\xd5m\x95\xd9L\x98e>'
p1759
tp1760
Rp1761
tp1762
a(g1752
I9
F181.43795013427734
I72
F4.213366508483887
g3
(g7
S'a^$\x96qEf>'
p1763
tp1764
Rp1765
tp1766
atp1767
a(I10
I612
(lp1768
(S'sto-iht'
p1769
I9
F116.65427207946777
I72
F0.03416013717651367
g3
(g7
S'`\xb9T\x9b\x7f\x98Y>'
p1770
tp1771
Rp1772
tp1773
a(S'graph-sto-iht'
p1774
I9
F183.5938220024109
I72
F9.030921697616577
g3
(g7
S'6\x11\x93Z\xf5\x13G>'
p1775
tp1776
Rp1777
tp1778
atp1779
a(I11
I612
(lp1780
(g1769
I9
F173.7543170452118
I72
F0.042470693588256836
g3
(g7
S'\x1c+\x17x\x88\xa8U>'
p1781
tp1782
Rp1783
tp1784
a(g1774
I9
F179.87966394424438
I72
F5.753090143203735
g3
(g7
S'{\xe8\xceHd\xc1Q>'
p1785
tp1786
Rp1787
tp1788
atp1789
a(I12
I612
(lp1790
(S'sto-iht'
p1791
I9
F110.19003295898438
I72
F0.03469109535217285
g3
(g7
S'\xb4y\\\x94\xc7w]>'
p1792
tp1793
Rp1794
tp1795
a(S'graph-sto-iht'
p1796
I9
F184.70629382133484
I72
F5.159067153930664
g3
(g7
S'\xf52.K\xde\xa2V>'
p1797
tp1798
Rp1799
tp1800
atp1801
a(I13
I612
(lp1802
(g1791
I9
F179.07191014289856
I72
F0.04183363914489746
g3
(g7
S'\xe7}\xfa=Q\x91]>'
p1803
tp1804
Rp1805
tp1806
a(g1796
I9
F182.63914489746094
I72
F4.482591390609741
g3
(g7
S'g\xa5\x19\xbcE\xd4W>'
p1807
tp1808
Rp1809
tp1810
atp1811
a(I14
I612
(lp1812
(S'sto-iht'
p1813
I9
F172.40536904335022
I72
F0.0437464714050293
g3
(g7
S'\x99\x01\xcf\xe6;\x01d>'
p1814
tp1815
Rp1816
tp1817
a(S'graph-sto-iht'
p1818
I9
F177.53652501106262
I72
F4.596105575561523
g3
(g7
S'Tx>}\xdc9h>'
p1819
tp1820
Rp1821
tp1822
atp1823
a(I15
I612
(lp1824
(g1813
I9
F104.29399394989014
I72
F0.03369617462158203
g3
(g7
S'\xb7\xc9\xfd{t\x08L>'
p1825
tp1826
Rp1827
tp1828
a(g1818
I9
F96.59729099273682
I72
F3.0983970165252686
g3
(g7
S'\xc9\xb8T>q3O>'
p1829
tp1830
Rp1831
tp1832
atp1833
a(I16
I612
(lp1834
(S'sto-iht'
p1835
I9
F178.13923692703247
I72
F0.042934417724609375
g3
(g7
S'F\xf1\xf3\x1ba\xcc^>'
p1836
tp1837
Rp1838
tp1839
a(S'graph-sto-iht'
p1840
I9
F183.87664604187012
I72
F5.206599712371826
g3
(g7
S'\xec\xae\x07\xc6\xceZ\\>'
p1841
tp1842
Rp1843
tp1844
atp1845
a(I17
I612
(lp1846
(g1835
I9
F179.2471787929535
I72
F0.04265952110290527
g3
(g7
S'F\x12\xd3\xfa^S`>'
p1847
tp1848
Rp1849
tp1850
a(g1840
I9
F114.27225494384766
I72
F2.9260740280151367
g3
(g7
S'\xee*Z\x03\x81\x99U>'
p1851
tp1852
Rp1853
tp1854
atp1855
a(I18
I612
(lp1856
(S'sto-iht'
p1857
I9
F175.98792099952698
I72
F0.04334616661071777
g3
(g7
S'\x82\xca\x1b\xd0\x08T]>'
p1858
tp1859
Rp1860
tp1861
a(S'graph-sto-iht'
p1862
I9
F183.93234491348267
I72
F6.388938903808594
g3
(g7
S'\xdeo\x89\x06\x0e\xcbZ>'
p1863
tp1864
Rp1865
tp1866
atp1867
a(I19
I612
(lp1868
(g1857
I9
F178.91718292236328
I72
F0.043532371520996094
g3
(g7
S'lkB\x88<\x9cb>'
p1869
tp1870
Rp1871
tp1872
a(g1862
I9
F101.21911597251892
I72
F2.3699309825897217
g3
(g7
S'\x96H\xa5\xb0\x06\xe9V>'
p1873
tp1874
Rp1875
tp1876
atp1877
a(I20
I612
(lp1878
(S'sto-iht'
p1879
I9
F174.45455503463745
I72
F0.0427088737487793
g3
(g7
S'\xd3\xf0\x16\x96\x08\x1eU>'
p1880
tp1881
Rp1882
tp1883
a(S'graph-sto-iht'
p1884
I9
F179.64410400390625
I72
F5.858355522155762
g3
(g7
S'\xd8\xe9nx\x02\xd7M>'
p1885
tp1886
Rp1887
tp1888
atp1889
a(I21
I612
(lp1890
(g1879
I9
F174.20836997032166
I72
F0.04220700263977051
g3
(g7
S'<\xd1\x82lo\xa3\\>'
p1891
tp1892
Rp1893
tp1894
a(g1884
I9
F118.03746008872986
I72
F3.8711345195770264
g3
(g7
S'\xf0\xb1Q\xc1%\xe9V>'
p1895
tp1896
Rp1897
tp1898
atp1899
a(I22
I612
(lp1900
(S'sto-iht'
p1901
I9
F176.87462091445923
I72
F0.04371213912963867
g3
(g7
S'H \xe3\n\xdb\x11\\>'
p1902
tp1903
Rp1904
tp1905
a(S'graph-sto-iht'
p1906
I9
F181.17628002166748
I72
F4.459413766860962
g3
(g7
S'\x80\x92\xc9K\x95\xc3Q>'
p1907
tp1908
Rp1909
tp1910
atp1911
a(I23
I612
(lp1912
(g1901
I8
F159.26511406898499
I64
F0.03854727745056152
g3
(g7
S'\xdc<\xf3\x99pqy>'
p1913
tp1914
Rp1915
tp1916
a(g1906
I8
F139.11028814315796
I64
F4.504485368728638
g3
(g7
S'~\xe9.I\xf4\xdas>'
p1917
tp1918
Rp1919
tp1920
atp1921
a(I24
I612
(lp1922
(S'sto-iht'
p1923
I9
F174.23608899116516
I72
F0.04225420951843262
g3
(g7
S'm\xb4\xbc\xe9(\xa8I>'
p1924
tp1925
Rp1926
tp1927
a(S'graph-sto-iht'
p1928
I9
F180.1341907978058
I72
F5.402511358261108
g3
(g7
S'^\xa8\xc7\xa8\xd4\xfdT>'
p1929
tp1930
Rp1931
tp1932
atp1933
a(I25
I612
(lp1934
(g1923
I9
F174.27638792991638
I72
F0.04178476333618164
g3
(g7
S'X\x18no\x90ff>'
p1935
tp1936
Rp1937
tp1938
a(g1928
I9
F147.5976438522339
I72
F3.6784677505493164
g3
(g7
S'\xd7\xd3\xd7:\xdc\xddh>'
p1939
tp1940
Rp1941
tp1942
atp1943
a(I26
I612
(lp1944
(S'sto-iht'
p1945
I9
F179.04435110092163
I72
F0.04333305358886719
g3
(g7
S'Y\xd5-fD\x10S>'
p1946
tp1947
Rp1948
tp1949
a(S'graph-sto-iht'
p1950
I9
F180.73257184028625
I72
F4.172677516937256
g3
(g7
S'T\x1d\xd9\xef\xb8\xaeQ>'
p1951
tp1952
Rp1953
tp1954
atp1955
a(I27
I612
(lp1956
(g1945
I9
F174.28474307060242
I72
F0.04197859764099121
g3
(g7
S'\x83\x99\xec5{ZL>'
p1957
tp1958
Rp1959
tp1960
a(g1950
I9
F138.24745798110962
I72
F4.553939580917358
g3
(g7
S'>S38K\xaeP>'
p1961
tp1962
Rp1963
tp1964
atp1965
a(I28
I612
(lp1966
(S'sto-iht'
p1967
I9
F176.92320203781128
I72
F0.0436551570892334
g3
(g7
S'C\\\xa3Ra\x8ds>'
p1968
tp1969
Rp1970
tp1971
a(S'graph-sto-iht'
p1972
I9
F181.86360096931458
I72
F5.315800905227661
g3
(g7
S'\x05\xd2O\xd5\x1f\xf6e>'
p1973
tp1974
Rp1975
tp1976
atp1977
a(I29
I612
(lp1978
(g1967
I9
F169.36158204078674
I72
F0.04295611381530762
g3
(g7
S'\xbf5\xa3Bo\xf6U>'
p1979
tp1980
Rp1981
tp1982
a(g1972
I9
F95.0746808052063
I72
F3.235194444656372
g3
(g7
S'\x08\r\xe9\x08i\x1fK>'
p1983
tp1984
Rp1985
tp1986
atp1987
a(I30
I612
(lp1988
(S'sto-iht'
p1989
I9
F172.69622898101807
I72
F0.0437009334564209
g3
(g7
S'\x87\x82\x95\xb5Z\xe5X>'
p1990
tp1991
Rp1992
tp1993
a(S'graph-sto-iht'
p1994
I9
F180.041748046875
I72
F6.188119173049927
g3
(g7
S'\x89\xb3\xee+\x97\xf5Z>'
p1995
tp1996
Rp1997
tp1998
atp1999
a(I31
I612
(lp2000
(g1989
I9
F160.61027097702026
I72
F0.04184675216674805
g3
(g7
S'\xaa\xa9\xfa\x99\x8f\xf0S>'
p2001
tp2002
Rp2003
tp2004
a(g1994
I8
F84.31343698501587
I64
F2.5000288486480713
g3
(g7
S'\xec\xa2;\xc7\xf0\x1dt>'
p2005
tp2006
Rp2007
tp2008
atp2009
a(I32
I612
(lp2010
(S'sto-iht'
p2011
I9
F173.70121097564697
I72
F0.04407525062561035
g3
(g7
S'\xb5\x1ad\xcdo\x95[>'
p2012
tp2013
Rp2014
tp2015
a(S'graph-sto-iht'
p2016
I9
F180.71026015281677
I72
F5.2921059131622314
g3
(g7
S'\xa0>:\x0c\xef\xa8U>'
p2017
tp2018
Rp2019
tp2020
atp2021
a(I33
I612
(lp2022
(g2011
I9
F173.15959191322327
I72
F0.04347991943359375
g3
(g7
S'\xadC\xa8.\xc0\xa2N>'
p2023
tp2024
Rp2025
tp2026
a(g2016
I8
F115.57241821289062
I64
F3.4977364540100098
g3
(g7
S'\x97\x89\x11\x1e\\_v>'
p2027
tp2028
Rp2029
tp2030
atp2031
a(I34
I612
(lp2032
(S'sto-iht'
p2033
I9
F174.44587302207947
I72
F0.041887760162353516
g3
(g7
S'\x00;<\x02\xd7>p>'
p2034
tp2035
Rp2036
tp2037
a(S'graph-sto-iht'
p2038
I9
F178.04592609405518
I72
F4.943836688995361
g3
(g7
S'%\xad\xc0\xa66\x8ei>'
p2039
tp2040
Rp2041
tp2042
atp2043
a(I35
I612
(lp2044
(g2033
I9
F176.13174891471863
I72
F0.04192471504211426
g3
(g7
S'\x05\x18\xd0\xde%\xba_>'
p2045
tp2046
Rp2047
tp2048
a(g2038
I9
F97.33644890785217
I72
F3.127438545227051
g3
(g7
S'\x96H#\xe1\xe9\x0bR>'
p2049
tp2050
Rp2051
tp2052
atp2053
a(I36
I612
(lp2054
(S'sto-iht'
p2055
I9
F173.4923620223999
I72
F0.04353761672973633
g3
(g7
S'\xc3ld\x80<\xfcd>'
p2056
tp2057
Rp2058
tp2059
a(S'graph-sto-iht'
p2060
I9
F179.57283902168274
I72
F4.668183326721191
g3
(g7
S'p~\x08-\xd1\xb3W>'
p2061
tp2062
Rp2063
tp2064
atp2065
a(I37
I612
(lp2066
(g2055
I9
F155.80241107940674
I72
F0.04150199890136719
g3
(g7
S'3\xf5\x03\x061([>'
p2067
tp2068
Rp2069
tp2070
a(g2060
I9
F127.54882717132568
I72
F4.161742687225342
g3
(g7
S'@\x9c\xa5{\x95\x19V>'
p2071
tp2072
Rp2073
tp2074
atp2075
a(I38
I612
(lp2076
(S'sto-iht'
p2077
I9
F174.10631203651428
I72
F0.04208564758300781
g3
(g7
S'\xda\xa6\xeeb\x1bmZ>'
p2078
tp2079
Rp2080
tp2081
a(S'graph-sto-iht'
p2082
I9
F175.11576080322266
I72
F4.271920919418335
g3
(g7
S'J0\xaf\xab\xae\x17X>'
p2083
tp2084
Rp2085
tp2086
atp2087
a(I39
I612
(lp2088
(g2077
I9
F141.59039998054504
I72
F0.037561655044555664
g3
(g7
S'\x1a\x9f\x03\r\x19\x04U>'
p2089
tp2090
Rp2091
tp2092
a(g2082
I9
F114.25361204147339
I72
F3.457364082336426
g3
(g7
S'\xb2!\xf5\xbcm\xf8^>'
p2093
tp2094
Rp2095
tp2096
atp2097
a(I40
I612
(lp2098
(S'sto-iht'
p2099
I9
F178.66651487350464
I72
F0.04325747489929199
g3
(g7
S'\xff\xc5\x15\x8esJh>'
p2100
tp2101
Rp2102
tp2103
a(S'graph-sto-iht'
p2104
I9
F182.99648594856262
I72
F5.576190710067749
g3
(g7
S'G\xd7\xbc\x15\x07\xe2\\>'
p2105
tp2106
Rp2107
tp2108
atp2109
a(I41
I612
(lp2110
(g2099
I9
F150.84978485107422
I72
F0.039838314056396484
g3
(g7
S'\xfd\x08\xf5\xfac\xb1d>'
p2111
tp2112
Rp2113
tp2114
a(g2104
I9
F146.957927942276
I72
F4.561381578445435
g3
(g7
S'\xfdK\x83\xae\x9e\x1ba>'
p2115
tp2116
Rp2117
tp2118
atp2119
a(I42
I612
(lp2120
(S'sto-iht'
p2121
I9
F177.20682001113892
I72
F0.04398155212402344
g3
(g7
S't[\x95\xc5\xc2<V>'
p2122
tp2123
Rp2124
tp2125
a(S'graph-sto-iht'
p2126
I9
F182.8262710571289
I72
F5.298984527587891
g3
(g7
S'D\x08x\x10\xf5\xb5Z>'
p2127
tp2128
Rp2129
tp2130
atp2131
a(I43
I612
(lp2132
(g2121
I9
F177.99350690841675
I72
F0.04375457763671875
g3
(g7
S'\xb5\xdb$h\xb6\xcbY>'
p2133
tp2134
Rp2135
tp2136
a(g2126
I8
F128.4422628879547
I64
F3.8242244720458984
g3
(g7
S'\x05\xe8\xf0\x9e\xf5.z>'
p2137
tp2138
Rp2139
tp2140
atp2141
a(I44
I612
(lp2142
(S'sto-iht'
p2143
I9
F178.85678696632385
I72
F0.04288053512573242
g3
(g7
S'sY\xdaqB\xd6X>'
p2144
tp2145
Rp2146
tp2147
a(S'graph-sto-iht'
p2148
I9
F175.1956810951233
I72
F6.107455730438232
g3
(g7
S'd\xd8\xf1h\x80\xa5[>'
p2149
tp2150
Rp2151
tp2152
atp2153
a(I45
I612
(lp2154
(g2143
I9
F178.56647205352783
I72
F0.042737722396850586
g3
(g7
S'j=A\xce\x1bij>'
p2155
tp2156
Rp2157
tp2158
a(g2148
I9
F128.3525857925415
I72
F4.088294267654419
g3
(g7
S'\xf6\xcd\xd3\xc6b>\\>'
p2159
tp2160
Rp2161
tp2162
atp2163
a(I46
I612
(lp2164
(S'sto-iht'
p2165
I9
F174.6795690059662
I72
F0.04186677932739258
g3
(g7
S'\x13\xd519\xab\xf5P>'
p2166
tp2167
Rp2168
tp2169
a(S'graph-sto-iht'
p2170
I9
F120.47376990318298
I72
F4.022875070571899
g3
(g7
S'\xdf\xf2P\xa7U\xca[>'
p2171
tp2172
Rp2173
tp2174
atp2175
a(I47
I612
(lp2176
(g2165
I9
F119.10943913459778
I72
F0.03412628173828125
g3
(g7
S"\x0b\xd4N\xd0'rm>"
p2177
tp2178
Rp2179
tp2180
a(g2170
I9
F101.78405213356018
I72
F2.92228102684021
g3
(g7
S'\x1c\xc1!E\x1a\x85c>'
p2181
tp2182
Rp2183
tp2184
atp2185
a(I48
I612
(lp2186
(S'sto-iht'
p2187
I9
F178.99825286865234
I72
F0.0434565544128418
g3
(g7
S'\xd4\xbbh3\x9a!W>'
p2188
tp2189
Rp2190
tp2191
a(S'graph-sto-iht'
p2192
I9
F184.5030701160431
I72
F5.0974180698394775
g3
(g7
S'd\x98\xe8\xa1\xa1!U>'
p2193
tp2194
Rp2195
tp2196
atp2197
a(I49
I612
(lp2198
(g2187
I9
F178.34573101997375
I72
F0.04307436943054199
g3
(g7
S'\xfa\xbd\xbe.\xffU`>'
p2199
tp2200
Rp2201
tp2202
a(g2192
I9
F94.50616908073425
I72
F3.1568267345428467
g3
(g7
S'\xb3tE*\xa0O`>'
p2203
tp2204
Rp2205
tp2206
atp2207
a(I0
I490
(lp2208
(S'sto-iht'
p2209
I9
F181.39957404136658
I90
F0.05490303039550781
g3
(g7
S'\x88\x99k\xd1\x1d\x0fs>'
p2210
tp2211
Rp2212
tp2213
a(S'graph-sto-iht'
p2214
I9
F185.50881004333496
I90
F5.440569877624512
g3
(g7
S'\x83\x93g\xa4\x84\xd6w>'
p2215
tp2216
Rp2217
tp2218
atp2219
a(I1
I490
(lp2220
(g2209
I9
F159.74966597557068
I90
F0.05064654350280762
g3
(g7
S'\x12\xeb\xd6\r\x83\x80[>'
p2221
tp2222
Rp2223
tp2224
a(g2214
I9
F90.90560913085938
I90
F3.202547550201416
g3
(g7
S'Ms\xd5\xf0<WY>'
p2225
tp2226
Rp2227
tp2228
atp2229
a(I2
I490
(lp2230
(S'sto-iht'
p2231
I9
F98.04428195953369
I90
F0.03984880447387695
g3
(g7
S'\xdb\xd3\x9816\x7fn>'
p2232
tp2233
Rp2234
tp2235
a(S'graph-sto-iht'
p2236
I9
F180.66400504112244
I90
F4.859249830245972
g3
(g7
S'\xc9\x91?"eWa>'
p2237
tp2238
Rp2239
tp2240
atp2241
a(I3
I490
(lp2242
(g2231
I9
F176.9307599067688
I90
F0.05226016044616699
g3
(g7
S'F\xa5K\x82\x0f\xc6i>'
p2243
tp2244
Rp2245
tp2246
a(g2236
I9
F109.12055587768555
I90
F4.4248046875
g3
(g7
S'\xe8D\xf0\x80\xa1\xf0U>'
p2247
tp2248
Rp2249
tp2250
atp2251
a(I4
I490
(lp2252
(S'sto-iht'
p2253
I9
F95.45849180221558
I90
F0.04065680503845215
g3
(g7
S'\xe5\n}:\x0f\xe7w>'
p2254
tp2255
Rp2256
tp2257
a(S'graph-sto-iht'
p2258
I9
F99.01475310325623
I90
F3.7347421646118164
g3
(g7
S'.\n\xbdy$6p>'
p2259
tp2260
Rp2261
tp2262
atp2263
a(I5
I490
(lp2264
(g2253
I9
F95.52184891700745
I90
F0.040297746658325195
g3
(g7
S'L\x98m%\xd3Ob>'
p2265
tp2266
Rp2267
tp2268
a(g2258
I8
F87.87495493888855
I80
F3.8939998149871826
g3
(g7
S'l\xb1?\xac\xcc\xc8t>'
p2269
tp2270
Rp2271
tp2272
atp2273
a(I6
I490
(lp2274
(S'sto-iht'
p2275
I9
F95.4734890460968
I90
F0.0415346622467041
g3
(g7
S'~]p\x97fzi>'
p2276
tp2277
Rp2278
tp2279
a(S'graph-sto-iht'
p2280
I9
F124.6922299861908
I90
F7.276939153671265
g3
(g7
S'\xe5\x8aUV\xbece>'
p2281
tp2282
Rp2283
tp2284
atp2285
a(I7
I490
(lp2286
(g2275
I10
F201.1823959350586
I100
F0.0611112117767334
g3
(g7
S'o\x99b\xfb\xafBN>'
p2287
tp2288
Rp2289
tp2290
a(g2280
I9
F113.24026703834534
I90
F4.496293783187866
g3
(g7
S'\x9c&o\x8c\x82\x00h>'
p2291
tp2292
Rp2293
tp2294
atp2295
a(I8
I490
(lp2296
(S'sto-iht'
p2297
I9
F180.96840715408325
I90
F0.05372929573059082
g3
(g7
S'v#\x98\xfd\xa0\xb7w>'
p2298
tp2299
Rp2300
tp2301
a(S'graph-sto-iht'
p2302
I9
F182.06186199188232
I90
F7.960936784744263
g3
(g7
S'&`\xa6\n~FT>'
p2303
tp2304
Rp2305
tp2306
atp2307
a(I9
I490
(lp2308
(g2297
I9
F88.08627820014954
I90
F0.036057472229003906
g3
(g7
S'\x15\xc1\xdc\xd0\x0e\x1fs>'
p2309
tp2310
Rp2311
tp2312
a(g2302
I9
F84.54128789901733
I90
F2.9961230754852295
g3
(g7
S'\xc2\xdePin\xe6^>'
p2313
tp2314
Rp2315
tp2316
atp2317
a(I10
I490
(lp2318
(S'sto-iht'
p2319
I9
F105.96104717254639
I90
F0.042476654052734375
g3
(g7
S'`\x9d\xf7!\xe1po>'
p2320
tp2321
Rp2322
tp2323
a(S'graph-sto-iht'
p2324
I9
F98.2484200000763
I90
F3.9236223697662354
g3
(g7
S'\xb6Mo\x91\xf8\x8ca>'
p2325
tp2326
Rp2327
tp2328
atp2329
a(I11
I490
(lp2330
(g2319
I9
F93.38401484489441
I90
F0.03978896141052246
g3
(g7
S'\xae\xb2\xb3\x8a\xfc\xd5n>'
p2331
tp2332
Rp2333
tp2334
a(g2324
I9
F95.03890299797058
I90
F3.2475624084472656
g3
(g7
S'&\xcf\xa3\xcawSo>'
p2335
tp2336
Rp2337
tp2338
atp2339
a(I12
I490
(lp2340
(S'sto-iht'
p2341
I9
F178.1507019996643
I90
F0.0550997257232666
g3
(g7
S'\x19b_\xb5{Gy>'
p2342
tp2343
Rp2344
tp2345
a(S'graph-sto-iht'
p2346
I9
F181.45681190490723
I90
F6.523460149765015
g3
(g7
S'{rG\xc9p\x13f>'
p2347
tp2348
Rp2349
tp2350
atp2351
a(I13
I490
(lp2352
(g2341
I9
F95.73844385147095
I90
F0.03794527053833008
g3
(g7
S'0\x87\xe82\xd8Jx>'
p2353
tp2354
Rp2355
tp2356
a(g2346
I9
F83.55933594703674
I90
F1.7742946147918701
g3
(g7
S'\x92\xbec\xc7\xa0sg>'
p2357
tp2358
Rp2359
tp2360
atp2361
a(I14
I490
(lp2362
(S'sto-iht'
p2363
I9
F94.56216096878052
I90
F0.039963722229003906
g3
(g7
S'\xabY0u2Gh>'
p2364
tp2365
Rp2366
tp2367
a(S'graph-sto-iht'
p2368
I9
F97.9872031211853
I90
F3.5345370769500732
g3
(g7
S'\x8d#Q\xf5\x92\xd2n>'
p2369
tp2370
Rp2371
tp2372
atp2373
a(I15
I490
(lp2374
(g2363
I9
F93.80419301986694
I90
F0.03932642936706543
g3
(g7
S'\xe4c\xf2\x97\xdf7t>'
p2375
tp2376
Rp2377
tp2378
a(g2368
I9
F95.57735705375671
I90
F3.6782126426696777
g3
(g7
S'\xf8\x127\x1e\xac\xbck>'
p2379
tp2380
Rp2381
tp2382
atp2383
a(I16
I490
(lp2384
(S'sto-iht'
p2385
I9
F95.02108001708984
I90
F0.04009270668029785
g3
(g7
S'\x19\xed!\x1f\xa9Qn>'
p2386
tp2387
Rp2388
tp2389
a(S'graph-sto-iht'
p2390
I9
F98.3517849445343
I90
F3.718144655227661
g3
(g7
S'\xa1\x13RTQ+e>'
p2391
tp2392
Rp2393
tp2394
atp2395
a(I17
I490
(lp2396
(g2385
I9
F93.93950390815735
I90
F0.039758920669555664
g3
(g7
S'\x08|\xaaY\xa8\x9ar>'
p2397
tp2398
Rp2399
tp2400
a(g2390
I9
F95.3716299533844
I90
F3.4098196029663086
g3
(g7
S'\x8e\xd8"\xc4\xba\x03Z>'
p2401
tp2402
Rp2403
tp2404
atp2405
a(I18
I490
(lp2406
(S'sto-iht'
p2407
I9
F177.31565809249878
I90
F0.05432891845703125
g3
(g7
S'\xd1n9\xfd\x08\xa5`>'
p2408
tp2409
Rp2410
tp2411
a(S'graph-sto-iht'
p2412
I9
F177.6252839565277
I90
F5.086375713348389
g3
(g7
S'\x882>\xf15[_>'
p2413
tp2414
Rp2415
tp2416
atp2417
a(I19
I490
(lp2418
(g2407
I9
F87.547935962677
I90
F0.03629493713378906
g3
(g7
S'\xf9\xfb\xbb\x99\xf4\xcao>'
p2419
tp2420
Rp2421
tp2422
a(g2412
I9
F84.14487195014954
I90
F2.2510805130004883
g3
(g7
S'NT\xcc\xee\xa5\xd7T>'
p2423
tp2424
Rp2425
tp2426
atp2427
a(I20
I490
(lp2428
(S'sto-iht'
p2429
I9
F175.62594199180603
I90
F0.053924560546875
g3
(g7
S'\xc1\xee1x\xdfam>'
p2430
tp2431
Rp2432
tp2433
a(S'graph-sto-iht'
p2434
I9
F135.3272979259491
I90
F5.8770835399627686
g3
(g7
S'\xe9\x8f\x15\x98(\x19]>'
p2435
tp2436
Rp2437
tp2438
atp2439
a(I21
I490
(lp2440
(g2429
I9
F89.47309184074402
I90
F0.03763866424560547
g3
(g7
S'\xd6f\xd8c\x99Bd>'
p2441
tp2442
Rp2443
tp2444
a(g2434
I9
F84.53533101081848
I90
F2.8663902282714844
g3
(g7
S'\xe0\x92Ct\xb5IX>'
p2445
tp2446
Rp2447
tp2448
atp2449
a(I22
I490
(lp2450
(S'sto-iht'
p2451
I9
F110.34222602844238
I90
F0.04380202293395996
g3
(g7
S'\xc7&PJe\x89c>'
p2452
tp2453
Rp2454
tp2455
a(S'graph-sto-iht'
p2456
I9
F100.4440381526947
I90
F5.250611305236816
g3
(g7
S'3\x07H\xe6\x1cU]>'
p2457
tp2458
Rp2459
tp2460
atp2461
a(I23
I490
(lp2462
(g2451
I9
F93.7633318901062
I90
F0.04019498825073242
g3
(g7
S'\xdb\xea\x10\xa0Sqe>'
p2463
tp2464
Rp2465
tp2466
a(g2456
I9
F93.40473890304565
I90
F3.044809579849243
g3
(g7
S'\xcd6\x80\xee\xd2\xa8c>'
p2467
tp2468
Rp2469
tp2470
atp2471
a(I24
I490
(lp2472
(S'sto-iht'
p2473
I9
F182.8112690448761
I90
F0.05519747734069824
g3
(g7
S'Y\xfa\xff\xbb\x01\xa9X>'
p2474
tp2475
Rp2476
tp2477
a(S'graph-sto-iht'
p2478
I9
F172.0257589817047
I90
F6.571045637130737
g3
(g7
S'\x0f\x10\xa5\xa9\xb6\xd1b>'
p2479
tp2480
Rp2481
tp2482
atp2483
a(I25
I490
(lp2484
(g2473
I9
F84.25394892692566
I90
F0.03569936752319336
g3
(g7
S'V\x95D\x06ayc>'
p2485
tp2486
Rp2487
tp2488
a(g2478
I9
F83.26854991912842
I90
F2.1047215461730957
g3
(g7
S'\xecF\xd2\xd0\x81\x06U>'
p2489
tp2490
Rp2491
tp2492
atp2493
a(I26
I490
(lp2494
(S'sto-iht'
p2495
I9
F175.83868193626404
I90
F0.054422855377197266
g3
(g7
S'\x87^<\xa6\x83Qp>'
p2496
tp2497
Rp2498
tp2499
a(S'graph-sto-iht'
p2500
I9
F177.47308683395386
I90
F6.761590003967285
g3
(g7
S'i\xa7\x94\xa2D\x82n>'
p2501
tp2502
Rp2503
tp2504
atp2505
a(I27
I490
(lp2506
(g2495
I10
F93.68128609657288
I100
F0.03927969932556152
g3
(g7
S"'\xeb\xed\x8e\xe0\x08X>"
p2507
tp2508
Rp2509
tp2510
a(g2500
I9
F83.44325113296509
I90
F2.5240650177001953
g3
(g7
S'\\,J$\xcd\x81r>'
p2511
tp2512
Rp2513
tp2514
atp2515
a(I28
I490
(lp2516
(S'sto-iht'
p2517
I9
F142.1858789920807
I90
F0.04789304733276367
g3
(g7
S'\xb9\xcf\x9dz)Ps>'
p2518
tp2519
Rp2520
tp2521
a(S'graph-sto-iht'
p2522
I9
F98.52113008499146
I90
F3.609865188598633
g3
(g7
S"'\xb4\x9c\xcd\xfa'v>"
p2523
tp2524
Rp2525
tp2526
atp2527
a(I29
I490
(lp2528
(g2517
I9
F132.48224997520447
I90
F0.04459667205810547
g3
(g7
S'\xe5qoa\xf5\xd4r>'
p2529
tp2530
Rp2531
tp2532
a(g2522
I9
F85.38497114181519
I90
F3.229886293411255
g3
(g7
S'\x0eqB\xc3\x8e\xb9l>'
p2533
tp2534
Rp2535
tp2536
atp2537
a(I30
I490
(lp2538
(S'sto-iht'
p2539
I9
F176.58082103729248
I90
F0.05301690101623535
g3
(g7
S'\xfe\x82\xa7D\xa4\xa5f>'
p2540
tp2541
Rp2542
tp2543
a(S'graph-sto-iht'
p2544
I9
F175.91710996627808
I90
F6.2448365688323975
g3
(g7
S'ut\x8d\xad\xbal\\>'
p2545
tp2546
Rp2547
tp2548
atp2549
a(I31
I490
(lp2550
(g2539
I9
F83.29780197143555
I90
F0.03444409370422363
g3
(g7
S'\xd6b}\x02 \xf9r>'
p2551
tp2552
Rp2553
tp2554
a(g2544
I9
F83.35043811798096
I90
F2.3750710487365723
g3
(g7
S'yCo\x14z\x18X>'
p2555
tp2556
Rp2557
tp2558
atp2559
a(I32
I490
(lp2560
(S'sto-iht'
p2561
I9
F143.92665719985962
I90
F0.04728865623474121
g3
(g7
S'\xa8\x82\xa1gz\x11z>'
p2562
tp2563
Rp2564
tp2565
a(S'graph-sto-iht'
p2566
I9
F155.8226900100708
I90
F6.533888339996338
g3
(g7
S'\xec\x0fS\x14\xdf\xe9k>'
p2567
tp2568
Rp2569
tp2570
atp2571
a(I33
I490
(lp2572
(g2561
I9
F102.7252950668335
I90
F0.038892507553100586
g3
(g7
S'V\xfdd"\xfc{y>'
p2573
tp2574
Rp2575
tp2576
a(g2566
I9
F84.50255918502808
I90
F2.5051791667938232
g3
(g7
S's\x8f\x9e\xe16\xc5d>'
p2577
tp2578
Rp2579
tp2580
atp2581
a(I34
I490
(lp2582
(S'sto-iht'
p2583
I9
F175.84246611595154
I90
F0.05409407615661621
g3
(g7
S'\x15\x9c\x949\x8ez_>'
p2584
tp2585
Rp2586
tp2587
a(S'graph-sto-iht'
p2588
I9
F156.76758098602295
I90
F4.947031736373901
g3
(g7
S'\xb0\xa1\x02_xSX>'
p2589
tp2590
Rp2591
tp2592
atp2593
a(I35
I490
(lp2594
(g2583
I9
F85.67304301261902
I90
F0.0356287956237793
g3
(g7
S'{\xe2\x96\xd8\x81\xd6c>'
p2595
tp2596
Rp2597
tp2598
a(g2588
I9
F84.56939601898193
I90
F2.888082504272461
g3
(g7
S'~\xd3VU\x10Eb>'
p2599
tp2600
Rp2601
tp2602
atp2603
a(I36
I490
(lp2604
(S'sto-iht'
p2605
I9
F183.35063791275024
I90
F0.05509161949157715
g3
(g7
S'\x05\xe5\xd6\xb0\xf2co>'
p2606
tp2607
Rp2608
tp2609
a(S'graph-sto-iht'
p2610
I9
F163.1357250213623
I90
F5.12369441986084
g3
(g7
S'eK\xf2a\xa2\x99a>'
p2611
tp2612
Rp2613
tp2614
atp2615
a(I37
I490
(lp2616
(g2605
I9
F85.60726499557495
I90
F0.03620004653930664
g3
(g7
S'\xd4\xcc\x03R\x8f5`>'
p2617
tp2618
Rp2619
tp2620
a(g2610
I9
F85.78746509552002
I90
F2.020592212677002
g3
(g7
S'\xed\xd8\xac\x7f\xf8\xbaM>'
p2621
tp2622
Rp2623
tp2624
atp2625
a(I38
I490
(lp2626
(S'sto-iht'
p2627
I9
F175.69895005226135
I90
F0.054212093353271484
g3
(g7
S'M+\xe6\x9a\xcaho>'
p2628
tp2629
Rp2630
tp2631
a(S'graph-sto-iht'
p2632
I9
F106.09390616416931
I90
F3.864196538925171
g3
(g7
S'\xb26Wr\xd7*d>'
p2633
tp2634
Rp2635
tp2636
atp2637
a(I39
I490
(lp2638
(g2627
I9
F90.27009987831116
I90
F0.037978410720825195
g3
(g7
S'\xc4\xd6;\xb2\x89\xf1q>'
p2639
tp2640
Rp2641
tp2642
a(g2632
I9
F83.84129309654236
I90
F1.988476276397705
g3
(g7
S'\r\xba\xcd\xabN[_>'
p2643
tp2644
Rp2645
tp2646
atp2647
a(I40
I490
(lp2648
(S'sto-iht'
p2649
I10
F189.811665058136
I100
F0.05709481239318848
g3
(g7
S'\nu\xa2\xa1\xf0\x99_>'
p2650
tp2651
Rp2652
tp2653
a(S'graph-sto-iht'
p2654
I9
F140.68861603736877
I90
F3.8698596954345703
g3
(g7
S'\x06\xd0A}\xed\xe5r>'
p2655
tp2656
Rp2657
tp2658
atp2659
a(I41
I490
(lp2660
(g2649
I9
F84.67744493484497
I90
F0.034735679626464844
g3
(g7
S'8\x98\xe3[2Om>'
p2661
tp2662
Rp2663
tp2664
a(g2654
I9
F83.56938099861145
I90
F2.633824586868286
g3
(g7
S'C\x04\xc9G\x1b\xea^>'
p2665
tp2666
Rp2667
tp2668
atp2669
a(I42
I490
(lp2670
(S'sto-iht'
p2671
I9
F181.5578649044037
I90
F0.05337023735046387
g3
(g7
S'[\xd8\xbcB\x8a\x8be>'
p2672
tp2673
Rp2674
tp2675
a(S'graph-sto-iht'
p2676
I9
F163.96672916412354
I90
F4.161324739456177
g3
(g7
S'\x96\t\xda\xa3\x01bf>'
p2677
tp2678
Rp2679
tp2680
atp2681
a(I43
I490
(lp2682
(g2671
I10
F91.62319707870483
I100
F0.03752851486206055
g3
(g7
S')\x95\xbf\xb9\xf8\x9bU>'
p2683
tp2684
Rp2685
tp2686
a(g2676
I9
F81.91760802268982
I90
F2.9502687454223633
g3
(g7
S'3\x7fM\xc5\x8c>h>'
p2687
tp2688
Rp2689
tp2690
atp2691
a(I44
I490
(lp2692
(S'sto-iht'
p2693
I9
F176.8728311061859
I90
F0.05453681945800781
g3
(g7
S'\x9f\x1dja\t\xf0`>'
p2694
tp2695
Rp2696
tp2697
a(S'graph-sto-iht'
p2698
I9
F149.48413515090942
I90
F6.013171434402466
g3
(g7
S'\x1d\x8d\xe9\x81\t\xd7`>'
p2699
tp2700
Rp2701
tp2702
atp2703
a(I45
I490
(lp2704
(g2693
I9
F84.57068514823914
I90
F0.035588741302490234
g3
(g7
S'r\xc9\xa10&sp>'
p2705
tp2706
Rp2707
tp2708
a(g2698
I9
F83.6533510684967
I90
F2.2130110263824463
g3
(g7
S'\x98\xa8/\xcd\x03\xe5e>'
p2709
tp2710
Rp2711
tp2712
atp2713
a(I46
I490
(lp2714
(S'sto-iht'
p2715
I9
F182.3507421016693
I90
F0.05415487289428711
g3
(g7
S'\x88\xd4\x9b\xfc\x80\xaeb>'
p2716
tp2717
Rp2718
tp2719
a(S'graph-sto-iht'
p2720
I9
F131.22223615646362
I90
F4.469707012176514
g3
(g7
S'c\x07\xae\xb0P\x04a>'
p2721
tp2722
Rp2723
tp2724
atp2725
a(I47
I490
(lp2726
(g2715
I9
F82.93433284759521
I90
F0.034094810485839844
g3
(g7
S'\x10M\xe0\x9c\xf4\x01r>'
p2727
tp2728
Rp2729
tp2730
a(g2720
I9
F83.22783398628235
I90
F2.3183255195617676
g3
(g7
S'%\xbc_r\x04Ym>'
p2731
tp2732
Rp2733
tp2734
atp2735
a(I48
I490
(lp2736
(S'sto-iht'
p2737
I9
F181.46282982826233
I90
F0.05434870719909668
g3
(g7
S'\x85J\x8aW\x85Kh>'
p2738
tp2739
Rp2740
tp2741
a(S'graph-sto-iht'
p2742
I9
F135.66164684295654
I90
F3.5306286811828613
g3
(g7
S'j\xbbZ\x06^\x1bb>'
p2743
tp2744
Rp2745
tp2746
atp2747
a(I49
I490
(lp2748
(g2737
I9
F81.86695694923401
I90
F0.03355145454406738
g3
(g7
S'\x8fh\x13\xe9\x05Rc>'
p2749
tp2750
Rp2751
tp2752
a(g2742
I9
F81.31722283363342
I90
F1.8827338218688965
g3
(g7
S'\x9c\xec\xb1\x82 (T>'
p2753
tp2754
Rp2755
tp2756
atp2757
a.