(lp0
(I0
I900
(lp1
(S'sto-iht'
p2
I15
F1.916646957397461
I15
F0.0
F0.0019521713256835938
cnumpy.core.multiarray
scalar
p3
(cnumpy
dtype
p4
(S'f8'
p5
I0
I1
tp6
Rp7
(I3
S'<'
p8
NNNI-1
I-1
I0
tp9
bS'b\xeb\x13A5"g>'
p10
tp11
Rp12
tp13
a(S'graph-sto-iht'
p14
I14
F1.9143898487091064
I14
F0.044077157974243164
F0.06409931182861328
g3
(g7
S'(.\x13,\x03\xaft>'
p15
tp16
Rp17
tp18
atp19
a(I1
I900
(lp20
(g2
I14
F1.8618319034576416
I14
F0.0
F0.0016031265258789062
g3
(g7
S'\xfa\xe3\xc1\x8d\xa2\xafm>'
p21
tp22
Rp23
tp24
a(g14
I14
F1.9940218925476074
I14
F0.04237556457519531
F0.0781099796295166
g3
(g7
S'\xc6]=\xb5\xe4\x8bc>'
p25
tp26
Rp27
tp28
atp29
a(I2
I900
(lp30
(S'sto-iht'
p31
I14
F1.7685761451721191
I14
F0.0
F0.0018203258514404297
g3
(g7
S'\xcd0\xc0\xfa\xd2y{>'
p32
tp33
Rp34
tp35
a(S'graph-sto-iht'
p36
I14
F1.8754358291625977
I14
F0.04282879829406738
F0.08283352851867676
g3
(g7
S'\xb6fH8\xb9\x0bh>'
p37
tp38
Rp39
tp40
atp41
a(I3
I900
(lp42
(g31
I14
F1.7788348197937012
I14
F0.0
F0.0017027854919433594
g3
(g7
S'\xe9\xa4P\xff\x1d\x81q>'
p43
tp44
Rp45
tp46
a(g36
I13
F1.8083631992340088
I13
F0.043222665786743164
F0.0964043140411377
g3
(g7
S'\xc8\x19\xbe\xc0\xbf\xa8q>'
p47
tp48
Rp49
tp50
atp51
a(I4
I900
(lp52
(S'sto-iht'
p53
I14
F1.7572669982910156
I14
F0.0
F0.0019135475158691406
g3
(g7
S'!c\x8e\xc3\x1b7c>'
p54
tp55
Rp56
tp57
a(S'graph-sto-iht'
p58
I13
F1.847337007522583
I13
F0.03975176811218262
F0.16825199127197266
g3
(g7
S'\xe7Z\xaa\xa9>\xabp>'
p59
tp60
Rp61
tp62
atp63
a(I5
I900
(lp64
(g53
I14
F1.8063328266143799
I14
F0.0
F0.001725912094116211
g3
(g7
S'\x88\xf8\xb3?\xf0\x1di>'
p65
tp66
Rp67
tp68
a(g58
I13
F1.794970989227295
I13
F0.043417930603027344
F0.12470507621765137
g3
(g7
S'\xc1_\x8e\x8f\x19\xbbf>'
p69
tp70
Rp71
tp72
atp73
a(I6
I900
(lp74
(S'sto-iht'
p75
I13
F1.1066911220550537
I13
F0.0
F0.0015959739685058594
g3
(g7
S'J\x08\xc70\xac\xc3l>'
p76
tp77
Rp78
tp79
a(S'graph-sto-iht'
p80
I14
F1.8668181896209717
I14
F0.0463869571685791
F0.08629822731018066
g3
(g7
S'B9\xe4\xe5\xf3\xe2l>'
p81
tp82
Rp83
tp84
atp85
a(I7
I900
(lp86
(g75
I14
F1.7492928504943848
I14
F0.0
F0.0017313957214355469
g3
(g7
S'd~k\xa4\xb9Tr>'
p87
tp88
Rp89
tp90
a(g80
I12
F1.6937339305877686
I12
F0.03987383842468262
F0.07726502418518066
g3
(g7
S'\x98[\xa5x\x0f\xacv>'
p91
tp92
Rp93
tp94
atp95
a(I8
I900
(lp96
(S'sto-iht'
p97
I14
F1.0039088726043701
I14
F0.0
F0.001325845718383789
g3
(g7
S'<\x1dh\x05\x83\rc>'
p98
tp99
Rp100
tp101
a(S'graph-sto-iht'
p102
I13
F0.992530107498169
I13
F0.024065017700195312
F0.039051055908203125
g3
(g7
S'\x94\x81w\xa0\xc3\xa0j>'
p103
tp104
Rp105
tp106
atp107
a(I9
I900
(lp108
(g97
I15
F1.050246000289917
I15
F0.0
F0.0013229846954345703
g3
(g7
S':^\x82j^\x13a>'
p109
tp110
Rp111
tp112
a(g102
I17
F1.2990479469299316
I17
F0.029270648956298828
F0.08074092864990234
g3
(g7
S'\xa5\x16D\xa9\xb6\xben>'
p113
tp114
Rp115
tp116
atp117
a(I10
I900
(lp118
(S'sto-iht'
p119
I18
F1.2657639980316162
I18
F0.0
F0.0015642642974853516
g3
(g7
S'F*U\x97wSb>'
p120
tp121
Rp122
tp123
a(S'graph-sto-iht'
p124
I17
F1.3304128646850586
I17
F0.09414505958557129
F0.05551505088806152
g3
(g7
S'\xa0sSM \xf4r>'
p125
tp126
Rp127
tp128
atp129
a(I11
I900
(lp130
(g119
I15
F1.0746290683746338
I15
F0.0
F0.0013217926025390625
g3
(g7
S'Y \x9a\x85m+^>'
p131
tp132
Rp133
tp134
a(g124
I14
F1.056243896484375
I14
F0.02422356605529785
F0.04418349266052246
g3
(g7
S'\x94\xce\xd6l\xe5\xa4^>'
p135
tp136
Rp137
tp138
atp139
a(I12
I900
(lp140
(S'sto-iht'
p141
I15
F1.0729551315307617
I15
F0.0
F0.0016431808471679688
g3
(g7
S']`rf\x861q>'
p142
tp143
Rp144
tp145
a(S'graph-sto-iht'
p146
I15
F1.16093111038208
I15
F0.02858424186706543
F0.08411121368408203
g3
(g7
S'\x8d\xb8-e\xa1m]>'
p147
tp148
Rp149
tp150
atp151
a(I13
I900
(lp152
(g141
I14
F0.9972789287567139
I14
F0.0
F0.0013496875762939453
g3
(g7
S'FV\xa6=\xfc\xa2c>'
p153
tp154
Rp155
tp156
a(g146
I12
F0.9028010368347168
I12
F0.020785808563232422
F0.03962397575378418
g3
(g7
S'g\x91A9\xaf\xd5k>'
p157
tp158
Rp159
tp160
atp161
a(I14
I900
(lp162
(S'sto-iht'
p163
I14
F1.7883050441741943
I14
F0.0
F0.0017380714416503906
g3
(g7
S'YH\xedL$/r>'
p164
tp165
Rp166
tp167
a(S'graph-sto-iht'
p168
I13
F1.724419116973877
I13
F0.04037642478942871
F0.05919337272644043
g3
(g7
S'|\x1dJ\xe9\xde\xf5g>'
p169
tp170
Rp171
tp172
atp173
a(I15
I900
(lp174
(g163
I14
F1.7608301639556885
I14
F0.0
F0.001615285873413086
g3
(g7
S'\x84\xa5\xbdq\x1c\xe0z>'
p175
tp176
Rp177
tp178
a(g168
I13
F1.7624468803405762
I13
F0.059676408767700195
F0.05886340141296387
g3
(g7
S'\x9b\xcd7\xa4C\xc8w>'
p179
tp180
Rp181
tp182
atp183
a(I16
I900
(lp184
(S'sto-iht'
p185
I14
F1.0026190280914307
I14
F0.0
F0.0015044212341308594
g3
(g7
S'\x83$\xa7\xf1\xc2\xdbq>'
p186
tp187
Rp188
tp189
a(S'graph-sto-iht'
p190
I14
F1.0501439571380615
I14
F0.03333115577697754
F0.033669471740722656
g3
(g7
S'\xdd\x81\xd7=m\xfbe>'
p191
tp192
Rp193
tp194
atp195
a(I17
I900
(lp196
(g185
I15
F1.0448429584503174
I15
F0.0
F0.0014731884002685547
g3
(g7
S'\xa7H\x88\x82\x10\xcan>'
p197
tp198
Rp199
tp200
a(g190
I15
F1.123776912689209
I15
F0.026202678680419922
F0.050901174545288086
g3
(g7
S'\xa9K\xb9\xe6\x01\x08h>'
p201
tp202
Rp203
tp204
atp205
a(I18
I900
(lp206
(S'sto-iht'
p207
I13
F1.654405117034912
I13
F0.0
F0.0015611648559570312
g3
(g7
S'iD\xa1\xbe$\x00t>'
p208
tp209
Rp210
tp211
a(S'graph-sto-iht'
p212
I13
F1.7181270122528076
I13
F0.038573503494262695
F0.05666184425354004
g3
(g7
S'\xf6x\xc8\x0f\x9e\x9cw>'
p213
tp214
Rp215
tp216
atp217
a(I19
I900
(lp218
(g207
I14
F1.7061128616333008
I14
F0.0
F0.001661062240600586
g3
(g7
S'\xc2i \xfc\x1a\xd5u>'
p219
tp220
Rp221
tp222
a(g212
I14
F2.024435043334961
I14
F0.04978609085083008
F0.07299375534057617
g3
(g7
S'\xe3\x02\xb8\x98\x1c\xeab>'
p223
tp224
Rp225
tp226
atp227
a(I20
I900
(lp228
(S'sto-iht'
p229
I13
F1.6576528549194336
I13
F0.0
F0.001516103744506836
g3
(g7
S'\xb3\x9f\xdf\x99\xe3\n~>'
p230
tp231
Rp232
tp233
a(S'graph-sto-iht'
p234
I13
F1.800987958908081
I13
F0.0379488468170166
F0.14243102073669434
g3
(g7
S'\xf0<k\xf4C\xd5n>'
p235
tp236
Rp237
tp238
atp239
a(I21
I900
(lp240
(g229
I15
F1.896416187286377
I15
F0.0
F0.0016560554504394531
g3
(g7
S'\xd7\x87\xb9\xa0\xc1Qe>'
p241
tp242
Rp243
tp244
a(g234
I14
F1.8991379737854004
I14
F0.04728579521179199
F0.06691145896911621
g3
(g7
S'q\xbe\xd5&;\xe6q>'
p245
tp246
Rp247
tp248
atp249
a(I22
I900
(lp250
(S'sto-iht'
p251
I16
F2.0414271354675293
I16
F0.0
F0.002187013626098633
g3
(g7
S'\x94\xe6\xb7\xce\x1a\x99l>'
p252
tp253
Rp254
tp255
a(S'graph-sto-iht'
p256
I16
F2.153125047683716
I16
F0.050275564193725586
F0.10153698921203613
g3
(g7
S'\xef\x96\xf1\xa3\xae(^>'
p257
tp258
Rp259
tp260
atp261
a(I23
I900
(lp262
(g251
I12
F1.5607211589813232
I12
F0.0
F0.0014853477478027344
g3
(g7
S'$T\x1f\x1b\x12wr>'
p263
tp264
Rp265
tp266
a(g256
I12
F1.5786809921264648
I12
F0.03827476501464844
F0.05518960952758789
g3
(g7
S'h\xaeF\xb11\xbfa>'
p267
tp268
Rp269
tp270
atp271
a(I24
I900
(lp272
(S'sto-iht'
p273
I15
F1.9037718772888184
I15
F0.0
F0.002113819122314453
g3
(g7
S'\xferjR\xaa\x12a>'
p274
tp275
Rp276
tp277
a(S'graph-sto-iht'
p278
I14
F1.837960958480835
I14
F0.044359683990478516
F0.06682944297790527
g3
(g7
S'Mb|L\x1d{o>'
p279
tp280
Rp281
tp282
atp283
a(I25
I900
(lp284
(g273
I14
F1.2578458786010742
I14
F0.0
F0.0014088153839111328
g3
(g7
S'\x08\xa5\x1c\x93K\x88Z>'
p285
tp286
Rp287
tp288
a(g278
I13
F0.9858019351959229
I13
F0.026697874069213867
F0.03348898887634277
g3
(g7
S'\x06\x19\xdb\xcet\xedr>'
p289
tp290
Rp291
tp292
atp293
a(I26
I900
(lp294
(S'sto-iht'
p295
I16
F2.038327932357788
I16
F0.0
F0.00200653076171875
g3
(g7
S'\x8eK^J\xfbKw>'
p296
tp297
Rp298
tp299
a(S'graph-sto-iht'
p300
I15
F2.0268640518188477
I15
F0.049089670181274414
F0.07909369468688965
g3
(g7
S'ZZ?"\x85~r>'
p301
tp302
Rp303
tp304
atp305
a(I27
I900
(lp306
(g295
I14
F1.8249099254608154
I14
F0.0
F0.0016326904296875
g3
(g7
S"L\x0f\xe4'\x18pg>"
p307
tp308
Rp309
tp310
a(g300
I13
F1.9050049781799316
I13
F0.058644771575927734
F0.1483147144317627
g3
(g7
S'\xf4-\xd1\x87\x1d\xdde>'
p311
tp312
Rp313
tp314
atp315
a(I28
I900
(lp316
(S'sto-iht'
p317
I14
F1.7788610458374023
I14
F0.0
F0.0017256736755371094
g3
(g7
S'\x99\xd2\xbf\xb1\xde\x8fv>'
p318
tp319
Rp320
tp321
a(S'graph-sto-iht'
p322
I14
F1.8731451034545898
I14
F0.04832911491394043
F0.07044434547424316
g3
(g7
S's\xfb\xfc\x11[\xe2j>'
p323
tp324
Rp325
tp326
atp327
a(I29
I900
(lp328
(g317
I13
F1.6653501987457275
I13
F0.0
F0.001528024673461914
g3
(g7
S'@\xb0fn?\x16x>'
p329
tp330
Rp331
tp332
a(g322
I13
F1.7410061359405518
I13
F0.04760408401489258
F0.06523871421813965
g3
(g7
S'Q&\x98\xd5\xd2\x8fx>'
p333
tp334
Rp335
tp336
atp337
a(I30
I900
(lp338
(S'sto-iht'
p339
I15
F1.8808870315551758
I15
F0.0
F0.00208282470703125
g3
(g7
S'\x06\xd6\x82;R\xc8i>'
p340
tp341
Rp342
tp343
a(S'graph-sto-iht'
p344
I14
F1.8229360580444336
I14
F0.04645109176635742
F0.04860043525695801
g3
(g7
S'\xe5\xde\x0e\xfd\xb1}o>'
p345
tp346
Rp347
tp348
atp349
a(I31
I900
(lp350
(g339
I14
F1.7843780517578125
I14
F0.0
F0.0017008781433105469
g3
(g7
S'\xffn\x17\x0e\x83\x98a>'
p351
tp352
Rp353
tp354
a(g344
I13
F1.8683431148529053
I13
F0.04698801040649414
F0.11949777603149414
g3
(g7
S"\xa7\xa8'P\x19\x81p>"
p355
tp356
Rp357
tp358
atp359
a(I32
I900
(lp360
(S'sto-iht'
p361
I12
F1.5416138172149658
I12
F0.0
F0.0015087127685546875
g3
(g7
S'M\xf6\xddl(\xbe|>'
p362
tp363
Rp364
tp365
a(S'graph-sto-iht'
p366
I13
F1.7174029350280762
I13
F0.04062795639038086
F0.04484915733337402
g3
(g7
S')\x10LXl\xfc_>'
p367
tp368
Rp369
tp370
atp371
a(I33
I900
(lp372
(g361
I15
F1.9001719951629639
I15
F0.0
F0.0016508102416992188
g3
(g7
S'\x9f\x95B\xfak@j>'
p373
tp374
Rp375
tp376
a(g366
I15
F1.9785609245300293
I15
F0.05347442626953125
F0.05789899826049805
g3
(g7
S'\x01\xb9\xad\x95\x05zf>'
p377
tp378
Rp379
tp380
atp381
a(I34
I900
(lp382
(S'sto-iht'
p383
I14
F1.3117680549621582
I14
F0.0
F0.001697540283203125
g3
(g7
S'\xc8A\xa8|p\xefs>'
p384
tp385
Rp386
tp387
a(S'graph-sto-iht'
p388
I14
F1.0428028106689453
I14
F0.03214597702026367
F0.0410311222076416
g3
(g7
S'\xcc\n\xe1\x8a\r\x05b>'
p389
tp390
Rp391
tp392
atp393
a(I35
I900
(lp394
(g383
I14
F1.0057249069213867
I14
F0.0
F0.0013260841369628906
g3
(g7
S'\xf7\xc51m\x8c6r>'
p395
tp396
Rp397
tp398
a(g388
I13
F1.0034677982330322
I13
F0.022079944610595703
F0.047589778900146484
g3
(g7
S'\x8e\x88za\x12\xf0m>'
p399
tp400
Rp401
tp402
atp403
a(I36
I900
(lp404
(S'sto-iht'
p405
I13
F1.7202489376068115
I13
F0.0
F0.0016243457794189453
g3
(g7
S'!\x95\x87\xe9\xd0[s>'
p406
tp407
Rp408
tp409
a(S'graph-sto-iht'
p410
I12
F1.6571791172027588
I12
F0.037117958068847656
F0.0809175968170166
g3
(g7
S'\xc6u\xa2>\rej>'
p411
tp412
Rp413
tp414
atp415
a(I37
I900
(lp416
(g405
I12
F1.4901418685913086
I12
F0.0
F0.0014431476593017578
g3
(g7
S'\xd0A\x90\xbc\xf3*d>'
p417
tp418
Rp419
tp420
a(g410
I12
F1.7756669521331787
I12
F0.040131330490112305
F0.045929908752441406
g3
(g7
S'5\xfe \x87\x84\xd6l>'
p421
tp422
Rp423
tp424
atp425
a(I38
I900
(lp426
(S'sto-iht'
p427
I15
F1.9642629623413086
I15
F0.0
F0.00193023681640625
g3
(g7
S'g\x04\xfc\\\x89\xedn>'
p428
tp429
Rp430
tp431
a(S'graph-sto-iht'
p432
I14
F1.8982510566711426
I14
F0.04555082321166992
F0.08836746215820312
g3
(g7
S'\xdc\xbd4\xd2i\x18f>'
p433
tp434
Rp435
tp436
atp437
a(I39
I900
(lp438
(g427
I14
F1.858201026916504
I14
F0.0
F0.0016262531280517578
g3
(g7
S'-\x13S9\xb5\xffs>'
p439
tp440
Rp441
tp442
a(g432
I13
F1.8204491138458252
I13
F0.04290008544921875
F0.09697341918945312
g3
(g7
S"\x97'z\x8f\r\xdch>"
p443
tp444
Rp445
tp446
atp447
a(I40
I900
(lp448
(S'sto-iht'
p449
I14
F1.7716150283813477
I14
F0.0
F0.002044200897216797
g3
(g7
S'\xae\x88)\xb0\xc8\xc9k>'
p450
tp451
Rp452
tp453
a(S'graph-sto-iht'
p454
I13
F1.7553589344024658
I13
F0.0404353141784668
F0.10129737854003906
g3
(g7
S'\xc84\x8a\x8a\xc1Wp>'
p455
tp456
Rp457
tp458
atp459
a(I41
I900
(lp460
(g449
I13
F1.6734259128570557
I13
F0.0
F0.0015950202941894531
g3
(g7
S'\xc8\xbd\x9f/\xc6\x95t>'
p461
tp462
Rp463
tp464
a(g454
I13
F1.7717809677124023
I13
F0.0479741096496582
F0.06984519958496094
g3
(g7
S'\x95r:3\xf1\x9di>'
p465
tp466
Rp467
tp468
atp469
a(I42
I900
(lp470
(S'sto-iht'
p471
I14
F1.8028981685638428
I14
F0.0
F0.0019669532775878906
g3
(g7
S'\xfd\x01\x05t\xc6\xe3o>'
p472
tp473
Rp474
tp475
a(S'graph-sto-iht'
p476
I13
F1.8290340900421143
I13
F0.05470705032348633
F0.14637207984924316
g3
(g7
S'\xb0n\xcf\xf3\xb2\x9bb>'
p477
tp478
Rp479
tp480
atp481
a(I43
I900
(lp482
(g471
I15
F1.9289660453796387
I15
F0.0
F0.0019545555114746094
g3
(g7
S'\x08-F\x98,\x08o>'
p483
tp484
Rp485
tp486
a(g476
I15
F2.0313210487365723
I15
F0.05412101745605469
F0.052657127380371094
g3
(g7
S'i\xed\xa1\x06\x08\xf0a>'
p487
tp488
Rp489
tp490
atp491
a(I44
I900
(lp492
(S'sto-iht'
p493
I17
F2.1886980533599854
I17
F0.0
F0.002050161361694336
g3
(g7
S'\x97\xd8q\x8a\xd1\x9cb>'
p494
tp495
Rp496
tp497
a(S'graph-sto-iht'
p498
I15
F2.04591703414917
I15
F0.051079750061035156
F0.12400674819946289
g3
(g7
S'\x9d\x89a\xb2C\xe3k>'
p499
tp500
Rp501
tp502
atp503
a(I45
I900
(lp504
(g493
I15
F1.9337329864501953
I15
F0.0
F0.0017085075378417969
g3
(g7
S'v\x84\x9bzh\xaee>'
p505
tp506
Rp507
tp508
a(g498
I14
F1.9448468685150146
I14
F0.04636716842651367
F0.14254426956176758
g3
(g7
S'\xbe\xbf\x0b3"G]>'
p509
tp510
Rp511
tp512
atp513
a(I46
I900
(lp514
(S'sto-iht'
p515
I13
F1.674565076828003
I13
F0.0
F0.0015540122985839844
g3
(g7
S'\xc1\x1es*\xee\x03w>'
p516
tp517
Rp518
tp519
a(S'graph-sto-iht'
p520
I14
F1.8571619987487793
I14
F0.04743766784667969
F0.06530094146728516
g3
(g7
S'0v\xd2\xd7\x0e\xcbi>'
p521
tp522
Rp523
tp524
atp525
a(I47
I900
(lp526
(g515
I14
F1.7662639617919922
I14
F0.0
F0.0016853809356689453
g3
(g7
S'm\x19&\\\x9fuw>'
p527
tp528
Rp529
tp530
a(g520
I13
F1.8639521598815918
I13
F0.045095205307006836
F0.1242215633392334
g3
(g7
S'\x18\xb2\x0b\x881\xa3t>'
p531
tp532
Rp533
tp534
atp535
a(I48
I900
(lp536
(S'sto-iht'
p537
I14
F1.8070290088653564
I14
F0.0
F0.002055644989013672
g3
(g7
S'\xaf)!\xf5\xd4\xe5s>'
p538
tp539
Rp540
tp541
a(S'graph-sto-iht'
p542
I12
F1.6482830047607422
I12
F0.036672115325927734
F0.1013484001159668
g3
(g7
S'V\xb4-\xd7\xe1]i>'
p543
tp544
Rp545
tp546
atp547
a(I49
I900
(lp548
(g537
I14
F1.7991020679473877
I14
F0.0
F0.001832723617553711
g3
(g7
S'\xee\xf7\x00+O\xf9\\>'
p549
tp550
Rp551
tp552
a(g542
I13
F1.7742490768432617
I13
F0.04558444023132324
F0.08906984329223633
g3
(g7
S'\x7f\xc2;\xe8\xa2\x81l>'
p553
tp554
Rp555
tp556
atp557
a(I0
I450
(lp558
(S'sto-iht'
p559
I9
F1.2540419101715088
I18
F0.0
F0.0021240711212158203
g3
(g7
S'm\x84d@10F>'
p560
tp561
Rp562
tp563
a(S'graph-sto-iht'
p564
I7
F1.0678668022155762
I14
F0.04691338539123535
F0.07512283325195312
g3
(g7
S'\tGX\xce\xfc|V>'
p565
tp566
Rp567
tp568
atp569
a(I1
I450
(lp570
(g559
I8
F1.061500072479248
I16
F0.0
F0.0018248558044433594
g3
(g7
S'\x81\xb7\xfb\xc9<\xbfb>'
p571
tp572
Rp573
tp574
a(g564
I7
F1.0415709018707275
I14
F0.044270992279052734
F0.10007429122924805
g3
(g7
S'\xd0(&d\xa1\xe9[>'
p575
tp576
Rp577
tp578
atp579
a(I2
I450
(lp580
(S'sto-iht'
p581
I9
F1.2425410747528076
I18
F0.0
F0.0019702911376953125
g3
(g7
S'\x9c\x1a\x87\x1c\x1f\x86K>'
p582
tp583
Rp584
tp585
a(S'graph-sto-iht'
p586
I7
F1.1526069641113281
I14
F0.045166730880737305
F0.1814863681793213
g3
(g7
S' \x1b\xb2\x1b\xf0\x13P>'
p587
tp588
Rp589
tp590
atp591
a(I3
I450
(lp592
(g581
I8
F1.06955885887146
I16
F0.0
F0.0018575191497802734
g3
(g7
S'-\xd7\xac\xa0\xbd=T>'
p593
tp594
Rp595
tp596
a(g586
I8
F1.2270550727844238
I16
F0.04993581771850586
F0.11062240600585938
g3
(g7
S'\xa5\xde)\x81\xbb\xe6>>'
p597
tp598
Rp599
tp600
atp601
a(I4
I450
(lp602
(S'sto-iht'
p603
I9
F1.2464599609375
I18
F0.0
F0.002407073974609375
g3
(g7
S'\x05\x1d\xc97\xbf\xaab>'
p604
tp605
Rp606
tp607
a(S'graph-sto-iht'
p608
I8
F1.1872079372406006
I16
F0.047327280044555664
F0.10820198059082031
g3
(g7
S'\x80\xb8\xae_\xf8\x00^>'
p609
tp610
Rp611
tp612
atp613
a(I5
I450
(lp614
(g603
I7
F0.9565911293029785
I14
F0.0
F0.001718282699584961
g3
(g7
S'+"\xde\x16\xb1Cr>'
p615
tp616
Rp617
tp618
a(g608
I8
F1.2384059429168701
I16
F0.053842782974243164
F0.13924455642700195
g3
(g7
S"'S\x10\xb4\xc7\xca?>"
p619
tp620
Rp621
tp622
atp623
a(I6
I450
(lp624
(S'sto-iht'
p625
I7
F0.9826629161834717
I14
F0.0
F0.0017161369323730469
g3
(g7
S'\xd5\x1a\x0e\x01\xaf\xc0u>'
p626
tp627
Rp628
tp629
a(S'graph-sto-iht'
p630
I7
F1.0927369594573975
I14
F0.045935869216918945
F0.11106753349304199
g3
(g7
S'o\xeb\x08\xbe\xf1hv>'
p631
tp632
Rp633
tp634
atp635
a(I7
I450
(lp636
(g625
I7
F0.9431018829345703
I14
F0.0
F0.0016252994537353516
g3
(g7
S'\xeet\xf8\x0e\xaa\xeen>'
p637
tp638
Rp639
tp640
a(g630
I7
F1.0148000717163086
I14
F0.04465937614440918
F0.04381513595581055
g3
(g7
S'\xcaR\x11y<\x9fZ>'
p641
tp642
Rp643
tp644
atp645
a(I8
I450
(lp646
(S'sto-iht'
p647
I9
F1.2122819423675537
I18
F0.0
F0.0025038719177246094
g3
(g7
S'\x9a\xd4\xb1)b8R>'
p648
tp649
Rp650
tp651
a(S'graph-sto-iht'
p652
I8
F1.1545698642730713
I16
F0.05074787139892578
F0.07532739639282227
g3
(g7
S'\xbb\xa7\xa4\x05\xcar[>'
p653
tp654
Rp655
tp656
atp657
a(I9
I450
(lp658
(g647
I8
F1.0599191188812256
I16
F0.0
F0.0019807815551757812
g3
(g7
S'\xe0&@\x81\x87gV>'
p659
tp660
Rp661
tp662
a(g652
I8
F1.1808857917785645
I16
F0.05881929397583008
F0.09556317329406738
g3
(g7
S'f:\xc2} \x03W>'
p663
tp664
Rp665
tp666
atp667
a(I10
I450
(lp668
(S'sto-iht'
p669
I9
F1.2131919860839844
I18
F0.0
F0.0021114349365234375
g3
(g7
S'\xe7\xe8\xddmjl=>'
p670
tp671
Rp672
tp673
a(S'graph-sto-iht'
p674
I8
F1.1690151691436768
I16
F0.04859614372253418
F0.07656288146972656
g3
(g7
S'\xab\t\xe0\x97\xdb\xc5S>'
p675
tp676
Rp677
tp678
atp679
a(I11
I450
(lp680
(g669
I9
F1.150834083557129
I18
F0.0
F0.0020742416381835938
g3
(g7
S'\x05i\x01[\xbd\xf1^>'
p681
tp682
Rp683
tp684
a(g674
I8
F1.2465732097625732
I16
F0.05095171928405762
F0.13118600845336914
g3
(g7
S'\xf4vu\xb3*\x06U>'
p685
tp686
Rp687
tp688
atp689
a(I12
I450
(lp690
(S'sto-iht'
p691
I8
F1.106247901916504
I16
F0.0
F0.0021779537200927734
g3
(g7
S'\xcd\x08\xdcH\xeb\xe2x>'
p692
tp693
Rp694
tp695
a(S'graph-sto-iht'
p696
I8
F1.2412500381469727
I16
F0.04804372787475586
F0.13031840324401855
g3
(g7
S'\x11|\x1eY\x18\xe1[>'
p697
tp698
Rp699
tp700
atp701
a(I13
I450
(lp702
(g691
I9
F1.1877470016479492
I18
F0.0
F0.0023114681243896484
g3
(g7
S'uH\xac\x93\x1d\x13V>'
p703
tp704
Rp705
tp706
a(g696
I8
F1.2481741905212402
I16
F0.05354785919189453
F0.12493681907653809
g3
(g7
S'\xd9\xf2C\xec\xfc\xb9?>'
p707
tp708
Rp709
tp710
atp711
a(I14
I450
(lp712
(S'sto-iht'
p713
I8
F1.1030540466308594
I16
F0.0
F0.001918792724609375
g3
(g7
S'\xcd\x91\xca\xb1uEh>'
p714
tp715
Rp716
tp717
a(S'graph-sto-iht'
p718
I8
F1.1844909191131592
I16
F0.05183100700378418
F0.08005905151367188
g3
(g7
S'\xbb\xf3\x08Y3\xddV>'
p719
tp720
Rp721
tp722
atp723
a(I15
I450
(lp724
(g713
I8
F1.0547540187835693
I16
F0.0
F0.0018491744995117188
g3
(g7
S'\xb9\xac\x96\xb4\xea\xd4e>'
p725
tp726
Rp727
tp728
a(g718
I7
F1.043699026107788
I14
F0.04365038871765137
F0.1022489070892334
g3
(g7
S'\x80\x88\xd9u\x08\xcc`>'
p729
tp730
Rp731
tp732
atp733
a(I16
I450
(lp734
(S'sto-iht'
p735
I7
F0.9470939636230469
I14
F0.0
F0.0019388198852539062
g3
(g7
S'\xf0\xcfSqX\xaci>'
p736
tp737
Rp738
tp739
a(S'graph-sto-iht'
p740
I8
F1.2727138996124268
I16
F0.048792123794555664
F0.18497085571289062
g3
(g7
S':\x08\x95\xe6i=Q>'
p741
tp742
Rp743
tp744
atp745
a(I17
I450
(lp746
(g735
I7
F0.9092161655426025
I14
F0.0
F0.0018739700317382812
g3
(g7
S'\xccb\x84g\xb2\xa4g>'
p747
tp748
Rp749
tp750
a(g740
I7
F1.030513048171997
I14
F0.048203229904174805
F0.0916743278503418
g3
(g7
S'\xbfjC\xbbq\x06t>'
p751
tp752
Rp753
tp754
atp755
a(I18
I450
(lp756
(S'sto-iht'
p757
I8
F1.1079738140106201
I16
F0.0
F0.001903533935546875
g3
(g7
S'\xd45\x82s#\xadj>'
p758
tp759
Rp760
tp761
a(S'graph-sto-iht'
p762
I8
F1.2698569297790527
I16
F0.055384159088134766
F0.14010286331176758
g3
(g7
S'\xc8\xb58\xb5I(c>'
p763
tp764
Rp765
tp766
atp767
a(I19
I450
(lp768
(g757
I8
F1.0616629123687744
I16
F0.0
F0.0018494129180908203
g3
(g7
S'\xc4R\xa8\xb4\x99\x17z>'
p769
tp770
Rp771
tp772
a(g762
I8
F1.3100509643554688
I16
F0.05513620376586914
F0.17295551300048828
g3
(g7
S'\xccp\xfe\x81\xd0dk>'
p773
tp774
Rp775
tp776
atp777
a(I20
I450
(lp778
(S'sto-iht'
p779
I8
F1.0924139022827148
I16
F0.0
F0.0019381046295166016
g3
(g7
S'@g\xbb\xb2GLQ>'
p780
tp781
Rp782
tp783
a(S'graph-sto-iht'
p784
I8
F1.3046610355377197
I16
F0.04939150810241699
F0.20675373077392578
g3
(g7
S'\x83\xac#\xbde\xba@>'
p785
tp786
Rp787
tp788
atp789
a(I21
I450
(lp790
(g779
I7
F0.9236350059509277
I14
F0.0
F0.0016748905181884766
g3
(g7
S'ssW\x15\x89\xc9s>'
p791
tp792
Rp793
tp794
a(g784
I7
F1.0018141269683838
I14
F0.044394493103027344
F0.08107876777648926
g3
(g7
S'\xffy\xbb\xb8\x90\xf5x>'
p795
tp796
Rp797
tp798
atp799
a(I22
I450
(lp800
(S'sto-iht'
p801
I7
F0.9602639675140381
I14
F0.0
F0.0020284652709960938
g3
(g7
S'/\xca\x9c\xdc\x18yk>'
p802
tp803
Rp804
tp805
a(S'graph-sto-iht'
p806
I8
F1.178947925567627
I16
F0.05470538139343262
F0.08578014373779297
g3
(g7
S'\x89\xe3\xad\x8c\x05\x05M>'
p807
tp808
Rp809
tp810
atp811
a(I23
I450
(lp812
(g801
I9
F1.1662039756774902
I18
F0.0
F0.002378225326538086
g3
(g7
S'\xee\xb9,G\t\xacI>'
p813
tp814
Rp815
tp816
a(g806
I7
F1.0218689441680908
I14
F0.04288220405578613
F0.08471322059631348
g3
(g7
S'\xeb\x99\xf0\xdd\xdf\x17j>'
p817
tp818
Rp819
tp820
atp821
a(I24
I450
(lp822
(S'sto-iht'
p823
I8
F1.1258800029754639
I16
F0.0
F0.001977682113647461
g3
(g7
S'\xc7\xd8\tm=mR>'
p824
tp825
Rp826
tp827
a(S'graph-sto-iht'
p828
I7
F1.0983998775482178
I14
F0.04519844055175781
F0.11048603057861328
g3
(g7
S'n_\x91\xf0\xc0\xd4z>'
p829
tp830
Rp831
tp832
atp833
a(I25
I450
(lp834
(g823
I8
F1.070617914199829
I16
F0.0
F0.0018584728240966797
g3
(g7
S'\x909N\x84\xbc\xf6m>'
p835
tp836
Rp837
tp838
a(g828
I7
F0.9983279705047607
I14
F0.04502606391906738
F0.04758787155151367
g3
(g7
S'b\xd89\x8b\xe3Ok>'
p839
tp840
Rp841
tp842
atp843
a(I26
I450
(lp844
(S'sto-iht'
p845
I8
F1.0822210311889648
I16
F0.0
F0.0022869110107421875
g3
(g7
S'\xaf\xae\x94bo\xecL>'
p846
tp847
Rp848
tp849
a(S'graph-sto-iht'
p850
I7
F1.0246539115905762
I14
F0.04437875747680664
F0.07347989082336426
g3
(g7
S'\xde\x01\xd3?i\xd5m>'
p851
tp852
Rp853
tp854
atp855
a(I27
I450
(lp856
(g845
I7
F0.9043340682983398
I14
F0.0
F0.0019516944885253906
g3
(g7
S'B\x01%\xe2\xeb)w>'
p857
tp858
Rp859
tp860
a(g850
I7
F1.0478720664978027
I14
F0.04428386688232422
F0.11290550231933594
g3
(g7
S'\xfb\x10&\xc0\x13eQ>'
p861
tp862
Rp863
tp864
atp865
a(I28
I450
(lp866
(S'sto-iht'
p867
I7
F0.9675788879394531
I14
F0.0
F0.0015940666198730469
g3
(g7
S'\xc2\xca\x92e\xe2Np>'
p868
tp869
Rp870
tp871
a(S'graph-sto-iht'
p872
I7
F1.056609869003296
I14
F0.04700922966003418
F0.0737917423248291
g3
(g7
S'\xb7K~L$0\\>'
p873
tp874
Rp875
tp876
atp877
a(I29
I450
(lp878
(g867
I8
F1.0592598915100098
I16
F0.0
F0.0017256736755371094
g3
(g7
S'\xd4,\x85\xa2(KI>'
p879
tp880
Rp881
tp882
a(g872
I8
F1.1867351531982422
I16
F0.050601959228515625
F0.08235669136047363
g3
(g7
S'\x03e\x97\xbe!\xd4M>'
p883
tp884
Rp885
tp886
atp887
a(I30
I450
(lp888
(S'sto-iht'
p889
I8
F1.0823948383331299
I16
F0.0
F0.002222299575805664
g3
(g7
S'\x85B\xfa\xf7\xdc\x89c>'
p890
tp891
Rp892
tp893
a(S'graph-sto-iht'
p894
I8
F1.1712861061096191
I16
F0.0604245662689209
F0.06946921348571777
g3
(g7
S'xF\xea$]\\G>'
p895
tp896
Rp897
tp898
atp899
a(I31
I450
(lp900
(g889
I8
F1.0293900966644287
I16
F0.0
F0.002141237258911133
g3
(g7
S'y\xc1e\x9a\xf2\nm>'
p901
tp902
Rp903
tp904
a(g894
I6
F0.8548269271850586
I12
F0.03742384910583496
F0.05994367599487305
g3
(g7
S']P\x91\xff\xab\xdbs>'
p905
tp906
Rp907
tp908
atp909
a(I32
I450
(lp910
(S'sto-iht'
p911
I8
F1.1079399585723877
I16
F0.0
F0.002190113067626953
g3
(g7
S'\xc1\xb3\xf4\xfc\x87\x8eU>'
p912
tp913
Rp914
tp915
a(S'graph-sto-iht'
p916
I7
F1.0683400630950928
I14
F0.04422783851623535
F0.09362459182739258
g3
(g7
S'\xf6=%\xf9\x03\xf2]>'
p917
tp918
Rp919
tp920
atp921
a(I33
I450
(lp922
(g911
I8
F1.0529680252075195
I16
F0.0
F0.0021893978118896484
g3
(g7
S'\xcfUo\xa7m\xd4N>'
p923
tp924
Rp925
tp926
a(g916
I7
F1.0754308700561523
I14
F0.044313907623291016
F0.1230013370513916
g3
(g7
S'e\xa6\x0c\xb0\xdd`m>'
p927
tp928
Rp929
tp930
atp931
a(I34
I450
(lp932
(S'sto-iht'
p933
I7
F0.9913759231567383
I14
F0.0
F0.001651763916015625
g3
(g7
S'\x08PT\xfah\x9f^>'
p934
tp935
Rp936
tp937
a(S'graph-sto-iht'
p938
I7
F1.0100290775299072
I14
F0.04432821273803711
F0.047519683837890625
g3
(g7
S'\xc8\xc2%\xc1\x1d)j>'
p939
tp940
Rp941
tp942
atp943
a(I35
I450
(lp944
(g933
I8
F1.0645887851715088
I16
F0.0
F0.001779794692993164
g3
(g7
S"\x85'\xf2\x19\xdf\xe0C>"
p945
tp946
Rp947
tp948
a(g938
I8
F1.160837173461914
I16
F0.04803061485290527
F0.0637364387512207
g3
(g7
S'W\x87\t\xabB\xacA>'
p949
tp950
Rp951
tp952
atp953
a(I36
I450
(lp954
(S'sto-iht'
p955
I7
F0.5353238582611084
I14
F0.0
F0.001233816146850586
g3
(g7
S'<,\xa0\x15&\x94t>'
p956
tp957
Rp958
tp959
a(S'graph-sto-iht'
p960
I7
F0.6097211837768555
I14
F0.026303768157958984
F0.047361135482788086
g3
(g7
S'`\xf0\xf8g-\xcf^>'
p961
tp962
Rp963
tp964
atp965
a(I37
I450
(lp966
(g955
I7
F0.5211648941040039
I14
F0.0
F0.0011470317840576172
g3
(g7
S'\x01G2\xedPvt>'
p967
tp968
Rp969
tp970
a(g960
I7
F0.593498945236206
I14
F0.02520608901977539
F0.05006241798400879
g3
(g7
S'\x80{\x87>\xf9o?>'
p971
tp972
Rp973
tp974
atp975
a(I38
I450
(lp976
(S'sto-iht'
p977
I8
F1.0901281833648682
I16
F0.0
F0.0022563934326171875
g3
(g7
S'\x0b\xa9\xbc7\x9b\x0eJ>'
p978
tp979
Rp980
tp981
a(S'graph-sto-iht'
p982
I7
F1.0578351020812988
I14
F0.04339194297790527
F0.12035751342773438
g3
(g7
S'\x93\xe0\x9d#],A>'
p983
tp984
Rp985
tp986
atp987
a(I39
I450
(lp988
(g977
I8
F1.018014907836914
I16
F0.0
F0.002035379409790039
g3
(g7
S'\x87&x^\xd6\x836>'
p989
tp990
Rp991
tp992
a(g982
I7
F1.0573830604553223
I14
F0.043962955474853516
F0.09471368789672852
g3
(g7
S'\x95\xa5\x92H\x19=f>'
p993
tp994
Rp995
tp996
atp997
a(I40
I450
(lp998
(S'sto-iht'
p999
I8
F1.0830371379852295
I16
F0.0
F0.0022995471954345703
g3
(g7
S'\x8f\xde\xfc\xfdJ4W>'
p1000
tp1001
Rp1002
tp1003
a(S'graph-sto-iht'
p1004
I8
F1.2322711944580078
I16
F0.05214285850524902
F0.17253613471984863
g3
(g7
S'\x10\x82\xbc\x93Y\xff[>'
p1005
tp1006
Rp1007
tp1008
atp1009
a(I41
I450
(lp1010
(g999
I8
F1.0545451641082764
I16
F0.0
F0.002136707305908203
g3
(g7
S'\x81$\x98\x96\xee\xcbf>'
p1011
tp1012
Rp1013
tp1014
a(g1004
I7
F1.043215036392212
I14
F0.045159101486206055
F0.10301423072814941
g3
(g7
S'\xaf\xe6%U\x08!n>'
p1015
tp1016
Rp1017
tp1018
atp1019
a(I42
I450
(lp1020
(S'sto-iht'
p1021
I9
F1.2319390773773193
I18
F0.0
F0.0021364688873291016
g3
(g7
S'E\x7f3\x0f\xa1\xd2d>'
p1022
tp1023
Rp1024
tp1025
a(S'graph-sto-iht'
p1026
I8
F1.2654550075531006
I16
F0.05379891395568848
F0.16021513938903809
g3
(g7
S'\xf9~\xa4\x0c\xa2V`>'
p1027
tp1028
Rp1029
tp1030
atp1031
a(I43
I450
(lp1032
(g1021
I8
F1.0498549938201904
I16
F0.0
F0.0019130706787109375
g3
(g7
S'\x89\\\x05\xbe\x18\x96G>'
p1033
tp1034
Rp1035
tp1036
a(g1026
I8
F1.1458680629730225
I16
F0.0539090633392334
F0.0629572868347168
g3
(g7
S'%1\xedH\xb4RE>'
p1037
tp1038
Rp1039
tp1040
atp1041
a(I44
I450
(lp1042
(S'sto-iht'
p1043
I7
F0.9806458950042725
I14
F0.0
F0.0019142627716064453
g3
(g7
S'\x94-\xde\xda\x86\xa2u>'
p1044
tp1045
Rp1046
tp1047
a(S'graph-sto-iht'
p1048
I8
F1.1337189674377441
I16
F0.0520329475402832
F0.0637660026550293
g3
(g7
S'\x7f7\x00\xeb\xcfWK>'
p1049
tp1050
Rp1051
tp1052
atp1053
a(I45
I450
(lp1054
(g1043
I7
F0.907263994216919
I14
F0.0
F0.0017409324645996094
g3
(g7
S'PgZ\xac\xe8;z>'
p1055
tp1056
Rp1057
tp1058
a(g1048
I8
F1.1881670951843262
I16
F0.04872417449951172
F0.09456753730773926
g3
(g7
S'\xde\xa9<\xdd\xf0\x07X>'
p1059
tp1060
Rp1061
tp1062
atp1063
a(I46
I450
(lp1064
(S'sto-iht'
p1065
I8
F1.0872290134429932
I16
F0.0
F0.002258777618408203
g3
(g7
S'@\x9e{+\x87T@>'
p1066
tp1067
Rp1068
tp1069
a(S'graph-sto-iht'
p1070
I7
F1.005331039428711
I14
F0.04276299476623535
F0.05830955505371094
g3
(g7
S'\\\x15\xb6\xd1\xa0vN>'
p1071
tp1072
Rp1073
tp1074
atp1075
a(I47
I450
(lp1076
(g1065
I9
F1.1604630947113037
I18
F0.0
F0.0023577213287353516
g3
(g7
S'#e\x1c\x86\xfb\x81U>'
p1077
tp1078
Rp1079
tp1080
a(g1070
I9
F1.2905528545379639
I18
F0.055068016052246094
F0.09839153289794922
g3
(g7
S'\xb4\xa3\xb8\xf1\x87\xbdS>'
p1081
tp1082
Rp1083
tp1084
atp1085
a(I48
I450
(lp1086
(S'sto-iht'
p1087
I8
F1.089005947113037
I16
F0.0
F0.002396106719970703
g3
(g7
S'T\xd4m}\x88\x91I>'
p1088
tp1089
Rp1090
tp1091
a(S'graph-sto-iht'
p1092
I7
F1.0523760318756104
I14
F0.04158616065979004
F0.11890959739685059
g3
(g7
S'\x11\xf6\xab3\xdb\x8cE>'
p1093
tp1094
Rp1095
tp1096
atp1097
a(I49
I450
(lp1098
(g1087
I8
F1.031419038772583
I16
F0.0
F0.002107381820678711
g3
(g7
S'\x9e[\xb1:\xef\x1aU>'
p1099
tp1100
Rp1101
tp1102
a(g1092
I8
F1.1273369789123535
I16
F0.05887269973754883
F0.05881619453430176
g3
(g7
S'\x84V\xa5\n,\x0b@>'
p1103
tp1104
Rp1105
tp1106
atp1107
a(I0
I225
(lp1108
(S'sto-iht'
p1109
I9
F0.7416319847106934
I36
F0.0
F0.0031633377075195312
g3
(g7
S'\xed\x96\xe5\xf8e\xb1x>'
p1110
tp1111
Rp1112
tp1113
a(S'graph-sto-iht'
p1114
I9
F0.9073331356048584
I36
F0.06754016876220703
F0.09171581268310547
g3
(g7
S' \x1c\xba\x90m\xbeb>'
p1115
tp1116
Rp1117
tp1118
atp1119
a(I1
I225
(lp1120
(g1109
I10
F0.8115761280059814
I40
F0.0
F0.003426790237426758
g3
(g7
S'\x07\xcb\x08\xca(\xc7s>'
p1121
tp1122
Rp1123
tp1124
a(g1114
I10
F1.1125760078430176
I40
F0.07739686965942383
F0.15543770790100098
g3
(g7
S'M\xfa\x83\xa0\xbf\x9cz>'
p1125
tp1126
Rp1127
tp1128
atp1129
a(I2
I225
(lp1130
(S'sto-iht'
p1131
I9
F1.3482141494750977
I36
F0.0
F0.004046440124511719
g3
(g7
S'=u\x93\xcc\xd5My>'
p1132
tp1133
Rp1134
tp1135
a(S'graph-sto-iht'
p1136
I9
F1.7913520336151123
I36
F0.1239778995513916
F0.3735792636871338
g3
(g7
S'\x12\x06\x1b\xbeU\xc5k>'
p1137
tp1138
Rp1139
tp1140
atp1141
a(I3
I225
(lp1142
(g1131
I9
F1.6284198760986328
I36
F0.0
F0.0043599605560302734
g3
(g7
S'\xf2\xd3\n\xad\x0c\x07[>'
p1143
tp1144
Rp1145
tp1146
a(g1136
I8
F1.5671310424804688
I32
F0.12534570693969727
F0.18263530731201172
g3
(g7
S'\xd9\xbf<\x87\xc8\x8d|>'
p1147
tp1148
Rp1149
tp1150
atp1151
a(I4
I225
(lp1152
(S'sto-iht'
p1153
I9
F1.1573269367218018
I36
F0.0
F0.004343986511230469
g3
(g7
S'\xa4f\xfb5drd>'
p1154
tp1155
Rp1156
tp1157
a(S'graph-sto-iht'
p1158
I8
F1.475219964981079
I32
F0.11607789993286133
F0.19880890846252441
g3
(g7
S'M;\xa2\xf4\x01\xddq>'
p1159
tp1160
Rp1161
tp1162
atp1163
a(I5
I225
(lp1164
(g1153
I10
F1.4824941158294678
I40
F0.0
F0.005272865295410156
g3
(g7
S'\x11z\xec\xe3\x9c\xe5Q>'
p1165
tp1166
Rp1167
tp1168
a(g1158
I10
F1.9728641510009766
I40
F0.15255498886108398
F0.30895018577575684
g3
(g7
S'\x06\r\x99\xb7q\xdfS>'
p1169
tp1170
Rp1171
tp1172
atp1173
a(I6
I225
(lp1174
(S'sto-iht'
p1175
I10
F1.4611828327178955
I40
F0.0
F0.005334377288818359
g3
(g7
S'\xf3\x8bIO\xa0\x8ec>'
p1176
tp1177
Rp1178
tp1179
a(S'graph-sto-iht'
p1180
I10
F1.8271570205688477
I40
F0.15424275398254395
F0.19683098793029785
g3
(g7
S'i\xdb\x14\x17`#u>'
p1181
tp1182
Rp1183
tp1184
atp1185
a(I7
I225
(lp1186
(g1175
I9
F1.5507838726043701
I36
F0.0
F0.00480198860168457
g3
(g7
S'\xb5\x89\xba~\xeb\xb7Y>'
p1187
tp1188
Rp1189
tp1190
a(g1180
I9
F1.1573600769042969
I36
F0.10627865791320801
F0.08291459083557129
g3
(g7
S'P^|M\x98\xc6\\>'
p1191
tp1192
Rp1193
tp1194
atp1195
a(I8
I225
(lp1196
(S'sto-iht'
p1197
I9
F0.7411491870880127
I36
F0.0
F0.003381967544555664
g3
(g7
S'\xad\r$\xfai\xb4L>'
p1198
tp1199
Rp1200
tp1201
a(S'graph-sto-iht'
p1202
I8
F0.8669168949127197
I32
F0.06611824035644531
F0.12943768501281738
g3
(g7
S'\xcbi\xbd\xb6\x84\xa9k>'
p1203
tp1204
Rp1205
tp1206
atp1207
a(I9
I225
(lp1208
(g1197
I9
F0.7520809173583984
I36
F0.0
F0.0033211708068847656
g3
(g7
S'\xa7|\x9bZ62h>'
p1209
tp1210
Rp1211
tp1212
a(g1202
I8
F0.9888999462127686
I32
F0.06999826431274414
F0.15712666511535645
g3
(g7
S'\x04\xcadp\xd8\xde|>'
p1213
tp1214
Rp1215
tp1216
atp1217
a(I10
I225
(lp1218
(S'sto-iht'
p1219
I9
F1.3159198760986328
I36
F0.0
F0.0044057369232177734
g3
(g7
S'(\x1a#\x87X\xefV>'
p1220
tp1221
Rp1222
tp1223
a(S'graph-sto-iht'
p1224
I9
F1.6172070503234863
I36
F0.11555862426757812
F0.22280597686767578
g3
(g7
S'\xea\xd9\x9f\x80\xe7\xa6P>'
p1225
tp1226
Rp1227
tp1228
atp1229
a(I11
I225
(lp1230
(g1219
I10
F0.9446799755096436
I40
F0.0
F0.0039064884185791016
g3
(g7
S'e?\xbb\x109PU>'
p1231
tp1232
Rp1233
tp1234
a(g1224
I9
F1.2312989234924316
I36
F0.09218454360961914
F0.11928749084472656
g3
(g7
S'o}\xe1`uC|>'
p1235
tp1236
Rp1237
tp1238
atp1239
a(I12
I225
(lp1240
(S'sto-iht'
p1241
I10
F1.454287052154541
I40
F0.0
F0.004937410354614258
g3
(g7
S'z!\xf3\xdb\xa8\x94T>'
p1242
tp1243
Rp1244
tp1245
a(S'graph-sto-iht'
p1246
I9
F1.6669390201568604
I36
F0.1140596866607666
F0.26950526237487793
g3
(g7
S'\xb2\xb3\xf3\x0exvp>'
p1247
tp1248
Rp1249
tp1250
atp1251
a(I13
I225
(lp1252
(g1241
I10
F1.6742379665374756
I40
F0.0
F0.005094289779663086
g3
(g7
S'\xf5\xa2H!\x9f\x84]>'
p1253
tp1254
Rp1255
tp1256
a(g1246
I9
F1.6888267993927002
I36
F0.15800786018371582
F0.1533212661743164
g3
(g7
S'\xb2r\x16\x00\x899w>'
p1257
tp1258
Rp1259
tp1260
atp1261
a(I14
I225
(lp1262
(S'sto-iht'
p1263
I9
F1.333014965057373
I36
F0.0
F0.004459857940673828
g3
(g7
S']\x8e\xf5\xd3\xf2@]>'
p1264
tp1265
Rp1266
tp1267
a(S'graph-sto-iht'
p1268
I8
F1.5847270488739014
I32
F0.10741877555847168
F0.3558971881866455
g3
(g7
S'\x8b\x11\xa3\xe1Q\xacq>'
p1269
tp1270
Rp1271
tp1272
atp1273
a(I15
I225
(lp1274
(g1263
I9
F1.4160230159759521
I36
F0.0
F0.00489044189453125
g3
(g7
S'\x84\xbd\xe3\x16\xccNj>'
p1275
tp1276
Rp1277
tp1278
a(g1268
I9
F1.70147705078125
I36
F0.1397712230682373
F0.19570016860961914
g3
(g7
S'\x97_C1\xe99V>'
p1279
tp1280
Rp1281
tp1282
atp1283
a(I16
I225
(lp1284
(S'sto-iht'
p1285
I9
F1.3064730167388916
I36
F0.0
F0.0044367313385009766
g3
(g7
S'!\x8d\xeb-SXi>'
p1286
tp1287
Rp1288
tp1289
a(S'graph-sto-iht'
p1290
I9
F1.6434340476989746
I36
F0.11789822578430176
F0.20566606521606445
g3
(g7
S'\xf7\xf0\x0c\xe5,\x9cj>'
p1291
tp1292
Rp1293
tp1294
atp1295
a(I17
I225
(lp1296
(g1285
I8
F1.2919249534606934
I32
F0.0
F0.004060268402099609
g3
(g7
S'\x16o\xa4\xfa\xfb\xe5z>'
p1297
tp1298
Rp1299
tp1300
a(g1290
I8
F1.4975512027740479
I32
F0.12367391586303711
F0.15444016456604004
g3
(g7
S'b\xe2\x03L\xe4\xdds>'
p1301
tp1302
Rp1303
tp1304
atp1305
a(I18
I225
(lp1306
(S'sto-iht'
p1307
I10
F1.5023200511932373
I40
F0.0
F0.0046465396881103516
g3
(g7
S'\xd1\xd2\xd2A(1^>'
p1308
tp1309
Rp1310
tp1311
a(S'graph-sto-iht'
p1312
I9
F1.5156810283660889
I36
F0.1067953109741211
F0.18466925621032715
g3
(g7
S'\x07\x90N8j\xd2h>'
p1313
tp1314
Rp1315
tp1316
atp1317
a(I19
I225
(lp1318
(g1307
I9
F1.4232978820800781
I36
F0.0
F0.003920316696166992
g3
(g7
S'*.\x95)v;{>'
p1319
tp1320
Rp1321
tp1322
a(g1312
I10
F1.1523349285125732
I40
F0.07880401611328125
F0.08624529838562012
g3
(g7
S'\xa0k\x8b\xb8\xd2\xb8Y>'
p1323
tp1324
Rp1325
tp1326
atp1327
a(I20
I225
(lp1328
(S'sto-iht'
p1329
I9
F0.7444119453430176
I36
F0.0
F0.0030851364135742188
g3
(g7
S'\x94M\xd4\xd3$\x84n>'
p1330
tp1331
Rp1332
tp1333
a(S'graph-sto-iht'
p1334
I9
F0.9593029022216797
I36
F0.0692594051361084
F0.12834930419921875
g3
(g7
S'T\x0c\xe2\xaf\t\xb4p>'
p1335
tp1336
Rp1337
tp1338
atp1339
a(I21
I225
(lp1340
(g1329
I9
F0.7740089893341064
I36
F0.0
F0.0031130313873291016
g3
(g7
S'\xb4\xce\x0b\xc1A\x1dx>'
p1341
tp1342
Rp1343
tp1344
a(g1334
I9
F1.5253708362579346
I36
F0.11511063575744629
F0.19873714447021484
g3
(g7
S'\xefr5\x95\xe88p>'
p1345
tp1346
Rp1347
tp1348
atp1349
a(I22
I225
(lp1350
(S'sto-iht'
p1351
I10
F1.5060930252075195
I40
F0.0
F0.004562854766845703
g3
(g7
S'\xf1\xc0\x96F\xe8\x0bT>'
p1352
tp1353
Rp1354
tp1355
a(S'graph-sto-iht'
p1356
I8
F1.4248499870300293
I32
F0.09361529350280762
F0.32415032386779785
g3
(g7
S'O?\xaf\xfe\xef\xc9x>'
p1357
tp1358
Rp1359
tp1360
atp1361
a(I23
I225
(lp1362
(g1351
I10
F0.9437549114227295
I40
F0.0
F0.0035169124603271484
g3
(g7
S'_\xdaP\xd7\xaa\xa2a>'
p1363
tp1364
Rp1365
tp1366
a(g1356
I9
F1.0340080261230469
I36
F0.07233405113220215
F0.09524703025817871
g3
(g7
S'\x18\x03\x8c\xc9z\xaeW>'
p1367
tp1368
Rp1369
tp1370
atp1371
a(I24
I225
(lp1372
(S'sto-iht'
p1373
I10
F1.4379229545593262
I40
F0.0
F0.005001544952392578
g3
(g7
S'\xe1\xb0\x12 \xd1\xa2T>'
p1374
tp1375
Rp1376
tp1377
a(S'graph-sto-iht'
p1378
I9
F1.6247429847717285
I36
F0.11178946495056152
F0.24310612678527832
g3
(g7
S'\xe4\xdd\x84\x10)Hi>'
p1379
tp1380
Rp1381
tp1382
atp1383
a(I25
I225
(lp1384
(g1373
I10
F1.5427610874176025
I40
F0.0
F0.004958152770996094
g3
(g7
S'e=.\xe7\x17\x03Q>'
p1385
tp1386
Rp1387
tp1388
a(g1378
I10
F1.9762859344482422
I40
F0.14029288291931152
F0.3168148994445801
g3
(g7
S'\x0e\x9b\x14\xaf\x05-R>'
p1389
tp1390
Rp1391
tp1392
atp1393
a(I26
I225
(lp1394
(S'sto-iht'
p1395
I9
F1.3437609672546387
I36
F0.0
F0.004140615463256836
g3
(g7
S';Vc\xfa\x18\x00m>'
p1396
tp1397
Rp1398
tp1399
a(S'graph-sto-iht'
p1400
I9
F1.7334418296813965
I36
F0.1268906593322754
F0.29495835304260254
g3
(g7
S'\x83\x95\xe0\xef\xf8|j>'
p1401
tp1402
Rp1403
tp1404
atp1405
a(I27
I225
(lp1406
(g1395
I10
F1.7079839706420898
I40
F0.0
F0.004633665084838867
g3
(g7
S'\xf9-\n\x8e?Fa>'
p1407
tp1408
Rp1409
tp1410
a(g1400
I9
F1.738218069076538
I36
F0.15076398849487305
F0.12453150749206543
g3
(g7
S')\x0c\x86,3\xcec>'
p1411
tp1412
Rp1413
tp1414
atp1415
a(I28
I225
(lp1416
(S'sto-iht'
p1417
I9
F0.7809710502624512
I36
F0.0
F0.0034530162811279297
g3
(g7
S'\x89u\xbf/`\xa1r>'
p1418
tp1419
Rp1420
tp1421
a(S'graph-sto-iht'
p1422
I9
F0.9726200103759766
I36
F0.06856465339660645
F0.15225529670715332
g3
(g7
S'\xccY\xad\x98=\x86a>'
p1423
tp1424
Rp1425
tp1426
atp1427
a(I29
I225
(lp1428
(g1417
I10
F0.8666222095489502
I40
F0.0
F0.003874540328979492
g3
(g7
S'PcQ\x07\x1c\xbbU>'
p1429
tp1430
Rp1431
tp1432
a(g1422
I9
F1.366534948348999
I36
F0.1051626205444336
F0.1756305694580078
g3
(g7
S'=\xe8\x04\xde).s>'
p1433
tp1434
Rp1435
tp1436
atp1437
a(I30
I225
(lp1438
(S'sto-iht'
p1439
I9
F1.3331780433654785
I36
F0.0
F0.004227876663208008
g3
(g7
S'\xfc\x0f%\xcan\xbeq>'
p1440
tp1441
Rp1442
tp1443
a(S'graph-sto-iht'
p1444
I9
F1.5842909812927246
I36
F0.12261176109313965
F0.1806023120880127
g3
(g7
S'\x835\xc5\xf5\x1cT^>'
p1445
tp1446
Rp1447
tp1448
atp1449
a(I31
I225
(lp1450
(g1439
I9
F1.517547845840454
I36
F0.0
F0.004486560821533203
g3
(g7
S'\xe9\xd0\x9a%X\xabh>'
p1451
tp1452
Rp1453
tp1454
a(g1444
I9
F1.841702938079834
I36
F0.14830803871154785
F0.18031001091003418
g3
(g7
S'\x8a\x02Qi\xbb\xc2]>'
p1455
tp1456
Rp1457
tp1458
atp1459
a(I32
I225
(lp1460
(S'sto-iht'
p1461
I9
F1.318039894104004
I36
F0.0
F0.004634857177734375
g3
(g7
S'B>\x8f\xf7\x0e\x87p>'
p1462
tp1463
Rp1464
tp1465
a(S'graph-sto-iht'
p1466
I9
F1.572737216949463
I36
F0.11544275283813477
F0.21527671813964844
g3
(g7
S'\x9f\x0cZf1\x01b>'
p1467
tp1468
Rp1469
tp1470
atp1471
a(I33
I225
(lp1472
(g1461
I10
F1.6675281524658203
I40
F0.0
F0.005151033401489258
g3
(g7
S'\xb6\x8d\xe3\x11\xe4\xa2k>'
p1473
tp1474
Rp1475
tp1476
a(g1466
I9
F1.744877815246582
I36
F0.14033985137939453
F0.23992681503295898
g3
(g7
S'\xfc\x94-P\xd3\xc5p>'
p1477
tp1478
Rp1479
tp1480
atp1481
a(I34
I225
(lp1482
(S'sto-iht'
p1483
I9
F1.3333430290222168
I36
F0.0
F0.004617214202880859
g3
(g7
S'\x0bX\xec .\x83V>'
p1484
tp1485
Rp1486
tp1487
a(S'graph-sto-iht'
p1488
I9
F1.5510821342468262
I36
F0.11714863777160645
F0.14838862419128418
g3
(g7
S'\xf6\xca\x95\xcf\x85nl>'
p1489
tp1490
Rp1491
tp1492
atp1493
a(I35
I225
(lp1494
(g1483
I9
F0.9245398044586182
I36
F0.0
F0.0034551620483398438
g3
(g7
S'B\x9b\x92\x06)Dx>'
p1495
tp1496
Rp1497
tp1498
a(g1488
I9
F1.0255157947540283
I36
F0.0697627067565918
F0.13198280334472656
g3
(g7
S'J\xa9\x92:\x06\xefQ>'
p1499
tp1500
Rp1501
tp1502
atp1503
a(I36
I225
(lp1504
(S'sto-iht'
p1505
I9
F1.3069090843200684
I36
F0.0
F0.0039825439453125
g3
(g7
S'z\xb8/\x1e\x9bwl>'
p1506
tp1507
Rp1508
tp1509
a(S'graph-sto-iht'
p1510
I9
F1.5207960605621338
I36
F0.12065672874450684
F0.11699771881103516
g3
(g7
S'\x1c\xb5<C^\xe9X>'
p1511
tp1512
Rp1513
tp1514
atp1515
a(I37
I225
(lp1516
(g1505
I9
F1.5012059211730957
I36
F0.0
F0.0045316219329833984
g3
(g7
S'\xe7\xb5\xf3iW\xf5R>'
p1517
tp1518
Rp1519
tp1520
a(g1510
I9
F1.8706309795379639
I36
F0.1347670555114746
F0.23432278633117676
g3
(g7
S'\x13\xb4\x01\xa98kZ>'
p1521
tp1522
Rp1523
tp1524
atp1525
a(I38
I225
(lp1526
(S'sto-iht'
p1527
I10
F1.5194809436798096
I40
F0.0
F0.00452113151550293
g3
(g7
S'a\x8a\x1f\xba\xbc\xc9Z>'
p1528
tp1529
Rp1530
tp1531
a(S'graph-sto-iht'
p1532
I9
F1.8474531173706055
I36
F0.12108254432678223
F0.4160423278808594
g3
(g7
S'v\x9b\x8d\xc8\xb7\x87|>'
p1533
tp1534
Rp1535
tp1536
atp1537
a(I39
I225
(lp1538
(g1527
I10
F1.793666124343872
I40
F0.0
F0.004983425140380859
g3
(g7
S'\xf69\x16X\xbd\x8fv>'
p1539
tp1540
Rp1541
tp1542
a(g1532
I10
F2.077285051345825
I40
F0.1666727066040039
F0.21495747566223145
g3
(g7
S'`\x9c\xda\xe5r\x01f>'
p1543
tp1544
Rp1545
tp1546
atp1547
a(I40
I225
(lp1548
(S'sto-iht'
p1549
I10
F1.4651820659637451
I40
F0.0
F0.004891157150268555
g3
(g7
S'\x06\x91\xd5\xf6\xbd\x1bW>'
p1550
tp1551
Rp1552
tp1553
a(S'graph-sto-iht'
p1554
I8
F1.4764559268951416
I32
F0.10584068298339844
F0.2734546661376953
g3
(g7
S'\xf7l\xd3\x91\xd7%i>'
p1555
tp1556
Rp1557
tp1558
atp1559
a(I41
I225
(lp1560
(g1549
I8
F1.297935962677002
I32
F0.0
F0.004145145416259766
g3
(g7
S'\xef\x16-\x0e\xae\x8fc>'
p1561
tp1562
Rp1563
tp1564
a(g1554
I9
F1.6439440250396729
I36
F0.13681459426879883
F0.18970394134521484
g3
(g7
S'\x01l\x8b\xe5"(b>'
p1565
tp1566
Rp1567
tp1568
atp1569
a(I42
I225
(lp1570
(S'sto-iht'
p1571
I10
F1.4475350379943848
I40
F0.0
F0.00504302978515625
g3
(g7
S'$sn\xb4\x0c\xc5Y>'
p1572
tp1573
Rp1574
tp1575
a(S'graph-sto-iht'
p1576
I9
F1.7816259860992432
I36
F0.12128281593322754
F0.32788777351379395
g3
(g7
S'\xf9\x9d\x96\xa0\x15\xa8c>'
p1577
tp1578
Rp1579
tp1580
atp1581
a(I43
I225
(lp1582
(g1571
I10
F1.6130690574645996
I40
F0.0
F0.005043745040893555
g3
(g7
S'\xe3\xf3\x8d\x88\xaa\x8d_>'
p1583
tp1584
Rp1585
tp1586
a(g1576
I10
F2.018012046813965
I40
F0.15974068641662598
F0.2662851810455322
g3
(g7
S'E\xab\x03NJ\x86Z>'
p1587
tp1588
Rp1589
tp1590
atp1591
a(I44
I225
(lp1592
(S'sto-iht'
p1593
I9
F1.3360679149627686
I36
F0.0
F0.0043833255767822266
g3
(g7
S'\xb3\x8d\xc5.\x84Zs>'
p1594
tp1595
Rp1596
tp1597
a(S'graph-sto-iht'
p1598
I9
F1.5479559898376465
I36
F0.12102055549621582
F0.17302966117858887
g3
(g7
S'\xd0\x17\xfb^\xed\xd9P>'
p1599
tp1600
Rp1601
tp1602
atp1603
a(I45
I225
(lp1604
(g1593
I9
F1.3917639255523682
I36
F0.0
F0.004648447036743164
g3
(g7
S'\x04D \x05x`R>'
p1605
tp1606
Rp1607
tp1608
a(g1598
I10
F1.96872878074646
I40
F0.13996553421020508
F0.2794528007507324
g3
(g7
S"\x08V\x1cy\xc9'X>"
p1609
tp1610
Rp1611
tp1612
atp1613
a(I46
I225
(lp1614
(S'sto-iht'
p1615
I9
F1.3620638847351074
I36
F0.0
F0.004595756530761719
g3
(g7
S'\x0c\x90\x96\x90qvw>'
p1616
tp1617
Rp1618
tp1619
a(S'graph-sto-iht'
p1620
I9
F1.6876091957092285
I36
F0.13514137268066406
F0.2536191940307617
g3
(g7
S'\xc1\xd3&\xa4\x0f\xecT>'
p1621
tp1622
Rp1623
tp1624
atp1625
a(I47
I225
(lp1626
(g1615
I9
F1.4291799068450928
I36
F0.0
F0.004773855209350586
g3
(g7
S'\xf3\x91\xb2\x1f\xf7\xebv>'
p1627
tp1628
Rp1629
tp1630
a(g1620
I9
F1.7734670639038086
I36
F0.11646652221679688
F0.22916340827941895
g3
(g7
S'K\xc2\xd6\x1a]1}>'
p1631
tp1632
Rp1633
tp1634
atp1635
a(I48
I225
(lp1636
(S'sto-iht'
p1637
I9
F0.7611119747161865
I36
F0.0
F0.0031023025512695312
g3
(g7
S'}Dd@K(}>'
p1638
tp1639
Rp1640
tp1641
a(S'graph-sto-iht'
p1642
I9
F0.9258208274841309
I36
F0.06533479690551758
F0.10688567161560059
g3
(g7
S'\xdc|\xf1\x0b\xc8\x01d>'
p1643
tp1644
Rp1645
tp1646
atp1647
a(I49
I225
(lp1648
(g1637
I9
F0.8953819274902344
I36
F0.0
F0.0033469200134277344
g3
(g7
S'\xd6\x92/\xe5\xb2\x1ai>'
p1649
tp1650
Rp1651
tp1652
a(g1642
I9
F1.7750730514526367
I36
F0.14486360549926758
F0.11195778846740723
g3
(g7
S'>7\xb6\xd3/\xd5o>'
p1653
tp1654
Rp1655
tp1656
atp1657
a(I0
I112
(lp1658
(S'sto-iht'
p1659
I11
F1.8477740287780762
I88
F0.0
F0.010096311569213867
g3
(g7
S'0\x91\x8c\xdd\xa2\x1cY>'
p1660
tp1661
Rp1662
tp1663
a(S'graph-sto-iht'
p1664
I11
F2.9096899032592773
I88
F0.35611701011657715
F0.6363580226898193
g3
(g7
S'\xe5\xac/\xeb\x84\xf9`>'
p1665
tp1666
Rp1667
tp1668
atp1669
a(I1
I112
(lp1670
(g1659
I12
F2.2459611892700195
I96
F0.0
F0.011857271194458008
g3
(g7
S'X\xab#\xfak\x83c>'
p1671
tp1672
Rp1673
tp1674
a(g1664
I11
F2.9030299186706543
I88
F0.39094114303588867
F0.44873690605163574
g3
(g7
S'\xf7\x08vw/5`>'
p1675
tp1676
Rp1677
tp1678
atp1679
a(I2
I112
(lp1680
(S'sto-iht'
p1681
I11
F1.7513880729675293
I88
F0.0
F0.009754657745361328
g3
(g7
S'\x01\x12\xfa\xfd\xf1\x8fp>'
p1682
tp1683
Rp1684
tp1685
a(S'graph-sto-iht'
p1686
I10
F1.891422986984253
I80
F0.22425436973571777
F0.3103516101837158
g3
(g7
S'>3\xbeS\x14cw>'
p1687
tp1688
Rp1689
tp1690
atp1691
a(I3
I112
(lp1692
(g1681
I12
F1.37910795211792
I96
F0.0
F0.008265018463134766
g3
(g7
S'\x98\xf4rD\xdcji>'
p1693
tp1694
Rp1695
tp1696
a(g1686
I12
F1.9391529560089111
I96
F0.20296502113342285
F0.29849791526794434
g3
(g7
S'\x17\x1e\xf2\xc0\x13B^>'
p1697
tp1698
Rp1699
tp1700
atp1701
a(I4
I112
(lp1702
(S'sto-iht'
p1703
I12
F2.0118699073791504
I96
F0.0
F0.01105809211730957
g3
(g7
S'\xe9\x98*\x8d\xd8\xc4g>'
p1704
tp1705
Rp1706
tp1707
a(S'graph-sto-iht'
p1708
I11
F2.908578872680664
I88
F0.3704254627227783
F0.5532090663909912
g3
(g7
S'\xd9L\r\xe1&\xc1a>'
p1709
tp1710
Rp1711
tp1712
atp1713
a(I5
I112
(lp1714
(g1703
I11
F2.038817882537842
I88
F0.0
F0.011164188385009766
g3
(g7
S'\xde\xf5.\xd5\x9d\xfes>'
p1715
tp1716
Rp1717
tp1718
a(g1708
I11
F3.142411947250366
I88
F0.3598146438598633
F0.6630358695983887
g3
(g7
S'I\xac\xbb\x98\x1f\xf1d>'
p1719
tp1720
Rp1721
tp1722
atp1723
a(I6
I112
(lp1724
(S'sto-iht'
p1725
I11
F1.817533016204834
I88
F0.0
F0.00995779037475586
g3
(g7
S'2E\x02f\xfc\x97W>'
p1726
tp1727
Rp1728
tp1729
a(S'graph-sto-iht'
p1730
I11
F2.8850340843200684
I88
F0.3488292694091797
F0.584843635559082
g3
(g7
S'\xe2\x9f\xe5\xc8\xe9\xe1`>'
p1731
tp1732
Rp1733
tp1734
atp1735
a(I7
I112
(lp1736
(g1725
I11
F2.0894088745117188
I88
F0.0
F0.010867595672607422
g3
(g7
S'B06\xac\xf5\xd2e>'
p1737
tp1738
Rp1739
tp1740
a(g1730
I11
F3.1590769290924072
I88
F0.3456687927246094
F0.8385910987854004
g3
(g7
S'\xb5\xdd\xb5%v\xb3e>'
p1741
tp1742
Rp1743
tp1744
atp1745
a(I8
I112
(lp1746
(S'sto-iht'
p1747
I10
F1.5924341678619385
I80
F0.0
F0.010086774826049805
g3
(g7
S'\x86^X\xa1\xe1\x19q>'
p1748
tp1749
Rp1750
tp1751
a(S'graph-sto-iht'
p1752
I10
F2.3755531311035156
I80
F0.3036637306213379
F0.35134220123291016
g3
(g7
S'\x89\x9a\x91\x1e*\xf3h>'
p1753
tp1754
Rp1755
tp1756
atp1757
a(I9
I112
(lp1758
(g1747
I11
F1.8716399669647217
I88
F0.0
F0.011595726013183594
g3
(g7
S'Ra\xa4\x93\xbbX|>'
p1759
tp1760
Rp1761
tp1762
a(g1752
I11
F3.028563976287842
I88
F0.37877559661865234
F0.5550644397735596
g3
(g7
S'\x8a\xefdV\xb4\xa6Z>'
p1763
tp1764
Rp1765
tp1766
atp1767
a(I10
I112
(lp1768
(S'sto-iht'
p1769
I11
F1.136225938796997
I88
F0.0
F0.007513523101806641
g3
(g7
S'[\xb2\x13\x89K\xadX>'
p1770
tp1771
Rp1772
tp1773
a(S'graph-sto-iht'
p1774
I11
F2.025338888168335
I88
F0.2171947956085205
F0.3575758934020996
g3
(g7
S'\x1d\xf8\xa9\xc7\xb6\x8b\\>'
p1775
tp1776
Rp1777
tp1778
atp1779
a(I11
I112
(lp1780
(g1769
I11
F2.0413949489593506
I88
F0.0
F0.010867118835449219
g3
(g7
S'\x9e\xec\x94\x02\xd0\xdbV>'
p1781
tp1782
Rp1783
tp1784
a(g1774
I10
F2.7109811305999756
I80
F0.3182227611541748
F0.550743579864502
g3
(g7
S'F~,\x9c\xd8\xbbh>'
p1785
tp1786
Rp1787
tp1788
atp1789
a(I12
I112
(lp1790
(S'sto-iht'
p1791
I10
F0.9754948616027832
I80
F0.0
F0.007272481918334961
g3
(g7
S')wWv\x01\x10{>'
p1792
tp1793
Rp1794
tp1795
a(S'graph-sto-iht'
p1796
I10
F1.5337939262390137
I80
F0.16812968254089355
F0.3010227680206299
g3
(g7
S':\xbf\xcc\xaa\xa9vk>'
p1797
tp1798
Rp1799
tp1800
atp1801
a(I13
I112
(lp1802
(g1791
I12
F1.4016120433807373
I96
F0.0
F0.009723424911499023
g3
(g7
S'\xb0\xcf\xce\n93n>'
p1803
tp1804
Rp1805
tp1806
a(g1796
I12
F3.2555429935455322
I96
F0.4035367965698242
F0.5461475849151611
g3
(g7
S'\xd7\xdc\xd8\xb7B\xc8d>'
p1807
tp1808
Rp1809
tp1810
atp1811
a(I14
I112
(lp1812
(S'sto-iht'
p1813
I11
F1.7942659854888916
I88
F0.0
F0.011126279830932617
g3
(g7
S'\x15\xe05%\xd4\x82d>'
p1814
tp1815
Rp1816
tp1817
a(S'graph-sto-iht'
p1818
I10
F2.2773149013519287
I80
F0.2511601448059082
F0.44571971893310547
g3
(g7
S'r\xf6\x99-\x8b\xd2l>'
p1819
tp1820
Rp1821
tp1822
atp1823
a(I15
I112
(lp1824
(g1813
I11
F2.252082109451294
I88
F0.0
F0.011765480041503906
g3
(g7
S'D\x00n\x83\xb0\x8cg>'
p1825
tp1826
Rp1827
tp1828
a(g1818
I10
F2.4360790252685547
I80
F0.32348036766052246
F0.3105776309967041
g3
(g7
S'\xffz\xdd9N\x9fv>'
p1829
tp1830
Rp1831
tp1832
atp1833
a(I16
I112
(lp1834
(S'sto-iht'
p1835
I10
F1.67598295211792
I80
F0.0
F0.009148359298706055
g3
(g7
S'\\\xfeq \x13qy>'
p1836
tp1837
Rp1838
tp1839
a(S'graph-sto-iht'
p1840
I10
F2.4914560317993164
I80
F0.3261878490447998
F0.3087289333343506
g3
(g7
S'\xacdjS\x83\xaae>'
p1841
tp1842
Rp1843
tp1844
atp1845
a(I17
I112
(lp1846
(g1835
I11
F2.0546209812164307
I88
F0.0
F0.010393619537353516
g3
(g7
S'\xe8\xd7\xb7\x1c\xca\x8c{>'
p1847
tp1848
Rp1849
tp1850
a(g1840
I12
F2.6169888973236084
I96
F0.26856184005737305
F0.5022437572479248
g3
(g7
S'\xc4L{\xb5/FZ>'
p1851
tp1852
Rp1853
tp1854
atp1855
a(I18
I112
(lp1856
(S'sto-iht'
p1857
I11
F1.8531889915466309
I88
F0.0
F0.011209726333618164
g3
(g7
S'L\x9e\xfa\xd1\x7fFp>'
p1858
tp1859
Rp1860
tp1861
a(S'graph-sto-iht'
p1862
I10
F2.2865710258483887
I80
F0.25333476066589355
F0.42873311042785645
g3
(g7
S'\xe51,nJ s>'
p1863
tp1864
Rp1865
tp1866
atp1867
a(I19
I112
(lp1868
(g1857
I11
F1.3418028354644775
I88
F0.0
F0.008306741714477539
g3
(g7
S'\xadr\x9fN\x81\xfeZ>'
p1869
tp1870
Rp1871
tp1872
a(g1862
I10
F1.668200969696045
I80
F0.1680610179901123
F0.279052734375
g3
(g7
S'\xdb\xb4#\x1e,\xc8i>'
p1873
tp1874
Rp1875
tp1876
atp1877
a(I20
I112
(lp1878
(S'sto-iht'
p1879
I11
F1.930539846420288
I88
F0.0
F0.010380268096923828
g3
(g7
S'\xa0\xca\x0ev\xbaA}>'
p1880
tp1881
Rp1882
tp1883
a(S'graph-sto-iht'
p1884
I11
F1.6701648235321045
I88
F0.17857646942138672
F0.21300077438354492
g3
(g7
S'X\xe0W\xc7H\x8dY>'
p1885
tp1886
Rp1887
tp1888
atp1889
a(I21
I112
(lp1890
(g1879
I11
F1.2971501350402832
I88
F0.0
F0.0076446533203125
g3
(g7
S"\xe1@\x8cQ'\xc9q>"
p1891
tp1892
Rp1893
tp1894
a(g1884
I100
F10.66613507270813
I800
F1.3568215370178223
F1.7235848903656006
g3
(g7
S':\x90\xea\xc4E\xb1\x9e?'
p1895
tp1896
Rp1897
tp1898
atp1899
a(I22
I112
(lp1900
(S'sto-iht'
p1901
I11
F1.851151943206787
I88
F0.0
F0.011726617813110352
g3
(g7
S'*\xa6\xe2\xb6T\xd7d>'
p1902
tp1903
Rp1904
tp1905
a(S'graph-sto-iht'
p1906
I10
F2.3755600452423096
I80
F0.27731895446777344
F0.5107762813568115
g3
(g7
S"\xee\xc1'\xf8\x83e~>"
p1907
tp1908
Rp1909
tp1910
atp1911
a(I23
I112
(lp1912
(g1901
I10
F1.942591905593872
I80
F0.0
F0.01053619384765625
g3
(g7
S'\xf0\xa2Qp\x8b(v>'
p1913
tp1914
Rp1915
tp1916
a(g1906
I10
F1.9452390670776367
I80
F0.22001886367797852
F0.24895000457763672
g3
(g7
S'\x8cY\t\xb4\x8e[c>'
p1917
tp1918
Rp1919
tp1920
atp1921
a(I24
I112
(lp1922
(S'sto-iht'
p1923
I10
F1.7419850826263428
I80
F0.0
F0.009749889373779297
g3
(g7
S'\x03\x96\xe4_h\x9dv>'
p1924
tp1925
Rp1926
tp1927
a(S'graph-sto-iht'
p1928
I10
F2.6922171115875244
I80
F0.31836581230163574
F0.5607047080993652
g3
(g7
S'\x81\x91kp\xc2\x04m>'
p1929
tp1930
Rp1931
tp1932
atp1933
a(I25
I112
(lp1934
(g1923
I11
F2.1259238719940186
I88
F0.0
F0.011119842529296875
g3
(g7
S'\xa5W\xa5=rSi>'
p1935
tp1936
Rp1937
tp1938
a(g1928
I10
F2.4144058227539062
I80
F0.3019692897796631
F0.4785945415496826
g3
(g7
S'm\xa4\xb0\n\xb9\xcdm>'
p1939
tp1940
Rp1941
tp1942
atp1943
a(I26
I112
(lp1944
(S'sto-iht'
p1945
I10
F1.7085139751434326
I80
F0.0
F0.009370565414428711
g3
(g7
S'\x03m[k\xb1\x14v>'
p1946
tp1947
Rp1948
tp1949
a(S'graph-sto-iht'
p1950
I10
F2.98315691947937
I80
F0.34082603454589844
F0.7692773342132568
g3
(g7
S'\xfbS\x05\xaa\xde%v>'
p1951
tp1952
Rp1953
tp1954
atp1955
a(I27
I112
(lp1956
(g1945
I11
F1.977281093597412
I88
F0.0
F0.010635614395141602
g3
(g7
S'\x1d\xdcDI\xe1kh>'
p1957
tp1958
Rp1959
tp1960
a(g1950
I11
F1.9903509616851807
I88
F0.22124981880187988
F0.3192269802093506
g3
(g7
S'\xab\xe3\x1bsh#b>'
p1961
tp1962
Rp1963
tp1964
atp1965
a(I28
I112
(lp1966
(S'sto-iht'
p1967
I10
F1.7792980670928955
I80
F0.0
F0.010146141052246094
g3
(g7
S'\x83z\x03\x95\x86\xae{>'
p1968
tp1969
Rp1970
tp1971
a(S'graph-sto-iht'
p1972
I10
F2.588850975036621
I80
F0.3142545223236084
F0.4302053451538086
g3
(g7
S'\xa8w<l\xe3tf>'
p1973
tp1974
Rp1975
tp1976
atp1977
a(I29
I112
(lp1978
(g1967
I11
F2.105091094970703
I88
F0.0
F0.010740518569946289
g3
(g7
S'\xba\xeda\x82\xa0\xd3f>'
p1979
tp1980
Rp1981
tp1982
a(g1972
I10
F2.4879119396209717
I80
F0.2655160427093506
F0.48662352561950684
g3
(g7
S'V\xaaE\xf3\xd1s{>'
p1983
tp1984
Rp1985
tp1986
atp1987
a(I30
I112
(lp1988
(S'sto-iht'
p1989
I11
F1.9238669872283936
I88
F0.0
F0.010313749313354492
g3
(g7
S'=\x99a\x15\xe3OX>'
p1990
tp1991
Rp1992
tp1993
a(S'graph-sto-iht'
p1994
I11
F3.1158008575439453
I88
F0.3614048957824707
F0.6888217926025391
g3
(g7
S'\xc8\xb5\xc5\xc5y@U>'
p1995
tp1996
Rp1997
tp1998
atp1999
a(I31
I112
(lp2000
(g1989
I12
F2.2293760776519775
I96
F0.0
F0.011818408966064453
g3
(g7
S'*%%\xee&ae>'
p2001
tp2002
Rp2003
tp2004
a(g1994
I12
F1.8419830799102783
I96
F0.18270540237426758
F0.359302282333374
g3
(g7
S'\xe2\xa0\x01\x11\xf7\ra>'
p2005
tp2006
Rp2007
tp2008
atp2009
a(I32
I112
(lp2010
(S'sto-iht'
p2011
I11
F1.9883959293365479
I88
F0.0
F0.011059284210205078
g3
(g7
S'\xb6\x07)\xe2<>v>'
p2012
tp2013
Rp2014
tp2015
a(S'graph-sto-iht'
p2016
I11
F2.7182259559631348
I88
F0.32814955711364746
F0.43752455711364746
g3
(g7
S'\xf9\xcdo\n}Fh>'
p2017
tp2018
Rp2019
tp2020
atp2021
a(I33
I112
(lp2022
(g2011
I11
F2.233297109603882
I88
F0.0
F0.011905431747436523
g3
(g7
S'\xadrJv\xd1Ch>'
p2023
tp2024
Rp2025
tp2026
a(g2016
I10
F2.1133720874786377
I80
F0.26380133628845215
F0.2747800350189209
g3
(g7
S'\x07_\xf3\xbe\xd2if>'
p2027
tp2028
Rp2029
tp2030
atp2031
a(I34
I112
(lp2032
(S'sto-iht'
p2033
I11
F1.9408440589904785
I88
F0.0
F0.01112222671508789
g3
(g7
S'P\xad\xb2\x15ZUl>'
p2034
tp2035
Rp2036
tp2037
a(S'graph-sto-iht'
p2038
I10
F2.524182081222534
I80
F0.29306650161743164
F0.48403191566467285
g3
(g7
S'\xb8\x88\xac\xb3\xe6\xe1z>'
p2039
tp2040
Rp2041
tp2042
atp2043
a(I35
I112
(lp2044
(g2033
I11
F2.3071699142456055
I88
F0.0
F0.011614561080932617
g3
(g7
S'\xb1g\x8e5\xa6\xf1h>'
p2045
tp2046
Rp2047
tp2048
a(g2038
I9
F1.9556970596313477
I72
F0.25467658042907715
F0.29221653938293457
g3
(g7
S'\xc3\x1c\x94w3\xafz>'
p2049
tp2050
Rp2051
tp2052
atp2053
a(I36
I112
(lp2054
(S'sto-iht'
p2055
I11
F1.9680769443511963
I88
F0.0
F0.010444879531860352
g3
(g7
S'\xad\x1f\xb6\x1c#\xb3\\>'
p2056
tp2057
Rp2058
tp2059
a(S'graph-sto-iht'
p2060
I11
F2.9056317806243896
I88
F0.3605775833129883
F0.48131585121154785
g3
(g7
S'\xc0%\x93$\xecM]>'
p2061
tp2062
Rp2063
tp2064
atp2065
a(I37
I112
(lp2066
(g2055
I11
F1.9953699111938477
I88
F0.0
F0.010706901550292969
g3
(g7
S'\x85b3/Q_b>'
p2067
tp2068
Rp2069
tp2070
a(g2060
I11
F2.4658091068267822
I88
F0.2650139331817627
F0.48509931564331055
g3
(g7
S'L\xd0\x01Ev\x97_>'
p2071
tp2072
Rp2073
tp2074
atp2075
a(I38
I112
(lp2076
(S'sto-iht'
p2077
I10
F1.7368440628051758
I80
F0.0
F0.010046958923339844
g3
(g7
S'bEs]\x9a\x96`>'
p2078
tp2079
Rp2080
tp2081
a(S'graph-sto-iht'
p2082
I10
F3.0160648822784424
I80
F0.3329615592956543
F0.8434069156646729
g3
(g7
S'4\x86\xec\x80\x8c\x7fn>'
p2083
tp2084
Rp2085
tp2086
atp2087
a(I39
I112
(lp2088
(g2077
I12
F2.2236411571502686
I96
F0.0
F0.01261448860168457
g3
(g7
S'\xdeq$\x8c\x8eR[>'
p2089
tp2090
Rp2091
tp2092
a(g2082
I10
F2.462614059448242
I80
F0.29462766647338867
F0.38450145721435547
g3
(g7
S'*\xc2\xe4\xb9\x9d\xabh>'
p2093
tp2094
Rp2095
tp2096
atp2097
a(I40
I112
(lp2098
(S'sto-iht'
p2099
I11
F1.8635060787200928
I88
F0.0
F0.011408090591430664
g3
(g7
S'\x9d\nz\x85\xe2\xcbc>'
p2100
tp2101
Rp2102
tp2103
a(S'graph-sto-iht'
p2104
I11
F3.0005528926849365
I88
F0.3955984115600586
F0.5648410320281982
g3
(g7
S'\xa1\x93\xc5\xa7\xeb\xa5l>'
p2105
tp2106
Rp2107
tp2108
atp2109
a(I41
I112
(lp2110
(g2099
I11
F1.8403701782226562
I88
F0.0
F0.010701179504394531
g3
(g7
S'%h\xd5;\x1fL`>'
p2111
tp2112
Rp2113
tp2114
a(g2104
I10
F1.638775110244751
I80
F0.1547377109527588
F0.35089707374572754
g3
(g7
S'mx\x99\xc4\xcb\x12\\>'
p2115
tp2116
Rp2117
tp2118
atp2119
a(I42
I112
(lp2120
(S'sto-iht'
p2121
I11
F2.019942045211792
I88
F0.0
F0.010548114776611328
g3
(g7
S'3i\x8f\x1a\x9f f>'
p2122
tp2123
Rp2124
tp2125
a(S'graph-sto-iht'
p2126
I11
F2.938966989517212
I88
F0.36543869972229004
F0.4909992218017578
g3
(g7
S'\x99\xa7TB\x91\x95T>'
p2127
tp2128
Rp2129
tp2130
atp2131
a(I43
I112
(lp2132
(g2121
I11
F2.045545816421509
I88
F0.0
F0.01065683364868164
g3
(g7
S'\xb7D\x87\xf5F([>'
p2133
tp2134
Rp2135
tp2136
a(g2126
I10
F1.9901719093322754
I80
F0.19709277153015137
F0.5639934539794922
g3
(g7
S'\x04\x19A\xc3\x14\x98}>'
p2137
tp2138
Rp2139
tp2140
atp2141
a(I44
I112
(lp2142
(S'sto-iht'
p2143
I11
F2.004254102706909
I88
F0.0
F0.011132240295410156
g3
(g7
S'|?\xcda\xe8\xc6t>'
p2144
tp2145
Rp2146
tp2147
a(S'graph-sto-iht'
p2148
I10
F2.653671979904175
I80
F0.3349609375
F0.48957276344299316
g3
(g7
S"\xa2\xf6\xdc\x8ds'u>"
p2149
tp2150
Rp2151
tp2152
atp2153
a(I45
I112
(lp2154
(g2143
I11
F2.0803029537200928
I88
F0.0
F0.011574983596801758
g3
(g7
S'\xc6\x04}\xde\xfb\xc1r>'
p2155
tp2156
Rp2157
tp2158
a(g2148
I11
F1.6536791324615479
I88
F0.15812397003173828
F0.268770694732666
g3
(g7
S'\xe7?\xa2~\x99\x99i>'
p2159
tp2160
Rp2161
tp2162
atp2163
a(I46
I112
(lp2164
(S'sto-iht'
p2165
I10
F1.3545658588409424
I80
F0.0
F0.00875544548034668
g3
(g7
S'\xc2\xb4\x9c\xdc\x82\x06w>'
p2166
tp2167
Rp2168
tp2169
a(S'graph-sto-iht'
p2170
I11
F2.75869083404541
I88
F0.32810401916503906
F0.5151646137237549
g3
(g7
S'\x81 B\x955\xd3Z>'
p2171
tp2172
Rp2173
tp2174
atp2175
a(I47
I112
(lp2176
(g2165
I10
F1.7081630229949951
I80
F0.0
F0.009104013442993164
g3
(g7
S'\x12glDi\xaam>'
p2177
tp2178
Rp2179
tp2180
a(g2170
I10
F1.6081109046936035
I80
F0.16400790214538574
F0.28182148933410645
g3
(g7
S'R)e\xb4\xd7-j>'
p2181
tp2182
Rp2183
tp2184
atp2185
a(I48
I112
(lp2186
(S'sto-iht'
p2187
I11
F2.168287992477417
I88
F0.0
F0.011745452880859375
g3
(g7
S'\x1a\x8aef\x97\x92z>'
p2188
tp2189
Rp2190
tp2191
a(S'graph-sto-iht'
p2192
I10
F2.9438509941101074
I80
F0.318603515625
F0.6803910732269287
g3
(g7
S'\x84\xf1\xfdR+\xe3v>'
p2193
tp2194
Rp2195
tp2196
atp2197
a(I49
I112
(lp2198
(g2187
I11
F1.7050049304962158
I88
F0.0
F0.009316682815551758
g3
(g7
S'\x0c\xb8\x0b%\xd1\xaas>'
p2199
tp2200
Rp2201
tp2202
a(g2192
I11
F1.5783159732818604
I88
F0.16063761711120605
F0.2602097988128662
g3
(g7
S'\x85\xa04\xec\x85~]>'
p2203
tp2204
Rp2205
tp2206
atp2207
a(I0
I90
(lp2208
(S'sto-iht'
p2209
I11
F2.1795010566711426
I110
F0.0
F0.013123273849487305
g3
(g7
S'/\xe0\xe9z\x94\xf7g>'
p2210
tp2211
Rp2212
tp2213
a(S'graph-sto-iht'
p2214
I10
F3.0346319675445557
I100
F0.3951113224029541
F0.5344259738922119
g3
(g7
S'\x15\xe2+\xc6D\x88r>'
p2215
tp2216
Rp2217
tp2218
atp2219
a(I1
I90
(lp2220
(g2209
I11
F2.0858521461486816
I110
F0.0
F0.013157367706298828
g3
(g7
S'\xa0\xd6\x03\xed\xc9:a>'
p2221
tp2222
Rp2223
tp2224
a(g2214
I11
F2.007293939590454
I110
F0.25539207458496094
F0.41341328620910645
g3
(g7
S':\xacA\x8d\xf8\xa7]>'
p2225
tp2226
Rp2227
tp2228
atp2229
a(I2
I90
(lp2230
(S'sto-iht'
p2231
I12
F2.3624019622802734
I120
F0.0
F0.014184236526489258
g3
(g7
S'\xc99Q\xc2\xdb\xbbh>'
p2232
tp2233
Rp2234
tp2235
a(S'graph-sto-iht'
p2236
I11
F2.5979950428009033
I110
F0.2995924949645996
F0.5964241027832031
g3
(g7
S'\xafFqX\x1c\xb5i>'
p2237
tp2238
Rp2239
tp2240
atp2241
a(I3
I90
(lp2242
(g2231
I11
F1.4185230731964111
I110
F0.0
F0.009474515914916992
g3
(g7
S'\x17\xe8\xf7G\x1a\xf0s>'
p2243
tp2244
Rp2245
tp2246
a(g2236
I11
F1.8825562000274658
I110
F0.19988369941711426
F0.41881728172302246
g3
(g7
S'T`\xeb\xe9\xd2]s>'
p2247
tp2248
Rp2249
tp2250
atp2251
a(I4
I90
(lp2252
(S'sto-iht'
p2253
I12
F2.3778350353240967
I120
F0.0
F0.014795780181884766
g3
(g7
S'\xb0\xa4x\xd5Q.c>'
p2254
tp2255
Rp2256
tp2257
a(S'graph-sto-iht'
p2258
I10
F3.2098238468170166
I100
F0.4436671733856201
F0.7135565280914307
g3
(g7
S'\xb09\x04\xe6nZ~>'
p2259
tp2260
Rp2261
tp2262
atp2263
a(I5
I90
(lp2264
(g2253
I11
F1.9714670181274414
I110
F0.0
F0.012974262237548828
g3
(g7
S'\x97\xcc\xe5\x0b]P{>'
p2265
tp2266
Rp2267
tp2268
a(g2258
I11
F1.5537481307983398
I110
F0.20621061325073242
F0.2644021511077881
g3
(g7
S'j\x0e\xd6|\x0c\xabj>'
p2269
tp2270
Rp2271
tp2272
atp2273
a(I6
I90
(lp2274
(S'sto-iht'
p2275
I11
F2.0292959213256836
I110
F0.0
F0.013808965682983398
g3
(g7
S'(#\xc13c\x9ap>'
p2276
tp2277
Rp2278
tp2279
a(S'graph-sto-iht'
p2280
I11
F3.5355429649353027
I110
F0.43596673011779785
F0.7306063175201416
g3
(g7
S'\xca\x07H[\x83\x8au>'
p2281
tp2282
Rp2283
tp2284
atp2285
a(I7
I90
(lp2286
(g2275
I11
F2.014932155609131
I110
F0.0
F0.014070272445678711
g3
(g7
S'\xae\x95\x01\xec\xc5\x04x>'
p2287
tp2288
Rp2289
tp2290
a(g2280
I10
F1.7819230556488037
I100
F0.2136847972869873
F0.2709200382232666
g3
(g7
S'<R\x8e\xdb\n\xa2r>'
p2291
tp2292
Rp2293
tp2294
atp2295
a(I8
I90
(lp2296
(S'sto-iht'
p2297
I11
F1.5487420558929443
I110
F0.0
F0.012618064880371094
g3
(g7
S'q\x07q\xbb\xd3\xe8c>'
p2298
tp2299
Rp2300
tp2301
a(S'graph-sto-iht'
p2302
I10
F2.0326449871063232
I100
F0.2500491142272949
F0.41333913803100586
g3
(g7
S'\t\xa5\x06\xe3huj>'
p2303
tp2304
Rp2305
tp2306
atp2307
a(I9
I90
(lp2308
(g2297
I12
F2.202237129211426
I120
F0.0
F0.016374826431274414
g3
(g7
S'M\x9bu\xcbX(v>'
p2309
tp2310
Rp2311
tp2312
a(g2302
I10
F2.061939001083374
I100
F0.2636268138885498
F0.32897329330444336
g3
(g7
S'#\x91\x84\x14\xf9\xd2y>'
p2313
tp2314
Rp2315
tp2316
atp2317
a(I10
I90
(lp2318
(S'sto-iht'
p2319
I11
F2.4714670181274414
I110
F0.0
F0.014323234558105469
g3
(g7
S'\xcf\xf5\xb9I\xe8^k>'
p2320
tp2321
Rp2322
tp2323
a(S'graph-sto-iht'
p2324
I10
F3.3524560928344727
I100
F0.4094104766845703
F0.8435332775115967
g3
(g7
S'5L\x8fRW\xcd`>'
p2325
tp2326
Rp2327
tp2328
atp2329
a(I11
I90
(lp2330
(g2319
I11
F1.6819519996643066
I110
F0.0
F0.010965347290039062
g3
(g7
S'\xac\x0f\xaf\xce\xdfng>'
p2331
tp2332
Rp2333
tp2334
a(g2324
I11
F1.3454160690307617
I110
F0.16464567184448242
F0.238541841506958
g3
(g7
S'\xa2\xc2\x0b.h][>'
p2335
tp2336
Rp2337
tp2338
atp2339
a(I12
I90
(lp2340
(S'sto-iht'
p2341
I11
F2.3601419925689697
I110
F0.0
F0.013853311538696289
g3
(g7
S"\xd4&?'\x8d>m>"
p2342
tp2343
Rp2344
tp2345
a(S'graph-sto-iht'
p2346
I11
F2.767703056335449
I110
F0.31897902488708496
F0.6441261768341064
g3
(g7
S'\xfaUI\xa1\xb3\xa1X>'
p2347
tp2348
Rp2349
tp2350
atp2351
a(I13
I90
(lp2352
(g2341
I11
F1.328598976135254
I110
F0.0
F0.00983881950378418
g3
(g7
S'\x98\xfe\xde\xd3\xec\x15i>'
p2353
tp2354
Rp2355
tp2356
a(g2346
I11
F1.7757651805877686
I110
F0.20174026489257812
F0.31901049613952637
g3
(g7
S'\xc4\x90\xf1\x86t\xcfj>'
p2357
tp2358
Rp2359
tp2360
atp2361
a(I14
I90
(lp2362
(S'sto-iht'
p2363
I12
F1.7963340282440186
I120
F0.0
F0.012720584869384766
g3
(g7
S'|\xf2\xee^8\x89_>'
p2364
tp2365
Rp2366
tp2367
a(S'graph-sto-iht'
p2368
I10
F3.2232391834259033
I100
F0.4235420227050781
F0.6879701614379883
g3
(g7
S"\x06y\x9a'\x1e\xf2v>"
p2369
tp2370
Rp2371
tp2372
atp2373
a(I15
I90
(lp2374
(g2363
I11
F1.9910049438476562
I110
F0.0
F0.013045549392700195
g3
(g7
S'h\xc9\xf5n,\xd9t>'
p2375
tp2376
Rp2377
tp2378
a(g2368
I10
F1.5591440200805664
I100
F0.16669940948486328
F0.3111908435821533
g3
(g7
S'\x1aC\x91\xc7Y\x14v>'
p2379
tp2380
Rp2381
tp2382
atp2383
a(I16
I90
(lp2384
(S'sto-iht'
p2385
I11
F1.5058979988098145
I110
F0.0
F0.009786128997802734
g3
(g7
S'\xd9\xd7\xfd\xc5\xc4\xc6b>'
p2386
tp2387
Rp2388
tp2389
a(S'graph-sto-iht'
p2390
I10
F1.8434970378875732
I100
F0.21990633010864258
F0.33322858810424805
g3
(g7
S'M\xefx\xee\xb4\x0e_>'
p2391
tp2392
Rp2393
tp2394
atp2395
a(I17
I90
(lp2396
(g2385
I11
F1.4550530910491943
I110
F0.0
F0.009446859359741211
g3
(g7
S'\x80\xfd\xbe\x8a\x01\x17_>'
p2397
tp2398
Rp2399
tp2400
a(g2390
I11
F1.8676538467407227
I110
F0.20087361335754395
F0.4330573081970215
g3
(g7
S';n\x8fF\x96k^>'
p2401
tp2402
Rp2403
tp2404
atp2405
a(I18
I90
(lp2406
(S'sto-iht'
p2407
I12
F2.7199079990386963
I120
F0.0
F0.01727128028869629
g3
(g7
S',9\xa8,]Me>'
p2408
tp2409
Rp2410
tp2411
a(S'graph-sto-iht'
p2412
I12
F3.224050998687744
I120
F0.40511655807495117
F0.7409331798553467
g3
(g7
S'k\xb0\x89\xbd7\xebX>'
p2413
tp2414
Rp2415
tp2416
atp2417
a(I19
I90
(lp2418
(g2407
I11
F1.3339731693267822
I110
F0.0
F0.009160757064819336
g3
(g7
S'\xa4\xc9\xf9\xdf\x16\xf3h>'
p2419
tp2420
Rp2421
tp2422
a(g2412
I12
F1.5619480609893799
I120
F0.18756484985351562
F0.3940455913543701
g3
(g7
S"l'\xff\x8c|\xd7T>"
p2423
tp2424
Rp2425
tp2426
atp2427
a(I20
I90
(lp2428
(S'sto-iht'
p2429
I11
F2.481261968612671
I110
F0.0
F0.015252351760864258
g3
(g7
S'\xd7>\x9e\x12~\xf2y>'
p2430
tp2431
Rp2432
tp2433
a(S'graph-sto-iht'
p2434
I10
F2.746145009994507
I100
F0.379375696182251
F0.5259292125701904
g3
(g7
S'\xda\xf9\x077\xe8\xc9}>'
p2435
tp2436
Rp2437
tp2438
atp2439
a(I21
I90
(lp2440
(g2429
I11
F1.3354368209838867
I110
F0.0
F0.010173559188842773
g3
(g7
S'\x90\xd8\xa5\xf4d\x03w>'
p2441
tp2442
Rp2443
tp2444
a(g2434
I11
F1.5455269813537598
I110
F0.18164682388305664
F0.3208334445953369
g3
(g7
S'\x9e\xdeQFZ:_>'
p2445
tp2446
Rp2447
tp2448
atp2449
a(I22
I90
(lp2450
(S'sto-iht'
p2451
I10
F2.0731558799743652
I100
F0.0
F0.013737916946411133
g3
(g7
S'\x9c"rXMXp>'
p2452
tp2453
Rp2454
tp2455
a(S'graph-sto-iht'
p2456
I10
F3.015376091003418
I100
F0.3893442153930664
F0.548450231552124
g3
(g7
S'\xf7\xc5\xf4P6\xf9v>'
p2457
tp2458
Rp2459
tp2460
atp2461
a(I23
I90
(lp2462
(g2451
I10
F1.4455699920654297
I100
F0.0
F0.01003575325012207
g3
(g7
S'\x052\xa6\x85\x8f\nc>'
p2463
tp2464
Rp2465
tp2466
a(g2456
I11
F1.6866419315338135
I110
F0.17865633964538574
F0.4828648567199707
g3
(g7
S'\xed\x97\xedde>h>'
p2467
tp2468
Rp2469
tp2470
atp2471
a(I24
I90
(lp2472
(S'sto-iht'
p2473
I11
F1.486572027206421
I110
F0.0
F0.010450601577758789
g3
(g7
S'v\xe0\xc0\x1c\x16\xefr>'
p2474
tp2475
Rp2476
tp2477
a(S'graph-sto-iht'
p2478
I10
F1.7791969776153564
I100
F0.21008896827697754
F0.17734050750732422
g3
(g7
S'\x0fX\xea\xf2{\xd6w>'
p2479
tp2480
Rp2481
tp2482
atp2483
a(I25
I90
(lp2484
(g2473
I12
F1.5696570873260498
I120
F0.0
F0.011414766311645508
g3
(g7
S',\x02#\x83\x93FW>'
p2485
tp2486
Rp2487
tp2488
a(g2478
I11
F1.995283842086792
I110
F0.21452879905700684
F0.4717080593109131
g3
(g7
S'\xaf\xc6\xecx]\xf9d>'
p2489
tp2490
Rp2491
tp2492
atp2493
a(I26
I90
(lp2494
(S'sto-iht'
p2495
I12
F2.5693061351776123
I120
F0.0
F0.015542030334472656
g3
(g7
S'\xb54\x17\xc1q\xbbp>'
p2496
tp2497
Rp2498
tp2499
a(S'graph-sto-iht'
p2500
I12
F2.9967122077941895
I120
F0.3461906909942627
F0.6688268184661865
g3
(g7
S'Z\xa7,\\$\xf7n>'
p2501
tp2502
Rp2503
tp2504
atp2505
a(I27
I90
(lp2506
(g2495
I11
F1.2559049129486084
I110
F0.0
F0.008631706237792969
g3
(g7
S'jb\xce\xc8<xj>'
p2507
tp2508
Rp2509
tp2510
a(g2500
I10
F1.3137829303741455
I100
F0.1688995361328125
F0.30204200744628906
g3
(g7
S'\xf9\x83\xd1\x19\x11\xfbf>'
p2511
tp2512
Rp2513
tp2514
atp2515
a(I28
I90
(lp2516
(S'sto-iht'
p2517
I11
F2.3795089721679688
I110
F0.0
F0.013239145278930664
g3
(g7
S'o\xb1\xe5C\x04qt>'
p2518
tp2519
Rp2520
tp2521
a(S'graph-sto-iht'
p2522
I10
F2.8140430450439453
I100
F0.41224169731140137
F0.4591357707977295
g3
(g7
S'\x18\xd8\x9d\xca\xbf\x8e~>'
p2523
tp2524
Rp2525
tp2526
atp2527
a(I29
I90
(lp2528
(g2517
I11
F1.2877719402313232
I110
F0.0
F0.00903463363647461
g3
(g7
S'\xab\x97\xd9\xcc\x04\xafo>'
p2529
tp2530
Rp2531
tp2532
a(g2522
I11
F1.4457690715789795
I110
F0.16667389869689941
F0.38259124755859375
g3
(g7
S'\xeaQL\x82\x99\x05W>'
p2533
tp2534
Rp2535
tp2536
atp2537
a(I30
I90
(lp2538
(S'sto-iht'
p2539
I11
F2.320033073425293
I110
F0.0
F0.014249563217163086
g3
(g7
S'-\x8c\xf1\xba\\!f>'
p2540
tp2541
Rp2542
tp2543
a(S'graph-sto-iht'
p2544
I11
F2.81479811668396
I110
F0.39181947708129883
F0.4767417907714844
g3
(g7
S'\x89&c\x05\xd8Ej>'
p2545
tp2546
Rp2547
tp2548
atp2549
a(I31
I90
(lp2550
(g2539
I11
F1.1733601093292236
I110
F0.0
F0.008230447769165039
g3
(g7
S'\xcb\xeb5\xe0\xa8\xebs>'
p2551
tp2552
Rp2553
tp2554
a(g2544
I11
F1.3340539932250977
I110
F0.1703014373779297
F0.2790818214416504
g3
(g7
S's\x8c#{\x074Y>'
p2555
tp2556
Rp2557
tp2558
atp2559
a(I32
I90
(lp2560
(S'sto-iht'
p2561
I12
F2.4811489582061768
I120
F0.0
F0.015056133270263672
g3
(g7
S'\xb9j}\xdc}\xb1k>'
p2562
tp2563
Rp2564
tp2565
a(S'graph-sto-iht'
p2566
I11
F3.0540549755096436
I110
F0.418351411819458
F0.6789436340332031
g3
(g7
S'\xbf;1\x08\x81\xf6t>'
p2567
tp2568
Rp2569
tp2570
atp2571
a(I33
I90
(lp2572
(g2561
I11
F1.0001840591430664
I110
F0.0
F0.007731914520263672
g3
(g7
S'\xf4\x8d\x83\xf8\xef\xe5_>'
p2573
tp2574
Rp2575
tp2576
a(g2566
I10
F1.3575890064239502
I100
F0.14734268188476562
F0.40035080909729004
g3
(g7
S'\xd0\xdeL),\xe8q>'
p2577
tp2578
Rp2579
tp2580
atp2581
a(I34
I90
(lp2582
(S'sto-iht'
p2583
I11
F2.3481478691101074
I110
F0.0
F0.014191627502441406
g3
(g7
S'\x9c\xf6\x8b\xc9\xfb\xa3`>'
p2584
tp2585
Rp2586
tp2587
a(S'graph-sto-iht'
p2588
I11
F3.0413570404052734
I110
F0.43547487258911133
F0.5204193592071533
g3
(g7
S'\x13*\xbe\x8b\xcd\xc5`>'
p2589
tp2590
Rp2591
tp2592
atp2593
a(I35
I90
(lp2594
(g2583
I10
F1.2807941436767578
I100
F0.0
F0.008384943008422852
g3
(g7
S']\xb9a\xbd\x13K{>'
p2595
tp2596
Rp2597
tp2598
a(g2588
I10
F1.3693180084228516
I100
F0.15351200103759766
F0.4105038642883301
g3
(g7
S'\xe1\xbb\x00\xf4/~v>'
p2599
tp2600
Rp2601
tp2602
atp2603
a(I36
I90
(lp2604
(S'sto-iht'
p2605
I11
F2.4346890449523926
I110
F0.0
F0.014280319213867188
g3
(g7
S'9Ay.\x90\xf3s>'
p2606
tp2607
Rp2608
tp2609
a(S'graph-sto-iht'
p2610
I11
F3.2133231163024902
I110
F0.3784945011138916
F0.8573379516601562
g3
(g7
S'\xb2&\x15df~j>'
p2611
tp2612
Rp2613
tp2614
atp2615
a(I37
I90
(lp2616
(g2605
I12
F1.3619568347930908
I120
F0.0
F0.009315967559814453
g3
(g7
S'\x18\xf4\xee\x81\xf1Cb>'
p2617
tp2618
Rp2619
tp2620
a(g2610
I11
F1.3564128875732422
I110
F0.15855956077575684
F0.3587033748626709
g3
(g7
S'U2 =\xf6\xe5z>'
p2621
tp2622
Rp2623
tp2624
atp2625
a(I38
I90
(lp2626
(S'sto-iht'
p2627
I11
F2.339015007019043
I110
F0.0
F0.013778448104858398
g3
(g7
S'&\xaf\xd9\xe0\x8d\x96^>'
p2628
tp2629
Rp2630
tp2631
a(S'graph-sto-iht'
p2632
I11
F3.0260019302368164
I110
F0.38945674896240234
F0.6832177639007568
g3
(g7
S'(\x82%or%Z>'
p2633
tp2634
Rp2635
tp2636
atp2637
a(I39
I90
(lp2638
(g2627
I11
F0.9991161823272705
I110
F0.0
F0.007642507553100586
g3
(g7
S'\x06W9\x8e/\xe5f>'
p2639
tp2640
Rp2641
tp2642
a(g2632
I11
F1.4073529243469238
I110
F0.17341923713684082
F0.3694770336151123
g3
(g7
S'5(\xaeL5\x9ba>'
p2643
tp2644
Rp2645
tp2646
atp2647
a(I40
I90
(lp2648
(S'sto-iht'
p2649
I12
F2.7597179412841797
I120
F0.0
F0.015424966812133789
g3
(g7
S'\x9a\x0f`\xf4\xa4\x15]>'
p2650
tp2651
Rp2652
tp2653
a(S'graph-sto-iht'
p2654
I11
F2.58164381980896
I110
F0.2832646369934082
F0.645479679107666
g3
(g7
S'\x1d\x97\xf8K\x07\xacm>'
p2655
tp2656
Rp2657
tp2658
atp2659
a(I41
I90
(lp2660
(g2649
I11
F1.296051025390625
I110
F0.0
F0.008764982223510742
g3
(g7
S'!\xa8\x91\x190\x13Y>'
p2661
tp2662
Rp2663
tp2664
a(g2654
I11
F1.461143970489502
I110
F0.1634225845336914
F0.41396498680114746
g3
(g7
S'\xb5\x135-\x17\xc2a>'
p2665
tp2666
Rp2667
tp2668
atp2669
a(I42
I90
(lp2670
(S'sto-iht'
p2671
I11
F2.553960084915161
I110
F0.0
F0.015841960906982422
g3
(g7
S'f>\xcb\xb9\xf0\xc6W>'
p2672
tp2673
Rp2674
tp2675
a(S'graph-sto-iht'
p2676
I11
F2.562242031097412
I110
F0.33165907859802246
F0.5196864604949951
g3
(g7
S'\xc9\xb5\x9f\xbeC\\g>'
p2677
tp2678
Rp2679
tp2680
atp2681
a(I43
I90
(lp2682
(g2671
I10
F1.2451238632202148
I100
F0.0
F0.008362770080566406
g3
(g7
S'\xc8\xe9E\xc4\xd6)w>'
p2683
tp2684
Rp2685
tp2686
a(g2676
I9
F1.2179009914398193
I90
F0.15197539329528809
F0.3114621639251709
g3
(g7
S'\x02\x11k/\xee\xa0v>'
p2687
tp2688
Rp2689
tp2690
atp2691
a(I44
I90
(lp2692
(S'sto-iht'
p2693
I12
F2.5586419105529785
I120
F0.0
F0.01546931266784668
g3
(g7
S'\xb7l#:\x8aEY>'
p2694
tp2695
Rp2696
tp2697
a(S'graph-sto-iht'
p2698
I11
F2.8529751300811768
I110
F0.34566307067871094
F0.49195337295532227
g3
(g7
S'\xdaTb\x98\xd7\xd1[>'
p2699
tp2700
Rp2701
tp2702
atp2703
a(I45
I90
(lp2704
(g2693
I12
F1.2912938594818115
I120
F0.0
F0.009113073348999023
g3
(g7
S'^xS\x9a|\nW>'
p2705
tp2706
Rp2707
tp2708
a(g2698
I10
F1.3290421962738037
I100
F0.14677977561950684
F0.41338443756103516
g3
(g7
S'V\x1f\x9f#\xf6\xb4u>'
p2709
tp2710
Rp2711
tp2712
atp2713
a(I46
I90
(lp2714
(S'sto-iht'
p2715
I11
F2.437631130218506
I110
F0.0
F0.0140838623046875
g3
(g7
S'\xac\xb9\x1cHL{a>'
p2716
tp2717
Rp2718
tp2719
a(S'graph-sto-iht'
p2720
I10
F2.4825239181518555
I100
F0.2657804489135742
F0.6609325408935547
g3
(g7
S'\xf2\xde\xd64\xc6\x03s>'
p2721
tp2722
Rp2723
tp2724
atp2725
a(I47
I90
(lp2726
(g2715
I12
F1.3371570110321045
I120
F0.0
F0.009424924850463867
g3
(g7
S'\x03$\xba\xd3\x07@s>'
p2727
tp2728
Rp2729
tp2730
a(g2720
I11
F1.2763819694519043
I110
F0.16003632545471191
F0.28256869316101074
g3
(g7
S'\xba`\xcc1r\xaeb>'
p2731
tp2732
Rp2733
tp2734
atp2735
a(I48
I90
(lp2736
(S'sto-iht'
p2737
I12
F1.6319200992584229
I120
F0.0
F0.010601043701171875
g3
(g7
S'p\xa2\xb8X\xf0FV>'
p2738
tp2739
Rp2740
tp2741
a(S'graph-sto-iht'
p2742
I10
F1.7787768840789795
I100
F0.18961739540100098
F0.32378435134887695
g3
(g7
S'G\x0c\xa7\x04\x7f\x98|>'
p2743
tp2744
Rp2745
tp2746
atp2747
a(I49
I90
(lp2748
(g2737
I11
F1.28041410446167
I110
F0.0
F0.008825540542602539
g3
(g7
S'\xc7\t\x07h\xc25t>'
p2749
tp2750
Rp2751
tp2752
a(g2742
I11
F1.4887139797210693
I110
F0.18718719482421875
F0.31125426292419434
g3
(g7
S'EG\x9aK8Hg>'
p2753
tp2754
Rp2755
tp2756
atp2757
a.