(dp0
S'results_pool'
p1
(lp2
(S'niht'
p3
S'background'
p4
I6
I354
cnumpy.core.multiarray
scalar
p5
(cnumpy
dtype
p6
(S'f8'
p7
I0
I1
tp8
Rp9
(I3
S'<'
p10
NNNI-1
I-1
I0
tp11
bS'\xef\x0c\x14Q(3\x11@'
p12
tp13
Rp14
tp15
a(S'iht'
p16
g4
I6
I354
g5
(g9
S'\xf9,B\xf6\xc64\x12@'
p17
tp18
Rp19
tp20
a(S'sto-iht'
p21
g4
I6
I354
g5
(g9
S'\xd6\xe1\xb6\x02\xc0\x0b\x14@'
p22
tp23
Rp24
tp25
a(S'cosamp'
p26
g4
I6
I354
g5
(g9
S'\x97\xfdF\xbd\x19\xb4\x0f@'
p27
tp28
Rp29
tp30
a(S'graph-iht'
p31
g4
I6
I354
g5
(g9
S'\xfa\xfb\x82Iox\x08@'
p32
tp33
Rp34
tp35
a(S'graph-cosamp'
p36
S'background'
p37
I6
I354
g5
(g9
S'6\xeb\xcd1\xd4\x07\x0c@'
p38
tp39
Rp40
tp41
a(S'graph-sto-iht'
p42
g37
I6
I354
g5
(g9
S'\xf2\xfa\x99\xbdy\xa7\x13@'
p43
tp44
Rp45
tp46
a(S'niht'
p47
g37
I6
I377
g5
(g9
S'5F@\x0b\xaf\x0c\x12@'
p48
tp49
Rp50
tp51
a(S'iht'
p52
g37
I6
I377
g5
(g9
S'\x1f\xc71(u\xcb\x11@'
p53
tp54
Rp55
tp56
a(S'sto-iht'
p57
g37
I6
I377
g5
(g9
S'\xaeY;\x92\x9c\xa4\x13@'
p58
tp59
Rp60
tp61
a(S'cosamp'
p62
S'background'
p63
I6
I377
g5
(g9
S'\x88\xcc\xb0W;\x90\x0f@'
p64
tp65
Rp66
tp67
a(S'graph-iht'
p68
g63
I6
I377
g5
(g9
S'\xaf\xc0\x9a\x9c\x88\xeb\n@'
p69
tp70
Rp71
tp72
a(S'graph-cosamp'
p73
g63
I6
I377
g5
(g9
S'\xb3_\xa7\xbaS(\x0c@'
p74
tp75
Rp76
tp77
a(S'graph-sto-iht'
p78
g63
I6
I377
g5
(g9
S'\xd2\x91\x87R~!\x12@'
p79
tp80
Rp81
tp82
a(S'niht'
p83
g63
I6
I401
g5
(g9
S'\x98NNh\x9b\xb7\x10@'
p84
tp85
Rp86
tp87
a(S'iht'
p88
S'background'
p89
I6
I401
g5
(g9
S'\xeb\x9cK\x10\xba3\x11@'
p90
tp91
Rp92
tp93
a(S'sto-iht'
p94
g89
I6
I401
g5
(g9
S'\x82\xf3\xed\x02+\x80\x15@'
p95
tp96
Rp97
tp98
a(S'cosamp'
p99
g89
I6
I401
g5
(g9
S'\xe0\x96\xb1\xee!\xef\x0f@'
p100
tp101
Rp102
tp103
a(S'graph-iht'
p104
g89
I6
I401
g5
(g9
S'\x04Q\x80\xdf\x08\x1f\t@'
p105
tp106
Rp107
tp108
a(S'graph-cosamp'
p109
g89
I6
I401
g5
(g9
S'p\\N\x9c2,\x0b@'
p110
tp111
Rp112
tp113
a(S'graph-sto-iht'
p114
S'background'
p115
I6
I401
g5
(g9
S'\x9cJ\xd3\xf4\xa2Q\x13@'
p116
tp117
Rp118
tp119
a(S'niht'
p120
g115
I6
I424
g5
(g9
S'\x13\x8b\x9e\xe3l\xcb\x10@'
p121
tp122
Rp123
tp124
a(S'iht'
p125
g115
I6
I424
g5
(g9
S'\xf5\x03\x1b\xd8\xfa\x01\x11@'
p126
tp127
Rp128
tp129
a(S'sto-iht'
p130
g115
I6
I424
g5
(g9
S'M\xddx\xe9J,\x14@'
p131
tp132
Rp133
tp134
a(S'cosamp'
p135
g115
I6
I424
g5
(g9
S'a`C\x95GI\x0e@'
p136
tp137
Rp138
tp139
a(S'graph-iht'
p140
S'background'
p141
I6
I424
g5
(g9
S'\xadz\x0b>\xb9\x85\n@'
p142
tp143
Rp144
tp145
a(S'graph-cosamp'
p146
g141
I6
I424
g5
(g9
S'>U\xf9\x00\xf1\x0e\x0b@'
p147
tp148
Rp149
tp150
a(S'graph-sto-iht'
p151
g141
I6
I424
g5
(g9
S'\xed\n\xe6\xc7\xab]\x0f@'
p152
tp153
Rp154
tp155
a(S'niht'
p156
g141
I6
I448
g5
(g9
S'\xa4\x14a>\xb0\xf8\x10@'
p157
tp158
Rp159
tp160
a(S'iht'
p161
g141
I6
I448
g5
(g9
S'\xfa\x85z\x97\xf4\x0c\x11@'
p162
tp163
Rp164
tp165
a(S'sto-iht'
p166
S'background'
p167
I6
I448
g5
(g9
S'MC\xe1O\xc8)\x13@'
p168
tp169
Rp170
tp171
a(S'cosamp'
p172
g167
I6
I448
g5
(g9
S'\xc7`\xc8"\x1f\xe1\x0e@'
p173
tp174
Rp175
tp176
a(S'graph-iht'
p177
g167
I6
I448
g5
(g9
S'\x0c\xc3S\xf7\xb7\xd4\x06@'
p178
tp179
Rp180
tp181
a(S'graph-cosamp'
p182
g167
I6
I448
g5
(g9
S'\x97k\x82\xd5\x81N\n@'
p183
tp184
Rp185
tp186
a(S'graph-sto-iht'
p187
g167
I6
I448
g5
(g9
S'L\x1c\xe5\xfbk\x85\x08@'
p188
tp189
Rp190
tp191
a(S'niht'
p192
S'background'
p193
I6
I472
g5
(g9
S'\x1f\xc2\x1f\xda\r\xc2\x10@'
p194
tp195
Rp196
tp197
a(S'iht'
p198
g193
I6
I472
g5
(g9
S'{\xfd\x99EQ`\x11@'
p199
tp200
Rp201
tp202
a(S'sto-iht'
p203
g193
I6
I472
g5
(g9
S'\xcc(\x1a\xd6\x05\x17\x15@'
p204
tp205
Rp206
tp207
a(S'cosamp'
p208
g193
I6
I472
g5
(g9
S'\x16f\xc6\xb8hC\r@'
p209
tp210
Rp211
tp212
a(S'graph-iht'
p213
g193
I6
I472
g5
(g9
S'4E\x02\xf4\x0e\xc1\t@'
p214
tp215
Rp216
tp217
a(S'graph-cosamp'
p218
S'background'
p219
I6
I472
g5
(g9
S'\xe1r\xbe\xd8z\xb6\x08@'
p220
tp221
Rp222
tp223
a(S'graph-sto-iht'
p224
g219
I6
I472
g5
(g9
S'?\x05>\x9c\xcb\xcf\x8d>'
p225
tp226
Rp227
tp228
a(S'niht'
p229
g219
I6
I495
g5
(g9
S'\x03y\xe3\xc0cK\x10@'
p230
tp231
Rp232
tp233
a(S'iht'
p234
g219
I6
I495
g5
(g9
S'\\\xff1W\x98h\x0f@'
p235
tp236
Rp237
tp238
a(S'sto-iht'
p239
g219
I6
I495
g5
(g9
S'\x1fi\xe3m\x8c\xc1\x13@'
p240
tp241
Rp242
tp243
a(S'cosamp'
p244
S'background'
p245
I6
I495
g5
(g9
S':n\xd5\r\xca*\x0e@'
p246
tp247
Rp248
tp249
a(S'graph-iht'
p250
g245
I6
I495
g5
(g9
S's\xf8\x0f\xe2\x10\xfa\x08@'
p251
tp252
Rp253
tp254
a(S'graph-cosamp'
p255
g245
I6
I495
g5
(g9
S'\xf7,h\xa8:&\x07@'
p256
tp257
Rp258
tp259
a(S'graph-sto-iht'
p260
g245
I6
I495
g5
(g9
S'\x14\x1a\xbc\x9e\xd7\xb3\x89>'
p261
tp262
Rp263
tp264
a(S'niht'
p265
g245
I6
I519
g5
(g9
S'\xd9\x9a\x1d\xc0b"\x10@'
p266
tp267
Rp268
tp269
a(S'iht'
p270
S'background'
p271
I6
I519
g5
(g9
S'\x17<;\x9d99\x10@'
p272
tp273
Rp274
tp275
a(S'sto-iht'
p276
g271
I6
I519
g5
(g9
S'\x92\xb8\xad\x12\xd3L\x13@'
p277
tp278
Rp279
tp280
a(S'cosamp'
p281
g271
I6
I519
g5
(g9
S'\xb5\xff\xc1\xd0g\x8e\x0c@'
p282
tp283
Rp284
tp285
a(S'graph-iht'
p286
g271
I6
I519
g5
(g9
S'\xbd\xe9\xd7\x9a\xfdZ\x06@'
p287
tp288
Rp289
tp290
a(S'graph-cosamp'
p291
g271
I6
I519
g5
(g9
S'\x1c\xd7\x88C\xc9\xe7\x05@'
p292
tp293
Rp294
tp295
a(S'graph-sto-iht'
p296
S'background'
p297
I6
I519
g5
(g9
S'\xb5\x9a\xd6\xf4\xb6C\x8e>'
p298
tp299
Rp300
tp301
a(S'niht'
p302
g297
I6
I542
g5
(g9
S'*\x88\x08^\x8a\xc2\x0e@'
p303
tp304
Rp305
tp306
a(S'iht'
p307
g297
I6
I542
g5
(g9
S'\xa1L+&\xbdZ\r@'
p308
tp309
Rp310
tp311
a(S'sto-iht'
p312
g297
I6
I542
g5
(g9
S'\xc0cXd\xf5i\x14@'
p313
tp314
Rp315
tp316
a(S'cosamp'
p317
g297
I6
I542
g5
(g9
S'*b\x83U\xfa\x8d\n@'
p318
tp319
Rp320
tp321
a(S'graph-iht'
p322
S'background'
p323
I6
I542
g5
(g9
S'?\x97I\xc6\x11 \x07@'
p324
tp325
Rp326
tp327
a(S'graph-cosamp'
p328
g323
I6
I542
g5
(g9
S'\xdc\xc3\xd8z\x07?\x02@'
p329
tp330
Rp331
tp332
a(S'graph-sto-iht'
p333
g323
I6
I542
g5
(g9
S'\xc0\xc2\x8c\x1f\xf9\xc0\x8d>'
p334
tp335
Rp336
tp337
a(S'niht'
p338
g323
I6
I566
g5
(g9
S'\xe4\xa2@]\x1di\r@'
p339
tp340
Rp341
tp342
a(S'iht'
p343
g323
I6
I566
g5
(g9
S"'\xd9\x19\x93e\xe6\x0c@"
p344
tp345
Rp346
tp347
a(S'sto-iht'
p348
S'background'
p349
I6
I566
g5
(g9
S'I\xa95\x08\xc1\xe5\x13@'
p350
tp351
Rp352
tp353
a(S'cosamp'
p354
g349
I6
I566
g5
(g9
S'\xc8/\xfe\xd7\xecP\n@'
p355
tp356
Rp357
tp358
a(S'graph-iht'
p359
g349
I6
I566
g5
(g9
S'\xd0>\x0f\xad\xe09\x05@'
p360
tp361
Rp362
tp363
a(S'graph-cosamp'
p364
g349
I6
I566
g5
(g9
S'\xe9\x17h\xff\xf8\xab\x00@'
p365
tp366
Rp367
tp368
a(S'graph-sto-iht'
p369
g349
I6
I566
g5
(g9
S'2q\x19\xc6\xc7:\x8d>'
p370
tp371
Rp372
tp373
a(S'niht'
p374
S'background'
p375
I6
I590
g5
(g9
S'H\xdf\xae\xa4U.\x08@'
p376
tp377
Rp378
tp379
a(S'iht'
p380
g375
I6
I590
g5
(g9
S'\x90Y;\xb3jE\n@'
p381
tp382
Rp383
tp384
a(S'sto-iht'
p385
g375
I6
I590
g5
(g9
S'\xe7\xc6#`\xc7\xeb\x12@'
p386
tp387
Rp388
tp389
a(S'cosamp'
p390
g375
I6
I590
g5
(g9
S'rY\x93\tX\x1c\x06@'
p391
tp392
Rp393
tp394
a(S'graph-iht'
p395
g375
I6
I590
g5
(g9
S'\xc3\xf0i\x97M{\x02@'
p396
tp397
Rp398
tp399
a(S'graph-cosamp'
p400
S'background'
p401
I6
I590
g5
(g9
S'\x14\xcfrOa\x1e\xfa?'
p402
tp403
Rp404
tp405
a(S'graph-sto-iht'
p406
g401
I6
I590
g5
(g9
S'~\x14\xd0\x82U\xb5\x8a>'
p407
tp408
Rp409
tp410
a(S'niht'
p411
g401
I6
I613
g5
(g9
S'\x12\xac\xd3\x17\xa99\x03@'
p412
tp413
Rp414
tp415
a(S'iht'
p416
g401
I6
I613
g5
(g9
S'\xb4\x9f\xa4\x05\xb7\xc9\x08@'
p417
tp418
Rp419
tp420
a(S'sto-iht'
p421
g401
I6
I613
g5
(g9
S'\xd6=\x07\xc5$\xd6\x10@'
p422
tp423
Rp424
tp425
a(S'cosamp'
p426
S'background'
p427
I6
I613
g5
(g9
S'\x98\xc0\xdc\xe8\xac`\x03@'
p428
tp429
Rp430
tp431
a(S'graph-iht'
p432
g427
I6
I613
g5
(g9
S'Xi\xa8NK\x17\x03@'
p433
tp434
Rp435
tp436
a(S'graph-cosamp'
p437
g427
I6
I613
g5
(g9
S'\xcc\xae\x01 \xafs\x15@'
p438
tp439
Rp440
tp441
a(S'graph-sto-iht'
p442
g427
I6
I613
g5
(g9
S'\xd9A\x87\xb07\xcd\x8b>'
p443
tp444
Rp445
tp446
a(S'niht'
p447
g427
I6
I637
g5
(g9
S'\xcf\xf7/\x9e\x1d\xfb\x8c>'
p448
tp449
Rp450
tp451
a(S'iht'
p452
S'background'
p453
I6
I637
g5
(g9
S'\x9c-\xcf\xb1\x98\xa6\x8f>'
p454
tp455
Rp456
tp457
a(S'sto-iht'
p458
g453
I6
I637
g5
(g9
S'\x0c\xack{\xcc\xe5\x10@'
p459
tp460
Rp461
tp462
a(S'cosamp'
p463
g453
I6
I637
g5
(g9
S'Y\x07<^\x1c\x85,@'
p464
tp465
Rp466
tp467
a(S'graph-iht'
p468
g453
I6
I637
g5
(g9
S'&\x01\xfbF\x9e\x8b\x02@'
p469
tp470
Rp471
tp472
a(S'graph-cosamp'
p473
g453
I6
I637
g5
(g9
S'<\xef7\xb6AQ6@'
p474
tp475
Rp476
tp477
a(S'graph-sto-iht'
p478
S'background'
p479
I6
I637
g5
(g9
S'\x80P(\x08[\x8d\x8a>'
p480
tp481
Rp482
tp483
a(S'niht'
p484
g479
I6
I660
g5
(g9
S'ML\xaeGb\x81\x8e>'
p485
tp486
Rp487
tp488
a(S'iht'
p489
g479
I6
I660
g5
(g9
S'fr\xe0I~\x12\x90>'
p490
tp491
Rp492
tp493
a(S'sto-iht'
p494
g479
I6
I660
g5
(g9
S'JuI\xfb\x9d\xa9\x0c@'
p495
tp496
Rp497
tp498
a(S'cosamp'
p499
g479
I6
I660
g5
(g9
S'M\x9f\xb0\x1d\x00\xee@@'
p500
tp501
Rp502
tp503
a(S'graph-iht'
p504
S'background'
p505
I6
I660
g5
(g9
S'\xedRtu\x1fh\xfe?'
p506
tp507
Rp508
tp509
a(S'graph-cosamp'
p510
g505
I6
I660
g5
(g9
S']\x0b\xc3)b4&@'
p511
tp512
Rp513
tp514
a(S'graph-sto-iht'
p515
g505
I6
I660
g5
(g9
S'uGN9.4\x85>'
p516
tp517
Rp518
tp519
a(S'niht'
p520
g505
I6
I684
g5
(g9
S'\xfd\xbe\x1c\x9d\x96\xec\x8e>'
p521
tp522
Rp523
tp524
a(S'iht'
p525
g505
I6
I684
g5
(g9
S'd\x8dj4y\x0b\x8f>'
p526
tp527
Rp528
tp529
a(S'sto-iht'
p530
S'background'
p531
I6
I684
g5
(g9
S'B\x90\xbb\xa7\x117\n@'
p532
tp533
Rp534
tp535
a(S'cosamp'
p536
g531
I6
I684
g5
(g9
S'\x01g,X\xe3\x99#@'
p537
tp538
Rp539
tp540
a(S'graph-iht'
p541
g531
I6
I684
g5
(g9
S'\x04\xe2\xd6@\x0b\x1e\x8d>'
p542
tp543
Rp544
tp545
a(S'graph-cosamp'
p546
g531
I6
I684
g5
(g9
S'\x8cb\xb4\xd1\x15\x8c\x13='
p547
tp548
Rp549
tp550
a(S'graph-sto-iht'
p551
g531
I6
I684
g5
(g9
S'3\xbb\x91~\xe4p\x85>'
p552
tp553
Rp554
tp555
a(S'niht'
p556
S'background'
p557
I6
I708
g5
(g9
S'\t\x17D\xa6\xa1 \x8a>'
p558
tp559
Rp560
tp561
a(S'iht'
p562
g557
I6
I708
g5
(g9
S"\xa6L\x98'\x0f\xfd\x8d>"
p563
tp564
Rp565
tp566
a(S'sto-iht'
p567
g557
I6
I708
g5
(g9
S'\xae\xb9\x9bm\xeb\xcd\x89>'
p568
tp569
Rp570
tp571
a(S'cosamp'
p572
g557
I6
I708
g5
(g9
S'\xa9eH|\x01!\x1c@'
p573
tp574
Rp575
tp576
a(S'graph-iht'
p577
g557
I6
I708
g5
(g9
S'\x87\x88N\xaa\x9d\x04\x8b>'
p578
tp579
Rp580
tp581
a(S'graph-cosamp'
p582
S'background'
p583
I6
I708
g5
(g9
S'4YT\xc9q\xa8\x14='
p584
tp585
Rp586
tp587
a(S'graph-sto-iht'
p588
g583
I6
I708
g5
(g9
S"\xf9|/fI'\x82>"
p589
tp590
Rp591
tp592
a(S'niht'
p593
g583
I6
I731
g5
(g9
S'\xc9\xd6E\xf1\xa7\xc0\x87>'
p594
tp595
Rp596
tp597
a(S'iht'
p598
g583
I6
I731
g5
(g9
S'\xd0\xedg\xf3_\x0e\x8c>'
p599
tp600
Rp601
tp602
a(S'sto-iht'
p603
g583
I6
I731
g5
(g9
S'/\x03\x12D\xac\xd8\x84>'
p604
tp605
Rp606
tp607
a(S'cosamp'
p608
S'background'
p609
I6
I731
g5
(g9
S"\xe9\x17|'\xacX\x0e="
p610
tp611
Rp612
tp613
a(S'graph-iht'
p614
g609
I6
I731
g5
(g9
S'\x1aH0"H<\x8b>'
p615
tp616
Rp617
tp618
a(S'graph-cosamp'
p619
g609
I6
I731
g5
(g9
S'\xb8>u\xc8\xb0\xc5\x13='
p620
tp621
Rp622
tp623
a(S'graph-sto-iht'
p624
g609
I6
I731
g5
(g9
S'\xe2\xb4\xa5\xe4\xc5\xb9\x88>'
p625
tp626
Rp627
tp628
a(S'niht'
p629
g609
I6
I755
g5
(g9
S'\xeb\xe2\xae\xea\xd5\x1b\x88>'
p630
tp631
Rp632
tp633
a(S'iht'
p634
S'background'
p635
I6
I755
g5
(g9
S'\x99G\x9b\xe06\x8e\x8c>'
p636
tp637
Rp638
tp639
a(S'sto-iht'
p640
g635
I6
I755
g5
(g9
S'\x1e\xb3\x17\xe4\x17I\x87>'
p641
tp642
Rp643
tp644
a(S'cosamp'
p645
g635
I6
I755
g5
(g9
S'\xdfU\xec\xefm\x06\x10='
p646
tp647
Rp648
tp649
a(S'graph-iht'
p650
g635
I6
I755
g5
(g9
S'59\xe7\xaa\xd2\xd4\x89>'
p651
tp652
Rp653
tp654
a(S'graph-cosamp'
p655
g635
I6
I755
g5
(g9
S'\x96p0I\x1f\xa3\r='
p656
tp657
Rp658
tp659
a(S'graph-sto-iht'
p660
S'background'
p661
I6
I755
g5
(g9
S'jX\x88\xe4\x1d\xfc\x87>'
p662
tp663
Rp664
tp665
a(S'niht'
p666
g661
I6
I778
g5
(g9
S'H\xff\xff\xe1(\x9a\x87>'
p667
tp668
Rp669
tp670
a(S'iht'
p671
g661
I6
I778
g5
(g9
S'\xe8S\xa9\xc8\x19\xd0\x89>'
p672
tp673
Rp674
tp675
a(S'sto-iht'
p676
g661
I6
I778
g5
(g9
S'\x97\xad\xd0_\xe7\xb6\x80>'
p677
tp678
Rp679
tp680
a(S'cosamp'
p681
g661
I6
I778
g5
(g9
S'\x1d,\xc1:0\x9b\r='
p682
tp683
Rp684
tp685
a(S'graph-iht'
p686
S'background'
p687
I6
I778
g5
(g9
S'w\x00\x1c~"o\x89>'
p688
tp689
Rp690
tp691
a(S'graph-cosamp'
p692
g687
I6
I778
g5
(g9
S'(\xef\xb1\t6\x0e\x0b='
p693
tp694
Rp695
tp696
a(S'graph-sto-iht'
p697
g687
I6
I778
g5
(g9
S'\xdb\xa9\xd3\xca.g\x85>'
p698
tp699
Rp700
tp701
a(S'niht'
p702
g687
I6
I802
g5
(g9
S'*\xe2h\xb9\xb2\xfb\x87>'
p703
tp704
Rp705
tp706
a(S'iht'
p707
g687
I6
I802
g5
(g9
S'q\x951\x8b&@\x89>'
p708
tp709
Rp710
tp711
a(S'sto-iht'
p712
S'background'
p713
I6
I802
g5
(g9
S'\xc1\xa4\xe2 D\x0b\x87>'
p714
tp715
Rp716
tp717
a(S'cosamp'
p718
g713
I6
I802
g5
(g9
S'!\xc0\r(t\x9b\n='
p719
tp720
Rp721
tp722
a(S'graph-iht'
p723
g713
I6
I802
g5
(g9
S'\x8a\xe2\x87\x96\xbf\xf3\x88>'
p724
tp725
Rp726
tp727
a(S'graph-cosamp'
p728
g713
I6
I802
g5
(g9
S'u6\xa6\xc1\x13G\x0b='
p729
tp730
Rp731
tp732
a(S'graph-sto-iht'
p733
g713
I6
I802
g5
(g9
S'\x92Y\x1cVti\x86>'
p734
tp735
Rp736
tp737
a(S'niht'
p738
S'background'
p739
I6
I826
g5
(g9
S'\xdb\xbeeSFt\x82>'
p740
tp741
Rp742
tp743
a(S'iht'
p744
g739
I6
I826
g5
(g9
S'\xb9\x977\x9d\xecd\x88>'
p745
tp746
Rp747
tp748
a(S'sto-iht'
p749
g739
I6
I826
g5
(g9
S'c"\x94\x10\xcc{\x85>'
p750
tp751
Rp752
tp753
a(S'cosamp'
p754
g739
I6
I826
g5
(g9
S'\x98\xca\x90\xe1z\x8d\x0b='
p755
tp756
Rp757
tp758
a(S'graph-iht'
p759
g739
I6
I826
g5
(g9
S'\xb9-\xf8\xf0\xd4\x9d\x89>'
p760
tp761
Rp762
tp763
a(S'graph-cosamp'
p764
S'background'
p765
I6
I826
g5
(g9
S'V"\xde\xce\xb7\x85\r='
p766
tp767
Rp768
tp769
a(S'graph-sto-iht'
p770
g765
I6
I826
g5
(g9
S'[!p\x8bni\x83>'
p771
tp772
Rp773
tp774
a(S'niht'
p775
S'angio'
p776
I6
I573
g5
(g9
S'\xcb\xebO\xf87\xd6\x0f@'
p777
tp778
Rp779
tp780
a(S'iht'
p781
g776
I6
I573
g5
(g9
S'io\xe2d\xcf\x1b\x10@'
p782
tp783
Rp784
tp785
a(S'sto-iht'
p786
g776
I6
I573
g5
(g9
S'\x1fB\xb05\xbd.\x14@'
p787
tp788
Rp789
tp790
a(S'cosamp'
p791
S'angio'
p792
I6
I573
g5
(g9
S'\xd8\x7f\xa6\xf4\x17\xe0\x0f@'
p793
tp794
Rp795
tp796
a(S'graph-iht'
p797
g792
I6
I573
g5
(g9
S'\x07m\xd0\x00\xe0\xd2\n@'
p798
tp799
Rp800
tp801
a(S'graph-cosamp'
p802
g792
I6
I573
g5
(g9
S'\xe4\x81 \nb\x03\x0e@'
p803
tp804
Rp805
tp806
a(S'graph-sto-iht'
p807
g792
I6
I573
g5
(g9
S'\x9f0_2\nD\x10@'
p808
tp809
Rp810
tp811
a(S'niht'
p812
g792
I6
I611
g5
(g9
S'\xd6\xf6Z\xd9?\x93\x0f@'
p813
tp814
Rp815
tp816
a(S'iht'
p817
S'angio'
p818
I6
I611
g5
(g9
S'l\x05\xf7\xbd7s\x0f@'
p819
tp820
Rp821
tp822
a(S'sto-iht'
p823
g818
I6
I611
g5
(g9
S':\xac\xd7\x1c\xacc\x12@'
p824
tp825
Rp826
tp827
a(S'cosamp'
p828
g818
I6
I611
g5
(g9
S'\xbf\xa0\xefm\xfd\xaf\x0e@'
p829
tp830
Rp831
tp832
a(S'graph-iht'
p833
g818
I6
I611
g5
(g9
S"%\xbe\xae\xb6'\xd5\t@"
p834
tp835
Rp836
tp837
a(S'graph-cosamp'
p838
g818
I6
I611
g5
(g9
S'\xb4-\xa7\x85V\xa7\x0c@'
p839
tp840
Rp841
tp842
a(S'graph-sto-iht'
p843
S'angio'
p844
I6
I611
g5
(g9
S',\xd5\x11\x0c\xdb\x14\x11@'
p845
tp846
Rp847
tp848
a(S'niht'
p849
g844
I6
I649
g5
(g9
S'\xb0\x0c\xd8\xcf\xb2\\\x0c@'
p850
tp851
Rp852
tp853
a(S'iht'
p854
g844
I6
I649
g5
(g9
S'\x89\xa3UrT\x82\x0c@'
p855
tp856
Rp857
tp858
a(S'sto-iht'
p859
g844
I6
I649
g5
(g9
S'\xf5n\xa8Z,\xac\x12@'
p860
tp861
Rp862
tp863
a(S'cosamp'
p864
g844
I6
I649
g5
(g9
S'\x06B\x96H\xc0u\x0e@'
p865
tp866
Rp867
tp868
a(S'graph-iht'
p869
S'angio'
p870
I6
I649
g5
(g9
S'K\x9d\x1b\xa5\xd7%\t@'
p871
tp872
Rp873
tp874
a(S'graph-cosamp'
p875
g870
I6
I649
g5
(g9
S'\x8c\t3\xdb\xe0K\x0c@'
p876
tp877
Rp878
tp879
a(S'graph-sto-iht'
p880
g870
I6
I649
g5
(g9
S'\xc0\xf3#\xa6\xc1\xe2\x0c@'
p881
tp882
Rp883
tp884
a(S'niht'
p885
g870
I6
I687
g5
(g9
S'\xbd\x02\x9c\xfe\x19\x1e\x0c@'
p886
tp887
Rp888
tp889
a(S'iht'
p890
g870
I6
I687
g5
(g9
S'\x9fB(2\\\xf1\x0b@'
p891
tp892
Rp893
tp894
a(S'sto-iht'
p895
S'angio'
p896
I6
I687
g5
(g9
S'G\x01\xf4\xe7\xecg\x0e@'
p897
tp898
Rp899
tp900
a(S'cosamp'
p901
g896
I6
I687
g5
(g9
S'O\x89NM(\xe0\r@'
p902
tp903
Rp904
tp905
a(S'graph-iht'
p906
g896
I6
I687
g5
(g9
S'+\xb6\xda\x1a\xd5\xa7\t@'
p907
tp908
Rp909
tp910
a(S'graph-cosamp'
p911
g896
I6
I687
g5
(g9
S'hs\xe49\xef\xf6\n@'
p912
tp913
Rp914
tp915
a(S'graph-sto-iht'
p916
g896
I6
I687
g5
(g9
S"\x8bf\xf2'[I\xe5?"
p917
tp918
Rp919
tp920
a(S'niht'
p921
S'angio'
p922
I6
I725
g5
(g9
S'l\x0b4\xce\x82\xbd\n@'
p923
tp924
Rp925
tp926
a(S'iht'
p927
g922
I6
I725
g5
(g9
S'\x9fh+\xad^v\x0b@'
p928
tp929
Rp930
tp931
a(S'sto-iht'
p932
g922
I6
I725
g5
(g9
S'9t\xf4i\xff\xf4\x10@'
p933
tp934
Rp935
tp936
a(S'cosamp'
p937
g922
I6
I725
g5
(g9
S'\n\x08\x12\xe5\xe9\x87\r@'
p938
tp939
Rp940
tp941
a(S'graph-iht'
p942
g922
I6
I725
g5
(g9
S'I\xb5y|\xda\xe2\x07@'
p943
tp944
Rp945
tp946
a(S'graph-cosamp'
p947
S'angio'
p948
I6
I725
g5
(g9
S'\xe0\x7f\xff\xb8\xc3\r\n@'
p949
tp950
Rp951
tp952
a(S'graph-sto-iht'
p953
g948
I6
I725
g5
(g9
S'\xaa2\x90\x13\x8cI\xfe?'
p954
tp955
Rp956
tp957
a(S'niht'
p958
g948
I6
I764
g5
(g9
S'Y\xd3\xde\xb2\x95\x11\x0b@'
p959
tp960
Rp961
tp962
a(S'iht'
p963
g948
I6
I764
g5
(g9
S'\xb9(9G\x1e\x15\n@'
p964
tp965
Rp966
tp967
a(S'sto-iht'
p968
g948
I6
I764
g5
(g9
S'\xd4\xf5\xdaf\xce\x06\x0e@'
p969
tp970
Rp971
tp972
a(S'cosamp'
p973
S'angio'
p974
I6
I764
g5
(g9
S'\x89$\xfc\x8a\xc0\x0f\x0c@'
p975
tp976
Rp977
tp978
a(S'graph-iht'
p979
g974
I6
I764
g5
(g9
S'\n\x04\x11\xefJL\x06@'
p980
tp981
Rp982
tp983
a(S'graph-cosamp'
p984
g974
I6
I764
g5
(g9
S'\xaf\x8f\x014\xe0\x0e\t@'
p985
tp986
Rp987
tp988
a(S'graph-sto-iht'
p989
g974
I6
I764
g5
(g9
S'\xb9\xe3\xe5,\xed\xde\x8b>'
p990
tp991
Rp992
tp993
a(S'niht'
p994
g974
I6
I802
g5
(g9
S'\x7f\xc0,\xeetc\x08@'
p995
tp996
Rp997
tp998
a(S'iht'
p999
S'angio'
p1000
I6
I802
g5
(g9
S'\xd8e\x1b\x00\xea\xa9\x08@'
p1001
tp1002
Rp1003
tp1004
a(S'sto-iht'
p1005
g1000
I6
I802
g5
(g9
S'Q\x8fk\x93\x9f-\x10@'
p1006
tp1007
Rp1008
tp1009
a(S'cosamp'
p1010
g1000
I6
I802
g5
(g9
S'<I\x04\xb6\x83\xf0\x0b@'
p1011
tp1012
Rp1013
tp1014
a(S'graph-iht'
p1015
g1000
I6
I802
g5
(g9
S'\xa6\xe0c\x82\xa9\x9b\x04@'
p1016
tp1017
Rp1018
tp1019
a(S'graph-cosamp'
p1020
g1000
I6
I802
g5
(g9
S'\xa7Z\x94:\x15D\x08@'
p1021
tp1022
Rp1023
tp1024
a(S'graph-sto-iht'
p1025
S'angio'
p1026
I6
I802
g5
(g9
S'h\xf4>\x1e=\x80\x8f>'
p1027
tp1028
Rp1029
tp1030
a(S'niht'
p1031
g1026
I6
I840
g5
(g9
S'.\x83\x8b\xb0%\x1a\x08@'
p1032
tp1033
Rp1034
tp1035
a(S'iht'
p1036
g1026
I6
I840
g5
(g9
S'\xbe\x82\xcc\x8f\xa8\x7f\x05@'
p1037
tp1038
Rp1039
tp1040
a(S'sto-iht'
p1041
g1026
I6
I840
g5
(g9
S'\xac\xbf\x84e;N\t@'
p1042
tp1043
Rp1044
tp1045
a(S'cosamp'
p1046
g1026
I6
I840
g5
(g9
S'R\xbf\xd9\xdf=\x14\x0b@'
p1047
tp1048
Rp1049
tp1050
a(S'graph-iht'
p1051
S'angio'
p1052
I6
I840
g5
(g9
S'\x8dceoyX\x04@'
p1053
tp1054
Rp1055
tp1056
a(S'graph-cosamp'
p1057
g1052
I6
I840
g5
(g9
S'\x8fs\x1e\xbf\x1c\xc1\x04@'
p1058
tp1059
Rp1060
tp1061
a(S'graph-sto-iht'
p1062
g1052
I6
I840
g5
(g9
S'\xa2MMo\x9d\xf3\x8b>'
p1063
tp1064
Rp1065
tp1066
a(S'niht'
p1067
g1052
I6
I878
g5
(g9
S'\xed\x04\x1f\xa7> \x05@'
p1068
tp1069
Rp1070
tp1071
a(S'iht'
p1072
g1052
I6
I878
g5
(g9
S'\'\xce\'"S2\x07@'
p1073
tp1074
Rp1075
tp1076
a(S'sto-iht'
p1077
S'angio'
p1078
I6
I878
g5
(g9
S'`\xc0\xa2\xc6\xb83\t@'
p1079
tp1080
Rp1081
tp1082
a(S'cosamp'
p1083
g1078
I6
I878
g5
(g9
S'\x1bO\xcd3\xae\xef\x08@'
p1084
tp1085
Rp1086
tp1087
a(S'graph-iht'
p1088
g1078
I6
I878
g5
(g9
S'D(\xd4\x95\xb1\xee\x04@'
p1089
tp1090
Rp1091
tp1092
a(S'graph-cosamp'
p1093
g1078
I6
I878
g5
(g9
S'\x9a\xc7\xaf\r\x853\x04@'
p1094
tp1095
Rp1096
tp1097
a(S'graph-sto-iht'
p1098
g1078
I6
I878
g5
(g9
S'\xfd\xa8\xf9\xbbo\xf6\x8c>'
p1099
tp1100
Rp1101
tp1102
a(S'niht'
p1103
S'angio'
p1104
I6
I916
g5
(g9
S'\xfa\\<\xf8\xe7\x84\x03@'
p1105
tp1106
Rp1107
tp1108
a(S'iht'
p1109
g1104
I6
I916
g5
(g9
S'\x1b\xdf\xe1\xabDi\x03@'
p1110
tp1111
Rp1112
tp1113
a(S'sto-iht'
p1114
g1104
I6
I916
g5
(g9
S'\xb4\xddg\x9f\x88\xb5\x06@'
p1115
tp1116
Rp1117
tp1118
a(S'cosamp'
p1119
g1104
I6
I916
g5
(g9
S'\xb8S\xeb\x03\xec6\x07@'
p1120
tp1121
Rp1122
tp1123
a(S'graph-iht'
p1124
g1104
I6
I916
g5
(g9
S'\x12\x96V\x0eRh\x04@'
p1125
tp1126
Rp1127
tp1128
a(S'graph-cosamp'
p1129
S'angio'
p1130
I6
I916
g5
(g9
S'\xa15\x16\x9d\x80\x1f\x00@'
p1131
tp1132
Rp1133
tp1134
a(S'graph-sto-iht'
p1135
g1130
I6
I916
g5
(g9
S'\x12\xdc\x83+\xbc\xb6\x87>'
p1136
tp1137
Rp1138
tp1139
a(S'niht'
p1140
g1130
I6
I955
g5
(g9
S'\xdc\xff7\xa9D\x95\xfc?'
p1141
tp1142
Rp1143
tp1144
a(S'iht'
p1145
g1130
I6
I955
g5
(g9
S'\x04\xa1\xb6\xb1\xe12\xe9?'
p1146
tp1147
Rp1148
tp1149
a(S'sto-iht'
p1150
g1130
I6
I955
g5
(g9
S'1\xaa\xe0\xda\x1aT\x8c>'
p1151
tp1152
Rp1153
tp1154
a(S'cosamp'
p1155
S'angio'
p1156
I6
I955
g5
(g9
S'9T(\xd0gA\x02@'
p1157
tp1158
Rp1159
tp1160
a(S'graph-iht'
p1161
g1156
I6
I955
g5
(g9
S'\xfa\x98\xfa\x1eOh\x01@'
p1162
tp1163
Rp1164
tp1165
a(S'graph-cosamp'
p1166
g1156
I6
I955
g5
(g9
S'N\x1fra\xfa\xa1\xfd?'
p1167
tp1168
Rp1169
tp1170
a(S'graph-sto-iht'
p1171
g1156
I6
I955
g5
(g9
S'(\x1em*\x16,\x8a>'
p1172
tp1173
Rp1174
tp1175
a(S'niht'
p1176
g1156
I6
I993
g5
(g9
S'\x0e[?7^&\xf6?'
p1177
tp1178
Rp1179
tp1180
a(S'iht'
p1181
S'angio'
p1182
I6
I993
g5
(g9
S'\xb7\x01\xe1y\x03\x16t?'
p1183
tp1184
Rp1185
tp1186
a(S'sto-iht'
p1187
g1182
I6
I993
g5
(g9
S'\xac\xc7\xd6AJ0\xed?'
p1188
tp1189
Rp1190
tp1191
a(S'cosamp'
p1192
g1182
I6
I993
g5
(g9
S']\xeaE\xc5\xfdU&@'
p1193
tp1194
Rp1195
tp1196
a(S'graph-iht'
p1197
g1182
I6
I993
g5
(g9
S'\xdb\xb9]\xb8d\xed\xfd?'
p1198
tp1199
Rp1200
tp1201
a(S'graph-cosamp'
p1202
g1182
I6
I993
g5
(g9
S'\xdc\xf6Ic\x9e\xe2.@'
p1203
tp1204
Rp1205
tp1206
a(S'graph-sto-iht'
p1207
S'angio'
p1208
I6
I993
g5
(g9
S'`\xe5\x856\t\x02\x85>'
p1209
tp1210
Rp1211
tp1212
a(S'niht'
p1213
g1208
I6
I1031
g5
(g9
S'VZfZ;%\x8d>'
p1214
tp1215
Rp1216
tp1217
a(S'iht'
p1218
g1208
I6
I1031
g5
(g9
S'\xc1\x96\n\xa4%\xa8\x90>'
p1219
tp1220
Rp1221
tp1222
a(S'sto-iht'
p1223
g1208
I6
I1031
g5
(g9
S'x\xb0\x12\r{\x8a\x8a>'
p1224
tp1225
Rp1226
tp1227
a(S'cosamp'
p1228
g1208
I6
I1031
g5
(g9
S'\xad\xd1\xf9Y\xe6/\x92@'
p1229
tp1230
Rp1231
tp1232
a(S'graph-iht'
p1233
S'angio'
p1234
I6
I1031
g5
(g9
S'\xb6\x07}\xbaP\xc7\xfc?'
p1235
tp1236
Rp1237
tp1238
a(S'graph-cosamp'
p1239
g1234
I6
I1031
g5
(g9
S'n\x9d\x8d\xb1w\xed\xa5@'
p1240
tp1241
Rp1242
tp1243
a(S'graph-sto-iht'
p1244
g1234
I6
I1031
g5
(g9
S'\x01\x03\x8d\xa0\xc6\xcb\x8c>'
p1245
tp1246
Rp1247
tp1248
a(S'niht'
p1249
g1234
I6
I1069
g5
(g9
S'\x99T/8\x16\xce\x8e>'
p1250
tp1251
Rp1252
tp1253
a(S'iht'
p1254
g1234
I6
I1069
g5
(g9
S'^\xd5Z\xe7\xee\x15\x8f>'
p1255
tp1256
Rp1257
tp1258
a(S'sto-iht'
p1259
S'angio'
p1260
I6
I1069
g5
(g9
S'K\xc3\xd3[\xdcv\x89>'
p1261
tp1262
Rp1263
tp1264
a(S'cosamp'
p1265
g1260
I6
I1069
g5
(g9
S'\xa2\xadA\\\x928 @'
p1266
tp1267
Rp1268
tp1269
a(S'graph-iht'
p1270
g1260
I6
I1069
g5
(g9
S'%\x7f\x87\xd6?\xe1\xfa?'
p1271
tp1272
Rp1273
tp1274
a(S'graph-cosamp'
p1275
g1260
I6
I1069
g5
(g9
S'xk\x92S\x93\xfd\x1c='
p1276
tp1277
Rp1278
tp1279
a(S'graph-sto-iht'
p1280
g1260
I6
I1069
g5
(g9
S'\x16Ut\x96\xd9\xeb\x89>'
p1281
tp1282
Rp1283
tp1284
a(S'niht'
p1285
S'angio'
p1286
I6
I1107
g5
(g9
S'\x1aI\x1cJP;\x89>'
p1287
tp1288
Rp1289
tp1290
a(S'iht'
p1291
g1286
I6
I1107
g5
(g9
S'\xb0[\x1b\x91\xd4\x8c\x8f>'
p1292
tp1293
Rp1294
tp1295
a(S'sto-iht'
p1296
g1286
I6
I1107
g5
(g9
S'^1\xda@$b\x8b>'
p1297
tp1298
Rp1299
tp1300
a(S'cosamp'
p1301
g1286
I6
I1107
g5
(g9
S'cY\xcc\x81\x1a\xdf\x16='
p1302
tp1303
Rp1304
tp1305
a(S'graph-iht'
p1306
g1286
I6
I1107
g5
(g9
S'\xda\x14kn\x0f\xf5\xf7?'
p1307
tp1308
Rp1309
tp1310
a(S'graph-cosamp'
p1311
S'angio'
p1312
I6
I1107
g5
(g9
S'\x1b\x0b\r\x05\xef\xd2\x19='
p1313
tp1314
Rp1315
tp1316
a(S'graph-sto-iht'
p1317
g1312
I6
I1107
g5
(g9
S'\x922\xd6\xe8\t\xc1\x83>'
p1318
tp1319
Rp1320
tp1321
a(S'niht'
p1322
g1312
I6
I1146
g5
(g9
S'\x91\xbeo.\x18~\x8b>'
p1323
tp1324
Rp1325
tp1326
a(S'iht'
p1327
g1312
I6
I1146
g5
(g9
S'\xe9:\xdc/\x9a\x92\x8e>'
p1328
tp1329
Rp1330
tp1331
a(S'sto-iht'
p1332
g1312
I6
I1146
g5
(g9
S'\xc9\xa9b\\\x8b\xa8\x89>'
p1333
tp1334
Rp1335
tp1336
a(S'cosamp'
p1337
S'angio'
p1338
I6
I1146
g5
(g9
S'\x83\x04\x05\xbeZ\x1d\x14='
p1339
tp1340
Rp1341
tp1342
a(S'graph-iht'
p1343
g1338
I6
I1146
g5
(g9
S' {<\x1ajR\x8c>'
p1344
tp1345
Rp1346
tp1347
a(S'graph-cosamp'
p1348
g1338
I6
I1146
g5
(g9
S'\x881\xd7:<\xea\x12='
p1349
tp1350
Rp1351
tp1352
a(S'graph-sto-iht'
p1353
g1338
I6
I1146
g5
(g9
S'\xc5)^\xff7\xf4\x8b>'
p1354
tp1355
Rp1356
tp1357
a(S'niht'
p1358
g1338
I6
I1184
g5
(g9
S'uX\x87\xde\xdd\x97~>'
p1359
tp1360
Rp1361
tp1362
a(S'iht'
p1363
S'angio'
p1364
I6
I1184
g5
(g9
S'_&G\x06@\xea\x8c>'
p1365
tp1366
Rp1367
tp1368
a(S'sto-iht'
p1369
g1364
I6
I1184
g5
(g9
S'\xb5\x8cA\x03\xe8(\x85>'
p1370
tp1371
Rp1372
tp1373
a(S'cosamp'
p1374
g1364
I6
I1184
g5
(g9
S'S\xaci\xba"$\x12='
p1375
tp1376
Rp1377
tp1378
a(S'graph-iht'
p1379
g1364
I6
I1184
g5
(g9
S'\x11\xc7\xa4\xe0O\xd3\x89>'
p1380
tp1381
Rp1382
tp1383
a(S'graph-cosamp'
p1384
g1364
I6
I1184
g5
(g9
S'\x13\xa4\xc9\xd6:0\x13='
p1385
tp1386
Rp1387
tp1388
a(S'graph-sto-iht'
p1389
S'angio'
p1390
I6
I1184
g5
(g9
S"\xdckz\x08'~\x88>"
p1391
tp1392
Rp1393
tp1394
a(S'niht'
p1395
g1390
I6
I1222
g5
(g9
S'\xf1*m\xf8/\r\x88>'
p1396
tp1397
Rp1398
tp1399
a(S'iht'
p1400
g1390
I6
I1222
g5
(g9
S'\xb5vKINx\x8c>'
p1401
tp1402
Rp1403
tp1404
a(S'sto-iht'
p1405
g1390
I6
I1222
g5
(g9
S'\xea\xe8$#\xe9S\x83>'
p1406
tp1407
Rp1408
tp1409
a(S'cosamp'
p1410
g1390
I6
I1222
g5
(g9
S'a&\xea\xd0\xfa\xc6\x11='
p1411
tp1412
Rp1413
tp1414
a(S'graph-iht'
p1415
S'angio'
p1416
I6
I1222
g5
(g9
S'Mv\x84\x0f\xc1\xa0\x89>'
p1417
tp1418
Rp1419
tp1420
a(S'graph-cosamp'
p1421
g1416
I6
I1222
g5
(g9
S'/\t\xc76\x8a%\x13='
p1422
tp1423
Rp1424
tp1425
a(S'graph-sto-iht'
p1426
g1416
I6
I1222
g5
(g9
S'~{D\xb9\xfbz\x83>'
p1427
tp1428
Rp1429
tp1430
a(S'niht'
p1431
g1416
I6
I1260
g5
(g9
S'\xbb\xf9\xa8\xc0V\x80\x88>'
p1432
tp1433
Rp1434
tp1435
a(S'iht'
p1436
g1416
I6
I1260
g5
(g9
S']\x9f\xb1F\x9f\xdc\x8b>'
p1437
tp1438
Rp1439
tp1440
a(S'sto-iht'
p1441
S'angio'
p1442
I6
I1260
g5
(g9
S'\xe7G\xa7\xfe\xd3\xa1\x83>'
p1443
tp1444
Rp1445
tp1446
a(S'cosamp'
p1447
g1442
I6
I1260
g5
(g9
S'\x13 \x95\xca:\xd6\x11='
p1448
tp1449
Rp1450
tp1451
a(S'graph-iht'
p1452
g1442
I6
I1260
g5
(g9
S'\x80\x8e^E\xa5T\x88>'
p1453
tp1454
Rp1455
tp1456
a(S'graph-cosamp'
p1457
g1442
I6
I1260
g5
(g9
S'\x17\xe7G^\xe4\x14\x11='
p1458
tp1459
Rp1460
tp1461
a(S'graph-sto-iht'
p1462
g1442
I6
I1260
g5
(g9
S'\x87Y\x08d\x10\x86\x81>'
p1463
tp1464
Rp1465
tp1466
a(S'niht'
p1467
S'angio'
p1468
I6
I1298
g5
(g9
S'\xad\x10\xce$\xb4\x0c\x83>'
p1469
tp1470
Rp1471
tp1472
a(S'iht'
p1473
g1468
I6
I1298
g5
(g9
S'\x00J\x00\xed\xc9\xd8\x8a>'
p1474
tp1475
Rp1476
tp1477
a(S'sto-iht'
p1478
g1468
I6
I1298
g5
(g9
S'\xb3\x91\xcb\t`\xef\x87>'
p1479
tp1480
Rp1481
tp1482
a(S'cosamp'
p1483
g1468
I6
I1298
g5
(g9
S']\xf4Xu\xf9\xa7\x11='
p1484
tp1485
Rp1486
tp1487
a(S'graph-iht'
p1488
g1468
I6
I1298
g5
(g9
S'\xc60\x92q\rK\x8a>'
p1489
tp1490
Rp1491
tp1492
a(S'graph-cosamp'
p1493
S'angio'
p1494
I6
I1298
g5
(g9
S'\xbf?+jG\xd5\x10='
p1495
tp1496
Rp1497
tp1498
a(S'graph-sto-iht'
p1499
g1494
I6
I1298
g5
(g9
S'\x0fb_B\x0e\xfe\x81>'
p1500
tp1501
Rp1502
tp1503
a(S'niht'
p1504
g1494
I6
I1337
g5
(g9
S'\x1d.T\xd8\xb2\x99\x89>'
p1505
tp1506
Rp1507
tp1508
a(S'iht'
p1509
g1494
I6
I1337
g5
(g9
S'\x06Y\x90<\xa1B\x8a>'
p1510
tp1511
Rp1512
tp1513
a(S'sto-iht'
p1514
g1494
I6
I1337
g5
(g9
S"\x16\x00\xb9@'w\x86>"
p1515
tp1516
Rp1517
tp1518
a(S'cosamp'
p1519
S'angio'
p1520
I6
I1337
g5
(g9
S'.C\xfdw\x16:\x10='
p1521
tp1522
Rp1523
tp1524
a(S'graph-iht'
p1525
g1520
I6
I1337
g5
(g9
S'a\xf0\xeb<\xe0\x98\x89>'
p1526
tp1527
Rp1528
tp1529
a(S'graph-cosamp'
p1530
g1520
I6
I1337
g5
(g9
S'H\xa1y\x03f,\x11='
p1531
tp1532
Rp1533
tp1534
a(S'graph-sto-iht'
p1535
g1520
I6
I1337
g5
(g9
S'X\xfbm\xa3\xb5\xb7\x80>'
p1536
tp1537
Rp1538
tp1539
a(S'niht'
p1540
S'icml'
p1541
I6
I616
g5
(g9
S'n\x1f\x0e]\x96r\x0c@'
p1542
tp1543
Rp1544
tp1545
a(S'iht'
p1546
S'icml'
p1547
I6
I616
g5
(g9
S'6\xf5\x83\x12Q\xf6\x0b@'
p1548
tp1549
Rp1550
tp1551
a(S'sto-iht'
p1552
g1547
I6
I616
g5
(g9
S'{)\xda\x96jP\x10@'
p1553
tp1554
Rp1555
tp1556
a(S'cosamp'
p1557
g1547
I6
I616
g5
(g9
S'\xd7]W\xf6\x93\x1b\n@'
p1558
tp1559
Rp1560
tp1561
a(S'graph-iht'
p1562
g1547
I6
I616
g5
(g9
S'E\xe1\x03J\xe4\xbd\x05@'
p1563
tp1564
Rp1565
tp1566
a(S'graph-cosamp'
p1567
g1547
I6
I616
g5
(g9
S'P\xbc\xe1\xb9\xaf\xa5\x07@'
p1568
tp1569
Rp1570
tp1571
a(S'graph-sto-iht'
p1572
S'icml'
p1573
I6
I616
g5
(g9
S'\t.\xe5\x05\x9b2\x15@'
p1574
tp1575
Rp1576
tp1577
a(S'niht'
p1578
g1573
I6
I657
g5
(g9
S'\x19\xf4?\xc3\xbdj\n@'
p1579
tp1580
Rp1581
tp1582
a(S'iht'
p1583
g1573
I6
I657
g5
(g9
S'#u>Q\x92 \x0b@'
p1584
tp1585
Rp1586
tp1587
a(S'sto-iht'
p1588
g1573
I6
I657
g5
(g9
S'E\xd4\xfb[\xe4\xba\x10@'
p1589
tp1590
Rp1591
tp1592
a(S'cosamp'
p1593
g1573
I6
I657
g5
(g9
S'\\\x9b\xff\xf6\xa03\t@'
p1594
tp1595
Rp1596
tp1597
a(S'graph-iht'
p1598
S'icml'
p1599
I6
I657
g5
(g9
S'\xdfE\x81\xe9\xd6>\x05@'
p1600
tp1601
Rp1602
tp1603
a(S'graph-cosamp'
p1604
g1599
I6
I657
g5
(g9
S'9#[\x92\xdc\xa1\x06@'
p1605
tp1606
Rp1607
tp1608
a(S'graph-sto-iht'
p1609
g1599
I6
I657
g5
(g9
S'\x15\x8e*\xe9\xb9-\x06@'
p1610
tp1611
Rp1612
tp1613
a(S'niht'
p1614
g1599
I6
I698
g5
(g9
S')\xe5:f\x1d\xd1\x08@'
p1615
tp1616
Rp1617
tp1618
a(S'iht'
p1619
g1599
I6
I698
g5
(g9
S'\x86\xe8\x110\x03\xbc\n@'
p1620
tp1621
Rp1622
tp1623
a(S'sto-iht'
p1624
S'icml'
p1625
I6
I698
g5
(g9
S'N\x15\xd96\xca\x93\x10@'
p1626
tp1627
Rp1628
tp1629
a(S'cosamp'
p1630
g1625
I6
I698
g5
(g9
S'\x8d:\x03\x17\x85"\x08@'
p1631
tp1632
Rp1633
tp1634
a(S'graph-iht'
p1635
g1625
I6
I698
g5
(g9
S'wug\xc9\xd74\x03@'
p1636
tp1637
Rp1638
tp1639
a(S'graph-cosamp'
p1640
g1625
I6
I698
g5
(g9
S'\xb1]\x8e\x0e\x7fC\x06@'
p1641
tp1642
Rp1643
tp1644
a(S'graph-sto-iht'
p1645
g1625
I6
I698
g5
(g9
S'P\xc2M\xbex\xc5\xfb?'
p1646
tp1647
Rp1648
tp1649
a(S'niht'
p1650
S'icml'
p1651
I6
I739
g5
(g9
S'\x96x\xa3\xfc\xf1Y\x08@'
p1652
tp1653
Rp1654
tp1655
a(S'iht'
p1656
g1651
I6
I739
g5
(g9
S'\xd6Q\x9f\xdf\xd7\xea\x07@'
p1657
tp1658
Rp1659
tp1660
a(S'sto-iht'
p1661
g1651
I6
I739
g5
(g9
S'm`\x99|\xa6h\x12@'
p1662
tp1663
Rp1664
tp1665
a(S'cosamp'
p1666
g1651
I6
I739
g5
(g9
S'c\xe7_\xbb\xebm\x07@'
p1667
tp1668
Rp1669
tp1670
a(S'graph-iht'
p1671
g1651
I6
I739
g5
(g9
S'\\\x8c;\xa0\x98\xd5\x00@'
p1672
tp1673
Rp1674
tp1675
a(S'graph-cosamp'
p1676
S'icml'
p1677
I6
I739
g5
(g9
S'\x1d@\x9b\x03Us\x05@'
p1678
tp1679
Rp1680
tp1681
a(S'graph-sto-iht'
p1682
g1677
I6
I739
g5
(g9
S'k?\x9df6\x80\xe6?'
p1683
tp1684
Rp1685
tp1686
a(S'niht'
p1687
g1677
I6
I780
g5
(g9
S'\xc9\xa33\x9f\xef\xe9\x05@'
p1688
tp1689
Rp1690
tp1691
a(S'iht'
p1692
g1677
I6
I780
g5
(g9
S'\xa9\xea\xb1\xf7i\xdf\x05@'
p1693
tp1694
Rp1695
tp1696
a(S'sto-iht'
p1697
g1677
I6
I780
g5
(g9
S'|\x9e\x82\xdc\x1c\x06\x10@'
p1698
tp1699
Rp1700
tp1701
a(S'cosamp'
p1702
S'icml'
p1703
I6
I780
g5
(g9
S'\xf9z\x8f\x85\xd5\x9d\x06@'
p1704
tp1705
Rp1706
tp1707
a(S'graph-iht'
p1708
g1703
I6
I780
g5
(g9
S'\xa8\xd9\x04\xeeh\x83\x00@'
p1709
tp1710
Rp1711
tp1712
a(S'graph-cosamp'
p1713
g1703
I6
I780
g5
(g9
S'\xfc>\x06\x7fxF\x04@'
p1714
tp1715
Rp1716
tp1717
a(S'graph-sto-iht'
p1718
g1703
I6
I780
g5
(g9
S'Nby\xd9\x9c!\x92>'
p1719
tp1720
Rp1721
tp1722
a(S'niht'
p1723
g1703
I6
I822
g5
(g9
S'\xff\x93\x16\xdbI\t\x04@'
p1724
tp1725
Rp1726
tp1727
a(S'iht'
p1728
S'icml'
p1729
I6
I822
g5
(g9
S'\x02qZ\xc7\r\xd2\x03@'
p1730
tp1731
Rp1732
tp1733
a(S'sto-iht'
p1734
g1729
I6
I822
g5
(g9
S'\x84\xb3\x93\x8f\xa0\x1a\r@'
p1735
tp1736
Rp1737
tp1738
a(S'cosamp'
p1739
g1729
I6
I822
g5
(g9
S'\xd7n\xf2I\xa8\x95\x05@'
p1740
tp1741
Rp1742
tp1743
a(S'graph-iht'
p1744
g1729
I6
I822
g5
(g9
S'1\x08\xd9\xdf\x92\xc2\xfd?'
p1745
tp1746
Rp1747
tp1748
a(S'graph-cosamp'
p1749
g1729
I6
I822
g5
(g9
S'\xe0\x01\xc1\x17\xe58\x03@'
p1750
tp1751
Rp1752
tp1753
a(S'graph-sto-iht'
p1754
S'icml'
p1755
I6
I822
g5
(g9
S'\x8c\xb9\xbe\x83|\xe1\x90>'
p1756
tp1757
Rp1758
tp1759
a(S'niht'
p1760
g1755
I6
I863
g5
(g9
S'\x14\x86\x93\t\x0b\xe3\x00@'
p1761
tp1762
Rp1763
tp1764
a(S'iht'
p1765
g1755
I6
I863
g5
(g9
S'\x8f\xf5\x11t\x11\xdf\x01@'
p1766
tp1767
Rp1768
tp1769
a(S'sto-iht'
p1770
g1755
I6
I863
g5
(g9
S'\xf2\x80(\x18\\\xd2\x08@'
p1771
tp1772
Rp1773
tp1774
a(S'cosamp'
p1775
g1755
I6
I863
g5
(g9
S'\r\xf9|\x9d.M\x05@'
p1776
tp1777
Rp1778
tp1779
a(S'graph-iht'
p1780
S'icml'
p1781
I6
I863
g5
(g9
S'<\xc3\x95\x11h\xaa\xfb?'
p1782
tp1783
Rp1784
tp1785
a(S'graph-cosamp'
p1786
g1781
I6
I863
g5
(g9
S'\x02\x9c\xf2\x0bVU\x02@'
p1787
tp1788
Rp1789
tp1790
a(S'graph-sto-iht'
p1791
g1781
I6
I863
g5
(g9
S'\xb0c#\xeb\xe1\xbb\x8c>'
p1792
tp1793
Rp1794
tp1795
a(S'niht'
p1796
g1781
I6
I904
g5
(g9
S'\xa8\xd9(\x98\xe0\x02\xff?'
p1797
tp1798
Rp1799
tp1800
a(S'iht'
p1801
g1781
I6
I904
g5
(g9
S'\x9c\xd1\xf0z\xe6\xc4\xfb?'
p1802
tp1803
Rp1804
tp1805
a(S'sto-iht'
p1806
S'icml'
p1807
I6
I904
g5
(g9
S'c\x9f\xb7\xd8\x05W\x08@'
p1808
tp1809
Rp1810
tp1811
a(S'cosamp'
p1812
g1807
I6
I904
g5
(g9
S'\x01jg\\\xf8\xf0\x03@'
p1813
tp1814
Rp1815
tp1816
a(S'graph-iht'
p1817
g1807
I6
I904
g5
(g9
S'2X\x0b\x03\xb7\xf7\xf6?'
p1818
tp1819
Rp1820
tp1821
a(S'graph-cosamp'
p1822
g1807
I6
I904
g5
(g9
S'4&dI8\xaa\x00@'
p1823
tp1824
Rp1825
tp1826
a(S'graph-sto-iht'
p1827
g1807
I6
I904
g5
(g9
S'\xa9 \x7fI\x88\x86\x8c>'
p1828
tp1829
Rp1830
tp1831
a(S'niht'
p1832
S'icml'
p1833
I6
I945
g5
(g9
S'h6n\xe2\xb1\x9a\xf3?'
p1834
tp1835
Rp1836
tp1837
a(S'iht'
p1838
g1833
I6
I945
g5
(g9
S'\xde\xcd\x8e\xc2\xadQ\xf4?'
p1839
tp1840
Rp1841
tp1842
a(S'sto-iht'
p1843
g1833
I6
I945
g5
(g9
S'$\xaedu\x9fs\x04@'
p1844
tp1845
Rp1846
tp1847
a(S'cosamp'
p1848
g1833
I6
I945
g5
(g9
S'\x9c\xfe7\x8e\xcb\xcf\x02@'
p1849
tp1850
Rp1851
tp1852
a(S'graph-iht'
p1853
g1833
I6
I945
g5
(g9
S'\xdd\xce\xb0\xe4\xcc\xb9\xf3?'
p1854
tp1855
Rp1856
tp1857
a(S'graph-cosamp'
p1858
S'icml'
p1859
I6
I945
g5
(g9
S'WQ9\x8a\x91D\xff?'
p1860
tp1861
Rp1862
tp1863
a(S'graph-sto-iht'
p1864
g1859
I6
I945
g5
(g9
S'\xfcn\x05/\x03\xc2\x8e>'
p1865
tp1866
Rp1867
tp1868
a(S'niht'
p1869
g1859
I6
I986
g5
(g9
S'\xfc\x82\xec\x8f\xe9>\xf4?'
p1870
tp1871
Rp1872
tp1873
a(S'iht'
p1874
g1859
I6
I986
g5
(g9
S'\xb6FRe\x82/\xeb?'
p1875
tp1876
Rp1877
tp1878
a(S'sto-iht'
p1879
g1859
I6
I986
g5
(g9
S'\x0b"\xa2\xc2\x9d~\x02@'
p1880
tp1881
Rp1882
tp1883
a(S'cosamp'
p1884
S'icml'
p1885
I6
I986
g5
(g9
S'\x06\x12\x08V\xe3\xa0\xff?'
p1886
tp1887
Rp1888
tp1889
a(S'graph-iht'
p1890
g1885
I6
I986
g5
(g9
S'8b\xef@n\xdb\xf3?'
p1891
tp1892
Rp1893
tp1894
a(S'graph-cosamp'
p1895
g1885
I6
I986
g5
(g9
S'\x8ao\xb6\xed\xf8\xd9\xfa?'
p1896
tp1897
Rp1898
tp1899
a(S'graph-sto-iht'
p1900
g1885
I6
I986
g5
(g9
S'\xf4`\xe0\x109\xcb\x8e>'
p1901
tp1902
Rp1903
tp1904
a(S'niht'
p1905
g1885
I6
I1027
g5
(g9
S'G\xc1\xe4\xce\x8a\xe4\xeb?'
p1906
tp1907
Rp1908
tp1909
a(S'iht'
p1910
S'icml'
p1911
I6
I1027
g5
(g9
S'\xb1R\xb1m`\x02\xe5?'
p1912
tp1913
Rp1914
tp1915
a(S'sto-iht'
p1916
g1911
I6
I1027
g5
(g9
S'\xe9\xa9IY\xdby\x8f>'
p1917
tp1918
Rp1919
tp1920
a(S'cosamp'
p1921
g1911
I6
I1027
g5
(g9
S'\x96\x0f\x0cI\xb8\x10\x01@'
p1922
tp1923
Rp1924
tp1925
a(S'graph-iht'
p1926
g1911
I6
I1027
g5
(g9
S'\xe7\x86\x00.\xd7W\xf2?'
p1927
tp1928
Rp1929
tp1930
a(S'graph-cosamp'
p1931
g1911
I6
I1027
g5
(g9
S'\xb1\x1c0\xf6\xd6\x92\xf6?'
p1932
tp1933
Rp1934
tp1935
a(S'graph-sto-iht'
p1936
S'icml'
p1937
I6
I1027
g5
(g9
S'\xdb\x83\x8e>#\x88\x8b>'
p1938
tp1939
Rp1940
tp1941
a(S'niht'
p1942
g1937
I6
I1068
g5
(g9
S'\xa7u\xba\x01\t\x02\x90>'
p1943
tp1944
Rp1945
tp1946
a(S'iht'
p1947
g1937
I6
I1068
g5
(g9
S'\xfb\xc9\x17g\xe3+\x90>'
p1948
tp1949
Rp1950
tp1951
a(S'sto-iht'
p1952
g1937
I6
I1068
g5
(g9
S'\xc5\xb4\xcf\xb00\xa3\x8a>'
p1953
tp1954
Rp1955
tp1956
a(S'cosamp'
p1957
g1937
I6
I1068
g5
(g9
S'\x91/\x90\x95i+"@'
p1958
tp1959
Rp1960
tp1961
a(S'graph-iht'
p1962
S'icml'
p1963
I6
I1068
g5
(g9
S'"\x9b+*@\x9c\xf1?'
p1964
tp1965
Rp1966
tp1967
a(S'graph-cosamp'
p1968
g1963
I6
I1068
g5
(g9
S'*\xf0b\x9d/\x97 @'
p1969
tp1970
Rp1971
tp1972
a(S'graph-sto-iht'
p1973
g1963
I6
I1068
g5
(g9
S'\xb90\xf0\xb6\xe4\xa7\x86>'
p1974
tp1975
Rp1976
tp1977
a(S'niht'
p1978
g1963
I6
I1109
g5
(g9
S'\xd5\xf4\x1e\xfe\xbcL\x90>'
p1979
tp1980
Rp1981
tp1982
a(S'iht'
p1983
g1963
I6
I1109
g5
(g9
S'\xe3R\x0cIW\xa9\x8e>'
p1984
tp1985
Rp1986
tp1987
a(S'sto-iht'
p1988
S'icml'
p1989
I6
I1109
g5
(g9
S'\xfab=\xcf\xa3c\x86>'
p1990
tp1991
Rp1992
tp1993
a(S'cosamp'
p1994
g1989
I6
I1109
g5
(g9
S'?\x1b\x82\xdd\x16\xe0T@'
p1995
tp1996
Rp1997
tp1998
a(S'graph-iht'
p1999
g1989
I6
I1109
g5
(g9
S':V\x04\xe6\x06u\xf1?'
p2000
tp2001
Rp2002
tp2003
a(S'graph-cosamp'
p2004
g1989
I6
I1109
g5
(g9
S'\xe8\xd2&\xf4\x88\xf18@'
p2005
tp2006
Rp2007
tp2008
a(S'graph-sto-iht'
p2009
g1989
I6
I1109
g5
(g9
S'\x9b\x83\xf1!\x9a\xcb\x8a>'
p2010
tp2011
Rp2012
tp2013
a(S'niht'
p2014
S'icml'
p2015
I6
I1150
g5
(g9
S'\xfc1}=\x86\x05\x90>'
p2016
tp2017
Rp2018
tp2019
a(S'iht'
p2020
g2015
I6
I1150
g5
(g9
S'G./g\x1d1\x8f>'
p2021
tp2022
Rp2023
tp2024
a(S'sto-iht'
p2025
g2015
I6
I1150
g5
(g9
S'\xb0\xcd\xdc\xa4\xc5t\x84>'
p2026
tp2027
Rp2028
tp2029
a(S'cosamp'
p2030
g2015
I6
I1150
g5
(g9
S'W\xe2}\x08\x15-\x1f@'
p2031
tp2032
Rp2033
tp2034
a(S'graph-iht'
p2035
g2015
I6
I1150
g5
(g9
S'\x9a\xfdmP\x04\xaa\xf0?'
p2036
tp2037
Rp2038
tp2039
a(S'graph-cosamp'
p2040
S'icml'
p2041
I6
I1150
g5
(g9
S'\xf2x\x9f\xa8\t\x85\x12='
p2042
tp2043
Rp2044
tp2045
a(S'graph-sto-iht'
p2046
g2041
I6
I1150
g5
(g9
S'\x88\xd2\xf5ny\x8c\x85>'
p2047
tp2048
Rp2049
tp2050
a(S'niht'
p2051
g2041
I6
I1191
g5
(g9
S'%\xf6F6\x11\xbe{>'
p2052
tp2053
Rp2054
tp2055
a(S'iht'
p2056
g2041
I6
I1191
g5
(g9
S'\xc9\x8b\xd2\x9e\\\xdd\x8d>'
p2057
tp2058
Rp2059
tp2060
a(S'sto-iht'
p2061
g2041
I6
I1191
g5
(g9
S'\xb4\x1cc\xf1\xd7\xa8\x83>'
p2062
tp2063
Rp2064
tp2065
a(S'cosamp'
p2066
S'icml'
p2067
I6
I1191
g5
(g9
S'\xa1TB\x84\xee;\x11='
p2068
tp2069
Rp2070
tp2071
a(S'graph-iht'
p2072
g2067
I6
I1191
g5
(g9
S'j\xb1\x97\xa7c,\xe7?'
p2073
tp2074
Rp2075
tp2076
a(S'graph-cosamp'
p2077
g2067
I6
I1191
g5
(g9
S'd[oh\x9a\xc1\x14='
p2078
tp2079
Rp2080
tp2081
a(S'graph-sto-iht'
p2082
g2067
I6
I1191
g5
(g9
S'/;\xc0\xff\r\xf1\x85>'
p2083
tp2084
Rp2085
tp2086
a(S'niht'
p2087
g2067
I6
I1233
g5
(g9
S'\xcbs\x943\xd4\xd1w>'
p2088
tp2089
Rp2090
tp2091
a(S'iht'
p2092
S'icml'
p2093
I6
I1233
g5
(g9
S'~\xdct\xd3kP\x8d>'
p2094
tp2095
Rp2096
tp2097
a(S'sto-iht'
p2098
g2093
I6
I1233
g5
(g9
S'\xd8\x90\xea\xfa"\xc9\x89>'
p2099
tp2100
Rp2101
tp2102
a(S'cosamp'
p2103
g2093
I6
I1233
g5
(g9
S'\x81\xaeM\xd5fK\x10='
p2104
tp2105
Rp2106
tp2107
a(S'graph-iht'
p2108
g2093
I6
I1233
g5
(g9
S'\xe5\x0ca\x8b}#\x8c>'
p2109
tp2110
Rp2111
tp2112
a(S'graph-cosamp'
p2113
g2093
I6
I1233
g5
(g9
S'W\x9e\x84\\\x12\x9b\x12='
p2114
tp2115
Rp2116
tp2117
a(S'graph-sto-iht'
p2118
S'icml'
p2119
I6
I1233
g5
(g9
S'\xe2{\n\x17O\x18\x86>'
p2120
tp2121
Rp2122
tp2123
a(S'niht'
p2124
g2119
I6
I1274
g5
(g9
S'\x8e\x0eR8\xab\x0b\x80>'
p2125
tp2126
Rp2127
tp2128
a(S'iht'
p2129
g2119
I6
I1274
g5
(g9
S'\xf3wB/H\x1c\x8d>'
p2130
tp2131
Rp2132
tp2133
a(S'sto-iht'
p2134
g2119
I6
I1274
g5
(g9
S'\xbc]\xf2Ov\xf2\x85>'
p2135
tp2136
Rp2137
tp2138
a(S'cosamp'
p2139
g2119
I6
I1274
g5
(g9
S'\xee$\x94\xf7\xc6\xc8\x10='
p2140
tp2141
Rp2142
tp2143
a(S'graph-iht'
p2144
S'icml'
p2145
I6
I1274
g5
(g9
S'\x90\x84\xc1iX=\x8b>'
p2146
tp2147
Rp2148
tp2149
a(S'graph-cosamp'
p2150
g2145
I6
I1274
g5
(g9
S'W\xc4\x9d\xa8\xb4"\x10='
p2151
tp2152
Rp2153
tp2154
a(S'graph-sto-iht'
p2155
g2145
I6
I1274
g5
(g9
S'$\xdfu,\x9e\xe3\x84>'
p2156
tp2157
Rp2158
tp2159
a(S'niht'
p2160
g2145
I6
I1315
g5
(g9
S'%\x9c\xdc\xd3Z{\x88>'
p2161
tp2162
Rp2163
tp2164
a(S'iht'
p2165
g2145
I6
I1315
g5
(g9
S'S\xbby\xaa\xbaK\x8b>'
p2166
tp2167
Rp2168
tp2169
a(S'sto-iht'
p2170
S'icml'
p2171
I6
I1315
g5
(g9
S'\xe4:N\xf4h\x1e\x85>'
p2172
tp2173
Rp2174
tp2175
a(S'cosamp'
p2176
g2171
I6
I1315
g5
(g9
S'\xc5\xe5\xe2\xea\xfdO\x0e='
p2177
tp2178
Rp2179
tp2180
a(S'graph-iht'
p2181
g2171
I6
I1315
g5
(g9
S'\x05\xd1\xa8\xc5\x06\xce\x8a>'
p2182
tp2183
Rp2184
tp2185
a(S'graph-cosamp'
p2186
g2171
I6
I1315
g5
(g9
S'8n\x02.\x9f\x02\x10='
p2187
tp2188
Rp2189
tp2190
a(S'graph-sto-iht'
p2191
g2171
I6
I1315
g5
(g9
S'\x08\xf4\x91\x85#O\x86>'
p2192
tp2193
Rp2194
tp2195
a(S'niht'
p2196
S'icml'
p2197
I6
I1356
g5
(g9
S';\x82\xc2\xacOf\x88>'
p2198
tp2199
Rp2200
tp2201
a(S'iht'
p2202
g2197
I6
I1356
g5
(g9
S'\xd5kB\x08/\x9f\x8b>'
p2203
tp2204
Rp2205
tp2206
a(S'sto-iht'
p2207
g2197
I6
I1356
g5
(g9
S'\x1c\x11\xf9\xa1\xa0\xbc\x82>'
p2208
tp2209
Rp2210
tp2211
a(S'cosamp'
p2212
g2197
I6
I1356
g5
(g9
S'\x9d\xc9#\xf9\xfd\xdc\x0c='
p2213
tp2214
Rp2215
tp2216
a(S'graph-iht'
p2217
g2197
I6
I1356
g5
(g9
S'\xcbf}\xe4\xa8\xc9\x89>'
p2218
tp2219
Rp2220
tp2221
a(S'graph-cosamp'
p2222
S'icml'
p2223
I6
I1356
g5
(g9
S'd\x8b\x92\xa8\r0\x0c='
p2224
tp2225
Rp2226
tp2227
a(S'graph-sto-iht'
p2228
g2223
I6
I1356
g5
(g9
S'\xa6\xfch\xf04\x0f\x84>'
p2229
tp2230
Rp2231
tp2232
a(S'niht'
p2233
g2223
I6
I1397
g5
(g9
S'\xac\x9a\xa2\x1c\xa6\xdcw>'
p2234
tp2235
Rp2236
tp2237
a(S'iht'
p2238
g2223
I6
I1397
g5
(g9
S'\xbb:0\x15p\x87\x8b>'
p2239
tp2240
Rp2241
tp2242
a(S'sto-iht'
p2243
g2223
I6
I1397
g5
(g9
S'\xab=\x9c\xa0\xa5q\x85>'
p2244
tp2245
Rp2246
tp2247
a(S'cosamp'
p2248
S'icml'
p2249
I6
I1397
g5
(g9
S'\xc5\xe1\xbb],7\x0e='
p2250
tp2251
Rp2252
tp2253
a(S'graph-iht'
p2254
g2249
I6
I1397
g5
(g9
S'u\x1b4\x8c+\xbd\x88>'
p2255
tp2256
Rp2257
tp2258
a(S'graph-cosamp'
p2259
g2249
I6
I1397
g5
(g9
S'\x8d7\x9dj@\x8a\x0e='
p2260
tp2261
Rp2262
tp2263
a(S'graph-sto-iht'
p2264
g2249
I6
I1397
g5
(g9
S'<A\x91\xbc\x17\xaa\x86>'
p2265
tp2266
Rp2267
tp2268
a(S'niht'
p2269
g2249
I6
I1438
g5
(g9
S'\x037G\xf2\xfa\x92~>'
p2270
tp2271
Rp2272
tp2273
a(S'iht'
p2274
S'icml'
p2275
I6
I1438
g5
(g9
S'"\xdd%\x92.\xf9\x8a>'
p2276
tp2277
Rp2278
tp2279
a(S'sto-iht'
p2280
g2275
I6
I1438
g5
(g9
S'\xbd\xcd\x97\x0b\xf9\x80\x88>'
p2281
tp2282
Rp2283
tp2284
a(S'cosamp'
p2285
g2275
I6
I1438
g5
(g9
S'\xa0F\xc0\xc0\x99\x10\r='
p2286
tp2287
Rp2288
tp2289
a(S'graph-iht'
p2290
g2275
I6
I1438
g5
(g9
S'\x7f<6\x89\x1c\xd4\x88>'
p2291
tp2292
Rp2293
tp2294
a(S'graph-cosamp'
p2295
g2275
I6
I1438
g5
(g9
S'\xf5\xba\xa3\xb4\xbd\x8b\n='
p2296
tp2297
Rp2298
tp2299
a(S'graph-sto-iht'
p2300
S'icml'
p2301
I6
I1438
g5
(g9
S'D\xf0:\xc0\x88_\x88>'
p2302
tp2303
Rp2304
tp2305
as.