(dp0
S'results_pool'
p1
(lp2
(S'niht'
p3
S'background'
p4
I3
I354
cnumpy.core.multiarray
scalar
p5
(cnumpy
dtype
p6
(S'f8'
p7
I0
I1
tp8
Rp9
(I3
S'<'
p10
NNNI-1
I-1
I0
tp11
bS'\xca4hi\x1e\xd8\x10@'
p12
tp13
Rp14
tp15
a(S'iht'
p16
g4
I3
I354
g5
(g9
S'\xd7K\xbaM\xf0\xc8\x10@'
p17
tp18
Rp19
tp20
a(S'sto-iht'
p21
g4
I3
I354
g5
(g9
S'\x84:\x0c\x03\x91l\x13@'
p22
tp23
Rp24
tp25
a(S'cosamp'
p26
g4
I3
I354
g5
(g9
S"\xac\xc6\x8d\x90\xcb'\x0f@"
p27
tp28
Rp29
tp30
a(S'graph-iht'
p31
g4
I3
I354
g5
(g9
S'\x83\xbbl\x01\xd5\xc9\n@'
p32
tp33
Rp34
tp35
a(S'graph-cosamp'
p36
S'background'
p37
I3
I354
g5
(g9
S"%'\x05\x98\xdc\xb4\x0c@"
p38
tp39
Rp40
tp41
a(S'graph-sto-iht'
p42
g37
I3
I354
g5
(g9
S'\x13%,\xf1\x82\xc2\x13@'
p43
tp44
Rp45
tp46
a(S'niht'
p47
g37
I3
I377
g5
(g9
S'\xdb\x14~%\xf2\xb2\x10@'
p48
tp49
Rp50
tp51
a(S'iht'
p52
g37
I3
I377
g5
(g9
S'|\x18\xe62\x15q\x10@'
p53
tp54
Rp55
tp56
a(S'sto-iht'
p57
g37
I3
I377
g5
(g9
S'\x8b\tQ8\xf3\x86\x15@'
p58
tp59
Rp60
tp61
a(S'cosamp'
p62
S'background'
p63
I3
I377
g5
(g9
S'3>\xc6\x16s+\x0f@'
p64
tp65
Rp66
tp67
a(S'graph-iht'
p68
g63
I3
I377
g5
(g9
S'\xde\xe0\x11\xb2\x04\xb5\x08@'
p69
tp70
Rp71
tp72
a(S'graph-cosamp'
p73
g63
I3
I377
g5
(g9
S'>v"Ja?\x0c@'
p74
tp75
Rp76
tp77
a(S'graph-sto-iht'
p78
g63
I3
I377
g5
(g9
S'tY\x8b\x85\xe0>\r@'
p79
tp80
Rp81
tp82
a(S'niht'
p83
g63
I3
I401
g5
(g9
S',\xd5\xd5\xf0\x96`\x10@'
p84
tp85
Rp86
tp87
a(S'iht'
p88
S'background'
p89
I3
I401
g5
(g9
S'\xccs\x05\xa5\x9b\xb0\x10@'
p90
tp91
Rp92
tp93
a(S'sto-iht'
p94
g89
I3
I401
g5
(g9
S'\n\xb1\n\xc1)\xd4\x14@'
p95
tp96
Rp97
tp98
a(S'cosamp'
p99
g89
I3
I401
g5
(g9
S'f\xcf<\xf6\xfb,\x0e@'
p100
tp101
Rp102
tp103
a(S'graph-iht'
p104
g89
I3
I401
g5
(g9
S'#\xef\xe35\x86\xca\x08@'
p105
tp106
Rp107
tp108
a(S'graph-cosamp'
p109
g89
I3
I401
g5
(g9
S'\x96\xa7\xed\xd4\xb5h\x0b@'
p110
tp111
Rp112
tp113
a(S'graph-sto-iht'
p114
S'background'
p115
I3
I401
g5
(g9
S'\x04\xfd\xba\xbc\x0bP\x0e@'
p116
tp117
Rp118
tp119
a(S'niht'
p120
g115
I3
I424
g5
(g9
S'\xdc9Z\xc9\xe2\xed\r@'
p121
tp122
Rp123
tp124
a(S'iht'
p125
g115
I3
I424
g5
(g9
S'\xaa\xf4\xb20\x0f\xe2\x0e@'
p126
tp127
Rp128
tp129
a(S'sto-iht'
p130
g115
I3
I424
g5
(g9
S'U\xef\xbf~\xbc:\x14@'
p131
tp132
Rp133
tp134
a(S'cosamp'
p135
g115
I3
I424
g5
(g9
S'\x06\xc5\xfa\xad#\x01\x0e@'
p136
tp137
Rp138
tp139
a(S'graph-iht'
p140
S'background'
p141
I3
I424
g5
(g9
S'(\x04\x12\xb1`\x85\x08@'
p142
tp143
Rp144
tp145
a(S'graph-cosamp'
p146
g141
I3
I424
g5
(g9
S'h\xa0`\x11M;\x0b@'
p147
tp148
Rp149
tp150
a(S'graph-sto-iht'
p151
g141
I3
I424
g5
(g9
S'e\xe3\x85\x87\xaf\x08\x12@'
p152
tp153
Rp154
tp155
a(S'niht'
p156
g141
I3
I448
g5
(g9
S'\xaa\xb3d\xdc\x88\xa8\x0e@'
p157
tp158
Rp159
tp160
a(S'iht'
p161
g141
I3
I448
g5
(g9
S'\xc6\x08\x04_\x90\x13\x0e@'
p162
tp163
Rp164
tp165
a(S'sto-iht'
p166
S'background'
p167
I3
I448
g5
(g9
S'\xf9\x9b\xee\x022\xa0\x12@'
p168
tp169
Rp170
tp171
a(S'cosamp'
p172
g167
I3
I448
g5
(g9
S'mP\x9f{\x8c+\r@'
p173
tp174
Rp175
tp176
a(S'graph-iht'
p177
g167
I3
I448
g5
(g9
S'L\x1aE\xe1;\xc6\x07@'
p178
tp179
Rp180
tp181
a(S'graph-cosamp'
p182
g167
I3
I448
g5
(g9
S'b\xe6\xb8\xaf\xaf\x1e\n@'
p183
tp184
Rp185
tp186
a(S'graph-sto-iht'
p187
g167
I3
I448
g5
(g9
S'\xe0\xddp{\x91z\r@'
p188
tp189
Rp190
tp191
a(S'niht'
p192
S'background'
p193
I3
I472
g5
(g9
S"'9\x881\x81\xd9\r@"
p194
tp195
Rp196
tp197
a(S'iht'
p198
g193
I3
I472
g5
(g9
S'\xcc8kp\xea\xb2\r@'
p199
tp200
Rp201
tp202
a(S'sto-iht'
p203
g193
I3
I472
g5
(g9
S'\xac\xfa\x80Mh\x02\x15@'
p204
tp205
Rp206
tp207
a(S'cosamp'
p208
g193
I3
I472
g5
(g9
S'\x19\xab\xa6\xc9\xe2a\r@'
p209
tp210
Rp211
tp212
a(S'graph-iht'
p213
g193
I3
I472
g5
(g9
S':g$zof\x06@'
p214
tp215
Rp216
tp217
a(S'graph-cosamp'
p218
S'background'
p219
I3
I472
g5
(g9
S'\xcak\xff~\xda\n\t@'
p220
tp221
Rp222
tp223
a(S'graph-sto-iht'
p224
g219
I3
I472
g5
(g9
S'q\n\x9a@\x86=\x92>'
p225
tp226
Rp227
tp228
a(S'niht'
p229
g219
I3
I495
g5
(g9
S'\x1bao\x98\x08?\r@'
p230
tp231
Rp232
tp233
a(S'iht'
p234
g219
I3
I495
g5
(g9
S'\x9e\xc3WyR?\r@'
p235
tp236
Rp237
tp238
a(S'sto-iht'
p239
g219
I3
I495
g5
(g9
S'\xcd\xf3\x17G\xb48\x14@'
p240
tp241
Rp242
tp243
a(S'cosamp'
p244
S'background'
p245
I3
I495
g5
(g9
S'\x81LF\x82\x11\xd1\x0c@'
p246
tp247
Rp248
tp249
a(S'graph-iht'
p250
g245
I3
I495
g5
(g9
S'c9\xfa\x15\x93\xaf\x07@'
p251
tp252
Rp253
tp254
a(S'graph-cosamp'
p255
g245
I3
I495
g5
(g9
S'M\xd0\xc6\x10W\x11\n@'
p256
tp257
Rp258
tp259
a(S'graph-sto-iht'
p260
g245
I3
I495
g5
(g9
S'\xa8\xba\xb3z\xf1F\x8c>'
p261
tp262
Rp263
tp264
a(S'niht'
p265
g245
I3
I519
g5
(g9
S'T\xd4Z\x06y%\r@'
p266
tp267
Rp268
tp269
a(S'iht'
p270
S'background'
p271
I3
I519
g5
(g9
S'J\xaf\x055\x17+\x0e@'
p272
tp273
Rp274
tp275
a(S'sto-iht'
p276
g271
I3
I519
g5
(g9
S'\x02w\x1c\x1a\x9e\xe0\x13@'
p277
tp278
Rp279
tp280
a(S'cosamp'
p281
g271
I3
I519
g5
(g9
S'Y\xaa\xa2\xc2p\xea\x0c@'
p282
tp283
Rp284
tp285
a(S'graph-iht'
p286
g271
I3
I519
g5
(g9
S'\x80\xc9V\xf9\xbc\xcd\x06@'
p287
tp288
Rp289
tp290
a(S'graph-cosamp'
p291
g271
I3
I519
g5
(g9
S'\xd5\xc0\x10A\xe9\x85\x08@'
p292
tp293
Rp294
tp295
a(S'graph-sto-iht'
p296
S'background'
p297
I3
I519
g5
(g9
S'\xa8\xafx\xb7\xc00\x8a>'
p298
tp299
Rp300
tp301
a(S'niht'
p302
g297
I3
I542
g5
(g9
S's\xb3j\xc5\xfd\xb4\x0b@'
p303
tp304
Rp305
tp306
a(S'iht'
p307
g297
I3
I542
g5
(g9
S'\x1aA\xf9\xf8,\x10\x0b@'
p308
tp309
Rp310
tp311
a(S'sto-iht'
p312
g297
I3
I542
g5
(g9
S'\xae\xca\xc7\x91Q`\x11@'
p313
tp314
Rp315
tp316
a(S'cosamp'
p317
g297
I3
I542
g5
(g9
S'\xb6\x9b(i\xa5\xc2\x0b@'
p318
tp319
Rp320
tp321
a(S'graph-iht'
p322
S'background'
p323
I3
I542
g5
(g9
S'\xac\xbd\xaaV\xa1\xdd\x05@'
p324
tp325
Rp326
tp327
a(S'graph-cosamp'
p328
g323
I3
I542
g5
(g9
S'\x03/\xef\xac\xd3\xd2\x04@'
p329
tp330
Rp331
tp332
a(S'graph-sto-iht'
p333
g323
I3
I542
g5
(g9
S'\x00d\xd9G\xad\xb2\x8a>'
p334
tp335
Rp336
tp337
a(S'niht'
p338
g323
I3
I566
g5
(g9
S'\x8c`\xac\x95i\xe6\n@'
p339
tp340
Rp341
tp342
a(S'iht'
p343
g323
I3
I566
g5
(g9
S'\x8aw\xc2i\xa8+\t@'
p344
tp345
Rp346
tp347
a(S'sto-iht'
p348
S'background'
p349
I3
I566
g5
(g9
S'W\xd8\x9d\xa5@\x81\x12@'
p350
tp351
Rp352
tp353
a(S'cosamp'
p354
g349
I3
I566
g5
(g9
S"'\x8e\xce\x95\x0f;\n@"
p355
tp356
Rp357
tp358
a(S'graph-iht'
p359
g349
I3
I566
g5
(g9
S'p|\xd7\xcev\xf6\x05@'
p360
tp361
Rp362
tp363
a(S'graph-cosamp'
p364
g349
I3
I566
g5
(g9
S'\xc7Q\xfbu\x03A\xff?'
p365
tp366
Rp367
tp368
a(S'graph-sto-iht'
p369
g349
I3
I566
g5
(g9
S'qZES\xa1\xbc\x89>'
p370
tp371
Rp372
tp373
a(S'niht'
p374
S'background'
p375
I3
I590
g5
(g9
S'\x96H\xcf\x93\x17\xf0\n@'
p376
tp377
Rp378
tp379
a(S'iht'
p380
g375
I3
I590
g5
(g9
S'6\x01\xd8\xbb\xa8*\t@'
p381
tp382
Rp383
tp384
a(S'sto-iht'
p385
g375
I3
I590
g5
(g9
S't\xbe\x86\x90\x98 \x10@'
p386
tp387
Rp388
tp389
a(S'cosamp'
p390
g375
I3
I590
g5
(g9
S'\xbbuZ\xf67R\x0b@'
p391
tp392
Rp393
tp394
a(S'graph-iht'
p395
g375
I3
I590
g5
(g9
S'\xfd\xfe\x861*\x91\x05@'
p396
tp397
Rp398
tp399
a(S'graph-cosamp'
p400
S'background'
p401
I3
I590
g5
(g9
S'\xa2\x91\x81\x88\x12Z\xfb?'
p402
tp403
Rp404
tp405
a(S'graph-sto-iht'
p406
g401
I3
I590
g5
(g9
S'H\x01\xd9\xef\xc3>\x8b>'
p407
tp408
Rp409
tp410
a(S'niht'
p411
g401
I3
I613
g5
(g9
S'4\xa2\x95j\xfc\xd2\x07@'
p412
tp413
Rp414
tp415
a(S'iht'
p416
g401
I3
I613
g5
(g9
S'{o\xa64\x1b\x04\x0b@'
p417
tp418
Rp419
tp420
a(S'sto-iht'
p421
g401
I3
I613
g5
(g9
S'\x8c\x10A^~\xa7\x0e@'
p422
tp423
Rp424
tp425
a(S'cosamp'
p426
S'background'
p427
I3
I613
g5
(g9
S'H\x99\x99\xac\xd6#\x11@'
p428
tp429
Rp430
tp431
a(S'graph-iht'
p432
g427
I3
I613
g5
(g9
S'\\\x0f\xdf1\xfd\xb4\x04@'
p433
tp434
Rp435
tp436
a(S'graph-cosamp'
p437
g427
I3
I613
g5
(g9
S'\xb3`B(\x9e\x05\x1a@'
p438
tp439
Rp440
tp441
a(S'graph-sto-iht'
p442
g427
I3
I613
g5
(g9
S'\x84!\xe7\xeaM\x8f\x87>'
p443
tp444
Rp445
tp446
a(S'niht'
p447
g427
I3
I637
g5
(g9
S'\xb1\xf4\x06\xa8\xb0\xc7\n@'
p448
tp449
Rp450
tp451
a(S'iht'
p452
S'background'
p453
I3
I637
g5
(g9
S'9\xa0\xba\x0b\t|\t@'
p454
tp455
Rp456
tp457
a(S'sto-iht'
p458
g453
I3
I637
g5
(g9
S'\x87\xd1\xd9g,=\x0f@'
p459
tp460
Rp461
tp462
a(S'cosamp'
p463
g453
I3
I637
g5
(g9
S'w\xc5\xe8\x1cP\x0b)@'
p464
tp465
Rp466
tp467
a(S'graph-iht'
p468
g453
I3
I637
g5
(g9
S'\x9c\x06_v\xf4\xa6\x03@'
p469
tp470
Rp471
tp472
a(S'graph-cosamp'
p473
g453
I3
I637
g5
(g9
S'\xb3}G\xbb/\xf26@'
p474
tp475
Rp476
tp477
a(S'graph-sto-iht'
p478
S'background'
p479
I3
I637
g5
(g9
S'y\x14\xd8\xd6%\xfe\x8b>'
p480
tp481
Rp482
tp483
a(S'niht'
p484
g479
I3
I660
g5
(g9
S'\xc8\x01\x16\x8e\xcf\xd3\x06@'
p485
tp486
Rp487
tp488
a(S'iht'
p489
g479
I3
I660
g5
(g9
S'\\7\xa1\x87^|\x00@'
p490
tp491
Rp492
tp493
a(S'sto-iht'
p494
g479
I3
I660
g5
(g9
S'\x90\xc5pD\x073\t@'
p495
tp496
Rp497
tp498
a(S'cosamp'
p499
g479
I3
I660
g5
(g9
S'\xcf\xdfQR\xebU\xf2@'
p500
tp501
Rp502
tp503
a(S'graph-iht'
p504
S'background'
p505
I3
I660
g5
(g9
S'\x90\x9b \xa2\x1aT\x03@'
p506
tp507
Rp508
tp509
a(S'graph-cosamp'
p510
g505
I3
I660
g5
(g9
S'\xf0vz\xbeF\xa3)@'
p511
tp512
Rp513
tp514
a(S'graph-sto-iht'
p515
g505
I3
I660
g5
(g9
S'\xfb_\xda\xb4\xfe\x83\x8b>'
p516
tp517
Rp518
tp519
a(S'niht'
p520
g505
I3
I684
g5
(g9
S'b\x94\xa3\x8cX\x1a\x05@'
p521
tp522
Rp523
tp524
a(S'iht'
p525
g505
I3
I684
g5
(g9
S'\xc2!#\x01\xbc1\x02@'
p526
tp527
Rp528
tp529
a(S'sto-iht'
p530
S'background'
p531
I3
I684
g5
(g9
S"S\x9190'\x08\x07@"
p532
tp533
Rp534
tp535
a(S'cosamp'
p536
g531
I3
I684
g5
(g9
S'\xc1\x94`\xc9\xeb\xa6#@'
p537
tp538
Rp539
tp540
a(S'graph-iht'
p541
g531
I3
I684
g5
(g9
S'\xd8\xe1U\x11\xca\x88\x00@'
p542
tp543
Rp544
tp545
a(S'graph-cosamp'
p546
g531
I3
I684
g5
(g9
S'z\xd8l\x92\x11\x87\x0f='
p547
tp548
Rp549
tp550
a(S'graph-sto-iht'
p551
g531
I3
I684
g5
(g9
S'\xc6\xa7\xf8\xed\xa5\xb9\x86>'
p552
tp553
Rp554
tp555
a(S'niht'
p556
S'background'
p557
I3
I708
g5
(g9
S'\x01Nz*U\xe3\x89>'
p558
tp559
Rp560
tp561
a(S'iht'
p562
g557
I3
I708
g5
(g9
S'\x1b\x89\xbaj\x1b5\x8c>'
p563
tp564
Rp565
tp566
a(S'sto-iht'
p567
g557
I3
I708
g5
(g9
S'B\xdb\xe1\xe2\x00V\x04@'
p568
tp569
Rp570
tp571
a(S'cosamp'
p572
g557
I3
I708
g5
(g9
S'<(\xa2\xc0<\x81\x1d@'
p573
tp574
Rp575
tp576
a(S'graph-iht'
p577
g557
I3
I708
g5
(g9
S'\x1a\x12\x8c\xbc~\xbb\x8b>'
p578
tp579
Rp580
tp581
a(S'graph-cosamp'
p582
S'background'
p583
I3
I708
g5
(g9
S'\xfev\x9b\x8eZ\x94\x13='
p584
tp585
Rp586
tp587
a(S'graph-sto-iht'
p588
g583
I3
I708
g5
(g9
S'\xc4\x81\xfb\x96f\xce\x87>'
p589
tp590
Rp591
tp592
a(S'niht'
p593
g583
I3
I731
g5
(g9
S' \xaa\xce\xaf\x80\xe9\x8b>'
p594
tp595
Rp596
tp597
a(S'iht'
p598
g583
I3
I731
g5
(g9
S'ii\x19\x9ez\x86\x8c>'
p599
tp600
Rp601
tp602
a(S'sto-iht'
p603
g583
I3
I731
g5
(g9
S'QQ\xf2\xb5\xe6\xbc\x82>'
p604
tp605
Rp606
tp607
a(S'cosamp'
p608
S'background'
p609
I3
I731
g5
(g9
S'\xe8IFo\x03\xd5\x10='
p610
tp611
Rp612
tp613
a(S'graph-iht'
p614
g609
I3
I731
g5
(g9
S'\xc8\x83\xfe\xbd5\x9f\x88>'
p615
tp616
Rp617
tp618
a(S'graph-cosamp'
p619
g609
I3
I731
g5
(g9
S'p\x9f\xc5\x0bk\xfa\x11='
p620
tp621
Rp622
tp623
a(S'graph-sto-iht'
p624
g609
I3
I731
g5
(g9
S'\xac\xdf\x14M\xf7f\x86>'
p625
tp626
Rp627
tp628
a(S'niht'
p629
g609
I3
I755
g5
(g9
S'/_3\xce\x0b\xa7\x88>'
p630
tp631
Rp632
tp633
a(S'iht'
p634
S'background'
p635
I3
I755
g5
(g9
S'}\xc4H\xd5b\x96\x8b>'
p636
tp637
Rp638
tp639
a(S'sto-iht'
p640
g635
I3
I755
g5
(g9
S'\xd2\x7f\x8a\x05\x80\x01\x86>'
p641
tp642
Rp643
tp644
a(S'cosamp'
p645
g635
I3
I755
g5
(g9
S'\xbd\xc4\xad\x16\xc4\xca\x0c='
p646
tp647
Rp648
tp649
a(S'graph-iht'
p650
g635
I3
I755
g5
(g9
S'\xfel\xecqz\xc5\x87>'
p651
tp652
Rp653
tp654
a(S'graph-cosamp'
p655
g635
I3
I755
g5
(g9
S'\xb8\xacB\xce\xe4Y\x10='
p656
tp657
Rp658
tp659
a(S'graph-sto-iht'
p660
S'background'
p661
I3
I755
g5
(g9
S':\xb9\xd2\xa9K\x98\x83>'
p662
tp663
Rp664
tp665
a(S'niht'
p666
g661
I3
I778
g5
(g9
S'\xb9\x07& \xdf\x97\x8a>'
p667
tp668
Rp669
tp670
a(S'iht'
p671
g661
I3
I778
g5
(g9
S'!q\xb9K\xc5\xf7\x8b>'
p672
tp673
Rp674
tp675
a(S'sto-iht'
p676
g661
I3
I778
g5
(g9
S'\t\xcf\x169\x1a\xd6\x82>'
p677
tp678
Rp679
tp680
a(S'cosamp'
p681
g661
I3
I778
g5
(g9
S'\xac;\xf3\xa8\xc9 \x0f='
p682
tp683
Rp684
tp685
a(S'graph-iht'
p686
S'background'
p687
I3
I778
g5
(g9
S'\xcd\xb7a\xbc,\xd8\x86>'
p688
tp689
Rp690
tp691
a(S'graph-cosamp'
p692
g687
I3
I778
g5
(g9
S'\x1b\xfaqQK\x0e\x0c='
p693
tp694
Rp695
tp696
a(S'graph-sto-iht'
p697
g687
I3
I778
g5
(g9
S'/\xdf\xd4*\x11\xec\x88>'
p698
tp699
Rp700
tp701
a(S'niht'
p702
g687
I3
I802
g5
(g9
S'\x18XhY\xa7N\x8a>'
p703
tp704
Rp705
tp706
a(S'iht'
p707
g687
I3
I802
g5
(g9
S'\xd9\xb4\x9a\xb6P\xc6\x89>'
p708
tp709
Rp710
tp711
a(S'sto-iht'
p712
S'background'
p713
I3
I802
g5
(g9
S'\xa8C\xa4\xf4t\x9d\x84>'
p714
tp715
Rp716
tp717
a(S'cosamp'
p718
g713
I3
I802
g5
(g9
S'MgV\x13,\n\x0c='
p719
tp720
Rp721
tp722
a(S'graph-iht'
p723
g713
I3
I802
g5
(g9
S'>\x19F%\xfc\xca\x88>'
p724
tp725
Rp726
tp727
a(S'graph-cosamp'
p728
g713
I3
I802
g5
(g9
S'`9NR|[\x0c='
p729
tp730
Rp731
tp732
a(S'graph-sto-iht'
p733
g713
I3
I802
g5
(g9
S'k\xf8\xe1F\xa7\xc3\x85>'
p734
tp735
Rp736
tp737
a(S'niht'
p738
S'background'
p739
I3
I826
g5
(g9
S'T\xf3DM2\x85\x89>'
p740
tp741
Rp742
tp743
a(S'iht'
p744
g739
I3
I826
g5
(g9
S'\xb1HE\x0b\xff\x93\x8a>'
p745
tp746
Rp747
tp748
a(S'sto-iht'
p749
g739
I3
I826
g5
(g9
S'D\xd6\xd0[\xc5l\x80>'
p750
tp751
Rp752
tp753
a(S'cosamp'
p754
g739
I3
I826
g5
(g9
S'~\xe6\xe1>\x82\xf3\x08='
p755
tp756
Rp757
tp758
a(S'graph-iht'
p759
g739
I3
I826
g5
(g9
S'\xa0\xe6\\o[C\x89>'
p760
tp761
Rp762
tp763
a(S'graph-cosamp'
p764
S'background'
p765
I3
I826
g5
(g9
S'\xe5"\xd3X\x80\xd4\x0b='
p766
tp767
Rp768
tp769
a(S'graph-sto-iht'
p770
g765
I3
I826
g5
(g9
S'\x12\x02\xad:\x0c\xfc\x87>'
p771
tp772
Rp773
tp774
a(S'niht'
p775
S'angio'
p776
I3
I573
g5
(g9
S'\x91\x814\xaf\xfd\xe8\x0f@'
p777
tp778
Rp779
tp780
a(S'iht'
p781
g776
I3
I573
g5
(g9
S'`(bA\xf8S\x0e@'
p782
tp783
Rp784
tp785
a(S'sto-iht'
p786
g776
I3
I573
g5
(g9
S'u#*\x04\xf5G\x13@'
p787
tp788
Rp789
tp790
a(S'cosamp'
p791
S'angio'
p792
I3
I573
g5
(g9
S'\x8e\xf2\x9f\xef\xb0>\x0f@'
p793
tp794
Rp795
tp796
a(S'graph-iht'
p797
g792
I3
I573
g5
(g9
S'\x93#F\x89\xbdM\x08@'
p798
tp799
Rp800
tp801
a(S'graph-cosamp'
p802
g792
I3
I573
g5
(g9
S'\x1e"\x07\'\x90\xb6\x0c@'
p803
tp804
Rp805
tp806
a(S'graph-sto-iht'
p807
g792
I3
I573
g5
(g9
S'C0\xbey\xad\xf0\x13@'
p808
tp809
Rp810
tp811
a(S'niht'
p812
g792
I3
I611
g5
(g9
S'\xd5\xf6\xdf\xa7\xe1\xe7\x0c@'
p813
tp814
Rp815
tp816
a(S'iht'
p817
S'angio'
p818
I3
I611
g5
(g9
S'\xc7\x05\x9c\x1b\x12\x9b\x0e@'
p819
tp820
Rp821
tp822
a(S'sto-iht'
p823
g818
I3
I611
g5
(g9
S'k2\\f0\xaa\x12@'
p824
tp825
Rp826
tp827
a(S'cosamp'
p828
g818
I3
I611
g5
(g9
S'4<\xdaN\xfe\xcb\x0e@'
p829
tp830
Rp831
tp832
a(S'graph-iht'
p833
g818
I3
I611
g5
(g9
S'\xb6\xb0\xca\x14b>\x07@'
p834
tp835
Rp836
tp837
a(S'graph-cosamp'
p838
g818
I3
I611
g5
(g9
S';\xa2\x84\xdd\x1c\xfd\x0b@'
p839
tp840
Rp841
tp842
a(S'graph-sto-iht'
p843
S'angio'
p844
I3
I611
g5
(g9
S'\x97;q\xfdh\x8b\n@'
p845
tp846
Rp847
tp848
a(S'niht'
p849
g844
I3
I649
g5
(g9
S'[\x82\xc5\xfd\x0b\xd1\x0c@'
p850
tp851
Rp852
tp853
a(S'iht'
p854
g844
I3
I649
g5
(g9
S'Bc\xb0\xee2\xa6\x0c@'
p855
tp856
Rp857
tp858
a(S'sto-iht'
p859
g844
I3
I649
g5
(g9
S'!O\xcf\xdab\xd1\x10@'
p860
tp861
Rp862
tp863
a(S'cosamp'
p864
g844
I3
I649
g5
(g9
S'\x86\xc8N\x9bn\x10\x0e@'
p865
tp866
Rp867
tp868
a(S'graph-iht'
p869
S'angio'
p870
I3
I649
g5
(g9
S'\xcc\xea\x1e\x16\x10O\x04@'
p871
tp872
Rp873
tp874
a(S'graph-cosamp'
p875
g870
I3
I649
g5
(g9
S'\xe8+\x18\xe2\xe42\x0b@'
p876
tp877
Rp878
tp879
a(S'graph-sto-iht'
p880
g870
I3
I649
g5
(g9
S'\x7fj,\xda\x8d]\n@'
p881
tp882
Rp883
tp884
a(S'niht'
p885
g870
I3
I687
g5
(g9
S'Goi\xabv \x0c@'
p886
tp887
Rp888
tp889
a(S'iht'
p890
g870
I3
I687
g5
(g9
S'\x11\xd1\xc3|\x7f%\n@'
p891
tp892
Rp893
tp894
a(S'sto-iht'
p895
S'angio'
p896
I3
I687
g5
(g9
S'\xd0\xc5z\xef2\n\x10@'
p897
tp898
Rp899
tp900
a(S'cosamp'
p901
g896
I3
I687
g5
(g9
S'aB\x83u\x14I\r@'
p902
tp903
Rp904
tp905
a(S'graph-iht'
p906
g896
I3
I687
g5
(g9
S'3\x0c*\xe0\x04\x00\x06@'
p907
tp908
Rp909
tp910
a(S'graph-cosamp'
p911
g896
I3
I687
g5
(g9
S'\xa9\xca|\xd2\xf9\x84\n@'
p912
tp913
Rp914
tp915
a(S'graph-sto-iht'
p916
g896
I3
I687
g5
(g9
S'\x92\xcc\xe7\x82\x1c\xf3\x04@'
p917
tp918
Rp919
tp920
a(S'niht'
p921
S'angio'
p922
I3
I725
g5
(g9
S'\xc7\\\xc5\x83=\xb8\x08@'
p923
tp924
Rp925
tp926
a(S'iht'
p927
g922
I3
I725
g5
(g9
S'\xb09\\y&o\n@'
p928
tp929
Rp930
tp931
a(S'sto-iht'
p932
g922
I3
I725
g5
(g9
S'\x11\x15\xd6\xd6\x90I\x0b@'
p933
tp934
Rp935
tp936
a(S'cosamp'
p937
g922
I3
I725
g5
(g9
S'\xf5Do\xbb!\x11\r@'
p938
tp939
Rp940
tp941
a(S'graph-iht'
p942
g922
I3
I725
g5
(g9
S"'>{\xaa\x91\x1c\x05@"
p943
tp944
Rp945
tp946
a(S'graph-cosamp'
p947
S'angio'
p948
I3
I725
g5
(g9
S'T\xc5\x8eL\x98/\n@'
p949
tp950
Rp951
tp952
a(S'graph-sto-iht'
p953
g948
I3
I725
g5
(g9
S'\x90;R\x0fM\x13\x91>'
p954
tp955
Rp956
tp957
a(S'niht'
p958
g948
I3
I764
g5
(g9
S'\xd0\x0e\x82\x95\xa1\xc7\x06@'
p959
tp960
Rp961
tp962
a(S'iht'
p963
g948
I3
I764
g5
(g9
S'\x17\xc6\xcb\xa3\xfc>\x08@'
p964
tp965
Rp966
tp967
a(S'sto-iht'
p968
g948
I3
I764
g5
(g9
S'\x99\xa93\x0fE\xbb\x0e@'
p969
tp970
Rp971
tp972
a(S'cosamp'
p973
S'angio'
p974
I3
I764
g5
(g9
S'\x07\xc0\x1c\x0f\xd8/\x0b@'
p975
tp976
Rp977
tp978
a(S'graph-iht'
p979
g974
I3
I764
g5
(g9
S'\xc5DyQ\x9f\xbd\x05@'
p980
tp981
Rp982
tp983
a(S'graph-cosamp'
p984
g974
I3
I764
g5
(g9
S"'\xb8R\xecg%\x08@"
p985
tp986
Rp987
tp988
a(S'graph-sto-iht'
p989
g974
I3
I764
g5
(g9
S'\xd8b\n\xf5\xed\x1e\x8e>'
p990
tp991
Rp992
tp993
a(S'niht'
p994
g974
I3
I802
g5
(g9
S'p\x15\x9f\x08\xbb\xcd\x05@'
p995
tp996
Rp997
tp998
a(S'iht'
p999
S'angio'
p1000
I3
I802
g5
(g9
S'w\xa4F\xf8\x0fH\x07@'
p1001
tp1002
Rp1003
tp1004
a(S'sto-iht'
p1005
g1000
I3
I802
g5
(g9
S'\xc1.\x93+\x8cL\t@'
p1006
tp1007
Rp1008
tp1009
a(S'cosamp'
p1010
g1000
I3
I802
g5
(g9
S'\xa9\x17;\x9b\xab\xa8\n@'
p1011
tp1012
Rp1013
tp1014
a(S'graph-iht'
p1015
g1000
I3
I802
g5
(g9
S'\xef\xf4\xe73,\x12\x04@'
p1016
tp1017
Rp1018
tp1019
a(S'graph-cosamp'
p1020
g1000
I3
I802
g5
(g9
S'jd>\xed\x1c\xba\x07@'
p1021
tp1022
Rp1023
tp1024
a(S'graph-sto-iht'
p1025
S'angio'
p1026
I3
I802
g5
(g9
S'.c\xaeS\x03\xcb\x90>'
p1027
tp1028
Rp1029
tp1030
a(S'niht'
p1031
g1026
I3
I840
g5
(g9
S'@D\xc1J\xc3\x14\x07@'
p1032
tp1033
Rp1034
tp1035
a(S'iht'
p1036
g1026
I3
I840
g5
(g9
S'Wq\xb9J9\xd6\x02@'
p1037
tp1038
Rp1039
tp1040
a(S'sto-iht'
p1041
g1026
I3
I840
g5
(g9
S'\x0e\x14\xa8\xc6\xc8\xba\x06@'
p1042
tp1043
Rp1044
tp1045
a(S'cosamp'
p1046
g1026
I3
I840
g5
(g9
S'a\xf2 \xde3\xfc\t@'
p1047
tp1048
Rp1049
tp1050
a(S'graph-iht'
p1051
S'angio'
p1052
I3
I840
g5
(g9
S'qaR\x93\xf9Z\x01@'
p1053
tp1054
Rp1055
tp1056
a(S'graph-cosamp'
p1057
g1052
I3
I840
g5
(g9
S'#q[N<e\x05@'
p1058
tp1059
Rp1060
tp1061
a(S'graph-sto-iht'
p1062
g1052
I3
I840
g5
(g9
S'/a\x18lX\xf5\x8c>'
p1063
tp1064
Rp1065
tp1066
a(S'niht'
p1067
g1052
I3
I878
g5
(g9
S'$\xe5.\x88\x11\xa5\x02@'
p1068
tp1069
Rp1070
tp1071
a(S'iht'
p1072
g1052
I3
I878
g5
(g9
S'hJ\x02j\x03\xaa\x01@'
p1073
tp1074
Rp1075
tp1076
a(S'sto-iht'
p1077
S'angio'
p1078
I3
I878
g5
(g9
S'\xa9\xb0\xd7\xf4/d\x08@'
p1079
tp1080
Rp1081
tp1082
a(S'cosamp'
p1083
g1078
I3
I878
g5
(g9
S'\xfb\xf2\xe9\xf8\xd8\x8f\t@'
p1084
tp1085
Rp1086
tp1087
a(S'graph-iht'
p1088
g1078
I3
I878
g5
(g9
S'=\x988r\x1dz\x01@'
p1089
tp1090
Rp1091
tp1092
a(S'graph-cosamp'
p1093
g1078
I3
I878
g5
(g9
S'M\x90\x06\x02\xc2D\x03@'
p1094
tp1095
Rp1096
tp1097
a(S'graph-sto-iht'
p1098
g1078
I3
I878
g5
(g9
S'\xe1\xf4WT\xfe\xfe\x8d>'
p1099
tp1100
Rp1101
tp1102
a(S'niht'
p1103
S'angio'
p1104
I3
I916
g5
(g9
S'@\xab\r\xa4\x0f\xb9\x01@'
p1105
tp1106
Rp1107
tp1108
a(S'iht'
p1109
g1104
I3
I916
g5
(g9
S'\xcfr\x80|\x90E\x00@'
p1110
tp1111
Rp1112
tp1113
a(S'sto-iht'
p1114
g1104
I3
I916
g5
(g9
S'\xdb\xd1\xac\xdd\xea\x8d\xf9?'
p1115
tp1116
Rp1117
tp1118
a(S'cosamp'
p1119
g1104
I3
I916
g5
(g9
S'\x9bO\xd73&\xa5\x07@'
p1120
tp1121
Rp1122
tp1123
a(S'graph-iht'
p1124
g1104
I3
I916
g5
(g9
S'\xe0vH\xaeAk\xfc?'
p1125
tp1126
Rp1127
tp1128
a(S'graph-cosamp'
p1129
S'angio'
p1130
I3
I916
g5
(g9
S'\r\x8b1\x04\xd8Y\x01@'
p1131
tp1132
Rp1133
tp1134
a(S'graph-sto-iht'
p1135
g1130
I3
I916
g5
(g9
S'\xb1}5\xb0l\xf1\x8c>'
p1136
tp1137
Rp1138
tp1139
a(S'niht'
p1140
g1130
I3
I955
g5
(g9
S":'\xb6$(y\x00@"
p1141
tp1142
Rp1143
tp1144
a(S'iht'
p1145
g1130
I3
I955
g5
(g9
S'\x9b\x10>8$\xe6\x00@'
p1146
tp1147
Rp1148
tp1149
a(S'sto-iht'
p1150
g1130
I3
I955
g5
(g9
S'$\xb53@g7\x8e>'
p1151
tp1152
Rp1153
tp1154
a(S'cosamp'
p1155
S'angio'
p1156
I3
I955
g5
(g9
S'\x04:\xc9m]\xb2\x04@'
p1157
tp1158
Rp1159
tp1160
a(S'graph-iht'
p1161
g1156
I3
I955
g5
(g9
S'>\x8dL\x9a\x05=\x01@'
p1162
tp1163
Rp1164
tp1165
a(S'graph-cosamp'
p1166
g1156
I3
I955
g5
(g9
S'\xa1\xfd\x16\\h\x1a\xf9?'
p1167
tp1168
Rp1169
tp1170
a(S'graph-sto-iht'
p1171
g1156
I3
I955
g5
(g9
S';e{\xa5`2\x8d>'
p1172
tp1173
Rp1174
tp1175
a(S'niht'
p1176
g1156
I3
I993
g5
(g9
S']\xda\xbfu\x82\xb7\x8b>'
p1177
tp1178
Rp1179
tp1180
a(S'iht'
p1181
S'angio'
p1182
I3
I993
g5
(g9
S'_\xe1\xab\xd4\x86\x1f\xc2?'
p1183
tp1184
Rp1185
tp1186
a(S'sto-iht'
p1187
g1182
I3
I993
g5
(g9
S'`*\xd0\xb2>h\x87>'
p1188
tp1189
Rp1190
tp1191
a(S'cosamp'
p1192
g1182
I3
I993
g5
(g9
S'\xcd\xce$\x8cD)\x1a@'
p1193
tp1194
Rp1195
tp1196
a(S'graph-iht'
p1197
g1182
I3
I993
g5
(g9
S'\x057\xacD\xdf{\xfa?'
p1198
tp1199
Rp1200
tp1201
a(S'graph-cosamp'
p1202
g1182
I3
I993
g5
(g9
S'\xd9\xd2kR\x92\xbf\xc1@'
p1203
tp1204
Rp1205
tp1206
a(S'graph-sto-iht'
p1207
S'angio'
p1208
I3
I993
g5
(g9
S'\xeec\xb5\x16\x0c\xc8\x8d>'
p1209
tp1210
Rp1211
tp1212
a(S'niht'
p1213
g1208
I3
I1031
g5
(g9
S'\xac\xd7\xa8\x81B\xd4\x8f>'
p1214
tp1215
Rp1216
tp1217
a(S'iht'
p1218
g1208
I3
I1031
g5
(g9
S'J\x1f+\xf6\xa4\r\xe1>'
p1219
tp1220
Rp1221
tp1222
a(S'sto-iht'
p1223
g1208
I3
I1031
g5
(g9
S'\xb3\x9c;\xb5[\xeb\x8c>'
p1224
tp1225
Rp1226
tp1227
a(S'cosamp'
p1228
g1208
I3
I1031
g5
(g9
S'\x14\xc6n\xa86\x84\x92@'
p1229
tp1230
Rp1231
tp1232
a(S'graph-iht'
p1233
S'angio'
p1234
I3
I1031
g5
(g9
S'b\x9b.Ded\x02@'
p1235
tp1236
Rp1237
tp1238
a(S'graph-cosamp'
p1239
g1234
I3
I1031
g5
(g9
S'\xc4\x12\xf0\xc1\x97h,@'
p1240
tp1241
Rp1242
tp1243
a(S'graph-sto-iht'
p1244
g1234
I3
I1031
g5
(g9
S'\xe6\x8e5E\xafA\x8c>'
p1245
tp1246
Rp1247
tp1248
a(S'niht'
p1249
g1234
I3
I1069
g5
(g9
S'8\xe0\xcc\x1a\xab\x08\x84>'
p1250
tp1251
Rp1252
tp1253
a(S'iht'
p1254
g1234
I3
I1069
g5
(g9
S'\x97\xef6\xbb<\x08\x8f>'
p1255
tp1256
Rp1257
tp1258
a(S'sto-iht'
p1259
S'angio'
p1260
I3
I1069
g5
(g9
S'\x8c\x88\xfc,\xe7\xaf\x8a>'
p1261
tp1262
Rp1263
tp1264
a(S'cosamp'
p1265
g1260
I3
I1069
g5
(g9
S'\xa0K_\xfd%\x82(@'
p1266
tp1267
Rp1268
tp1269
a(S'graph-iht'
p1270
g1260
I3
I1069
g5
(g9
S'\x881\xd8\x9eF\x08\xf0?'
p1271
tp1272
Rp1273
tp1274
a(S'graph-cosamp'
p1275
g1260
I3
I1069
g5
(g9
S"e\xffU'U\xb7\x14="
p1276
tp1277
Rp1278
tp1279
a(S'graph-sto-iht'
p1280
g1260
I3
I1069
g5
(g9
S'J\xd7\x81\xa6\x824\x8d>'
p1281
tp1282
Rp1283
tp1284
a(S'niht'
p1285
S'angio'
p1286
I3
I1107
g5
(g9
S'5:\x14o\x90\xa6\x86>'
p1287
tp1288
Rp1289
tp1290
a(S'iht'
p1291
g1286
I3
I1107
g5
(g9
S'r\xf5\xcfo\x0f\xaa\x8e>'
p1292
tp1293
Rp1294
tp1295
a(S'sto-iht'
p1296
g1286
I3
I1107
g5
(g9
S'9\xdc\xaf\x14\xb9\xfc\x85>'
p1297
tp1298
Rp1299
tp1300
a(S'cosamp'
p1301
g1286
I3
I1107
g5
(g9
S'\x9bvB\xa8\xc92\x16='
p1302
tp1303
Rp1304
tp1305
a(S'graph-iht'
p1306
g1286
I3
I1107
g5
(g9
S'G%\xdf\x96\xaa\xf3\xf6?'
p1307
tp1308
Rp1309
tp1310
a(S'graph-cosamp'
p1311
S'angio'
p1312
I3
I1107
g5
(g9
S'\x93F\x8d:4t\x16='
p1313
tp1314
Rp1315
tp1316
a(S'graph-sto-iht'
p1317
g1312
I3
I1107
g5
(g9
S'\x84i\xac\xdd3P\x8a>'
p1318
tp1319
Rp1320
tp1321
a(S'niht'
p1322
g1312
I3
I1146
g5
(g9
S'<\xdc\xc2\x99>\xd6\x8b>'
p1323
tp1324
Rp1325
tp1326
a(S'iht'
p1327
g1312
I3
I1146
g5
(g9
S'\xd1\x1a\xf7Y\rA\x8e>'
p1328
tp1329
Rp1330
tp1331
a(S'sto-iht'
p1332
g1312
I3
I1146
g5
(g9
S'k\xc0\x13\x8b\x1bf\x8a>'
p1333
tp1334
Rp1335
tp1336
a(S'cosamp'
p1337
S'angio'
p1338
I3
I1146
g5
(g9
S':\x85\x93\x8e\xa7\xde\x14='
p1339
tp1340
Rp1341
tp1342
a(S'graph-iht'
p1343
g1338
I3
I1146
g5
(g9
S'j\x184\x81u\x1e\x8c>'
p1344
tp1345
Rp1346
tp1347
a(S'graph-cosamp'
p1348
g1338
I3
I1146
g5
(g9
S'\xe7\x9f@J)\xb8\x15='
p1349
tp1350
Rp1351
tp1352
a(S'graph-sto-iht'
p1353
g1338
I3
I1146
g5
(g9
S'\xa3\xebZ\x8dX7\x86>'
p1354
tp1355
Rp1356
tp1357
a(S'niht'
p1358
g1338
I3
I1184
g5
(g9
S'\x883\xf3V\xf3\xd1\x8b>'
p1359
tp1360
Rp1361
tp1362
a(S'iht'
p1363
S'angio'
p1364
I3
I1184
g5
(g9
S"\xc5\xdb:'\xc4b\x8c>"
p1365
tp1366
Rp1367
tp1368
a(S'sto-iht'
p1369
g1364
I3
I1184
g5
(g9
S'.2\x15^\xba\xac\x88>'
p1370
tp1371
Rp1372
tp1373
a(S'cosamp'
p1374
g1364
I3
I1184
g5
(g9
S'g\xa1rBE\xb9\x11='
p1375
tp1376
Rp1377
tp1378
a(S'graph-iht'
p1379
g1364
I3
I1184
g5
(g9
S'v`GC\xb3\xd2\x8b>'
p1380
tp1381
Rp1382
tp1383
a(S'graph-cosamp'
p1384
g1364
I3
I1184
g5
(g9
S'X_\x05\x02\x07\xc4\x11='
p1385
tp1386
Rp1387
tp1388
a(S'graph-sto-iht'
p1389
S'angio'
p1390
I3
I1184
g5
(g9
S'\x867\x99\x8e,\xb1\x87>'
p1391
tp1392
Rp1393
tp1394
a(S'niht'
p1395
g1390
I3
I1222
g5
(g9
S'd\xd9\x14`\xfd\x91\x88>'
p1396
tp1397
Rp1398
tp1399
a(S'iht'
p1400
g1390
I3
I1222
g5
(g9
S'\xdf2"\x8d\x1ff\x8c>'
p1401
tp1402
Rp1403
tp1404
a(S'sto-iht'
p1405
g1390
I3
I1222
g5
(g9
S'%\xeel^\x0c9\x85>'
p1406
tp1407
Rp1408
tp1409
a(S'cosamp'
p1410
g1390
I3
I1222
g5
(g9
S'-\x9d\x84\xa4.\n\x12='
p1411
tp1412
Rp1413
tp1414
a(S'graph-iht'
p1415
S'angio'
p1416
I3
I1222
g5
(g9
S'f\xdd\xe2\xea\xa0D\x8a>'
p1417
tp1418
Rp1419
tp1420
a(S'graph-cosamp'
p1421
g1416
I3
I1222
g5
(g9
S'\x8f5\x95\x9c\x9b\xbe\x12='
p1422
tp1423
Rp1424
tp1425
a(S'graph-sto-iht'
p1426
g1416
I3
I1222
g5
(g9
S'j\x05\x91oa\x1e\x85>'
p1427
tp1428
Rp1429
tp1430
a(S'niht'
p1431
g1416
I3
I1260
g5
(g9
S'\xdc\x8a)}B\xf5\x8a>'
p1432
tp1433
Rp1434
tp1435
a(S'iht'
p1436
g1416
I3
I1260
g5
(g9
S'i)5\xc2\x8a\xe9\x8a>'
p1437
tp1438
Rp1439
tp1440
a(S'sto-iht'
p1441
S'angio'
p1442
I3
I1260
g5
(g9
S'\xad\xa1z0\x9a\x8f\x83>'
p1443
tp1444
Rp1445
tp1446
a(S'cosamp'
p1447
g1442
I3
I1260
g5
(g9
S'^\xba\x8f{\x0e\x8a\x10='
p1448
tp1449
Rp1450
tp1451
a(S'graph-iht'
p1452
g1442
I3
I1260
g5
(g9
S'\x83\x04u\x19\xda\xd2\x88>'
p1453
tp1454
Rp1455
tp1456
a(S'graph-cosamp'
p1457
g1442
I3
I1260
g5
(g9
S'\xfck\xc5\xb7\xc9\xf5\x13='
p1458
tp1459
Rp1460
tp1461
a(S'graph-sto-iht'
p1462
g1442
I3
I1260
g5
(g9
S'\x12\xcd\x85\xa4\x97Z\x86>'
p1463
tp1464
Rp1465
tp1466
a(S'niht'
p1467
S'angio'
p1468
I3
I1298
g5
(g9
S'\x07J\n.\xa4m\x8a>'
p1469
tp1470
Rp1471
tp1472
a(S'iht'
p1473
g1468
I3
I1298
g5
(g9
S'EpJc\xddt\x8a>'
p1474
tp1475
Rp1476
tp1477
a(S'sto-iht'
p1478
g1468
I3
I1298
g5
(g9
S'p\xfc\xa8{Wl\x82>'
p1479
tp1480
Rp1481
tp1482
a(S'cosamp'
p1483
g1468
I3
I1298
g5
(g9
S'4\xf5l\xd2|X\x11='
p1484
tp1485
Rp1486
tp1487
a(S'graph-iht'
p1488
g1468
I3
I1298
g5
(g9
S'x\xbbt\xa9\x89z\x89>'
p1489
tp1490
Rp1491
tp1492
a(S'graph-cosamp'
p1493
S'angio'
p1494
I3
I1298
g5
(g9
S'\xec\xe9\xb0\xa4\xd3n\x11='
p1495
tp1496
Rp1497
tp1498
a(S'graph-sto-iht'
p1499
g1494
I3
I1298
g5
(g9
S'\x19\x14\xac$%K\x88>'
p1500
tp1501
Rp1502
tp1503
a(S'niht'
p1504
g1494
I3
I1337
g5
(g9
S'g|L\x1f=\xa5\x83>'
p1505
tp1506
Rp1507
tp1508
a(S'iht'
p1509
g1494
I3
I1337
g5
(g9
S'F\xc6\xdah\xab\xe1\x8a>'
p1510
tp1511
Rp1512
tp1513
a(S'sto-iht'
p1514
g1494
I3
I1337
g5
(g9
S'66p\x18\xfer\x85>'
p1515
tp1516
Rp1517
tp1518
a(S'cosamp'
p1519
S'angio'
p1520
I3
I1337
g5
(g9
S'\xe0\xff\xfc\xe6{\xa0\x0e='
p1521
tp1522
Rp1523
tp1524
a(S'graph-iht'
p1525
g1520
I3
I1337
g5
(g9
S'D2\xbd\xd4\xc9\xbc\x88>'
p1526
tp1527
Rp1528
tp1529
a(S'graph-cosamp'
p1530
g1520
I3
I1337
g5
(g9
S'?\xb1\xd0Zp\xe8\x10='
p1531
tp1532
Rp1533
tp1534
a(S'graph-sto-iht'
p1535
g1520
I3
I1337
g5
(g9
S'\xb74\xd0o?c\x89>'
p1536
tp1537
Rp1538
tp1539
a(S'niht'
p1540
S'icml'
p1541
I3
I616
g5
(g9
S"\xec$\xcdY*'\n@"
p1542
tp1543
Rp1544
tp1545
a(S'iht'
p1546
S'icml'
p1547
I3
I616
g5
(g9
S'g\x19\x99\xb3\xfe!\n@'
p1548
tp1549
Rp1550
tp1551
a(S'sto-iht'
p1552
g1547
I3
I616
g5
(g9
S'M\xf4\xfd]r\x86\x11@'
p1553
tp1554
Rp1555
tp1556
a(S'cosamp'
p1557
g1547
I3
I616
g5
(g9
S'\x9a\xd9\x1a\x08\xd1_\t@'
p1558
tp1559
Rp1560
tp1561
a(S'graph-iht'
p1562
g1547
I3
I616
g5
(g9
S'\x0c\x07%,\xbfF\x05@'
p1563
tp1564
Rp1565
tp1566
a(S'graph-cosamp'
p1567
g1547
I3
I616
g5
(g9
S'\x07\xa2LM\xefF\x07@'
p1568
tp1569
Rp1570
tp1571
a(S'graph-sto-iht'
p1572
S'icml'
p1573
I3
I616
g5
(g9
S'o\x94N\x7f\xc1S\r@'
p1574
tp1575
Rp1576
tp1577
a(S'niht'
p1578
g1573
I3
I657
g5
(g9
S'\xc0x\xa3\xaf\xe6\xf1\x08@'
p1579
tp1580
Rp1581
tp1582
a(S'iht'
p1583
g1573
I3
I657
g5
(g9
S'\x8d\xbd\x8b\x83\xbd\x1b\t@'
p1584
tp1585
Rp1586
tp1587
a(S'sto-iht'
p1588
g1573
I3
I657
g5
(g9
S'~\xa1\xca\x0e\xa9\x8b\x0f@'
p1589
tp1590
Rp1591
tp1592
a(S'cosamp'
p1593
g1573
I3
I657
g5
(g9
S'%\xf9\x9al\x96\xef\x08@'
p1594
tp1595
Rp1596
tp1597
a(S'graph-iht'
p1598
S'icml'
p1599
I3
I657
g5
(g9
S'\xe4\xb72\xbe\x83\x15\x04@'
p1600
tp1601
Rp1602
tp1603
a(S'graph-cosamp'
p1604
g1599
I3
I657
g5
(g9
S'r\x16\xbf\x9e\x93\x03\x07@'
p1605
tp1606
Rp1607
tp1608
a(S'graph-sto-iht'
p1609
g1599
I3
I657
g5
(g9
S'H\x18@de\xb7\x07@'
p1610
tp1611
Rp1612
tp1613
a(S'niht'
p1614
g1599
I3
I698
g5
(g9
S'\x99\xb1!\x0f\xf4\xc0\x06@'
p1615
tp1616
Rp1617
tp1618
a(S'iht'
p1619
g1599
I3
I698
g5
(g9
S'Y\xad?GX\xc0\x07@'
p1620
tp1621
Rp1622
tp1623
a(S'sto-iht'
p1624
S'icml'
p1625
I3
I698
g5
(g9
S'\xb1\xfd\xe0\xc6\xc1l\x0f@'
p1626
tp1627
Rp1628
tp1629
a(S'cosamp'
p1630
g1625
I3
I698
g5
(g9
S'\xc1\x1f\xcb\x7f\xa2\x93\x07@'
p1631
tp1632
Rp1633
tp1634
a(S'graph-iht'
p1635
g1625
I3
I698
g5
(g9
S'\xc7\x1c\x18\x18\xce\x93\x03@'
p1636
tp1637
Rp1638
tp1639
a(S'graph-cosamp'
p1640
g1625
I3
I698
g5
(g9
S'\x15\x92\x9e\xd9\x01\xe2\x05@'
p1641
tp1642
Rp1643
tp1644
a(S'graph-sto-iht'
p1645
g1625
I3
I698
g5
(g9
S'\xc2\x1c5\xe5 t\x00@'
p1646
tp1647
Rp1648
tp1649
a(S'niht'
p1650
S'icml'
p1651
I3
I739
g5
(g9
S'"\xef#\x1f\xcb*\x05@'
p1652
tp1653
Rp1654
tp1655
a(S'iht'
p1656
g1651
I3
I739
g5
(g9
S'\xd7=\xe0\xd5\xa7\x1f\x04@'
p1657
tp1658
Rp1659
tp1660
a(S'sto-iht'
p1661
g1651
I3
I739
g5
(g9
S')\x1d\x9bt\xf6\x13\r@'
p1662
tp1663
Rp1664
tp1665
a(S'cosamp'
p1666
g1651
I3
I739
g5
(g9
S'\x8c1+\xae9\x10\x07@'
p1667
tp1668
Rp1669
tp1670
a(S'graph-iht'
p1671
g1651
I3
I739
g5
(g9
S'ED\x01\x0e`\xdc\x01@'
p1672
tp1673
Rp1674
tp1675
a(S'graph-cosamp'
p1676
S'icml'
p1677
I3
I739
g5
(g9
S'y\x85\xdb\xe7B\xe1\x04@'
p1678
tp1679
Rp1680
tp1681
a(S'graph-sto-iht'
p1682
g1677
I3
I739
g5
(g9
S'\xbc\x17.\xbc+\x8c\x03@'
p1683
tp1684
Rp1685
tp1686
a(S'niht'
p1687
g1677
I3
I780
g5
(g9
S'\x1f\xb8:/\x85\xe6\x03@'
p1688
tp1689
Rp1690
tp1691
a(S'iht'
p1692
g1677
I3
I780
g5
(g9
S'\xeb\xca\xc9\x18q\xda\x02@'
p1693
tp1694
Rp1695
tp1696
a(S'sto-iht'
p1697
g1677
I3
I780
g5
(g9
S'\xca\x83\xeb\x8a\xef\x9c\t@'
p1698
tp1699
Rp1700
tp1701
a(S'cosamp'
p1702
S'icml'
p1703
I3
I780
g5
(g9
S'\x11h\xc1P^!\x06@'
p1704
tp1705
Rp1706
tp1707
a(S'graph-iht'
p1708
g1703
I3
I780
g5
(g9
S'3\x9709z\xb5\x00@'
p1709
tp1710
Rp1711
tp1712
a(S'graph-cosamp'
p1713
g1703
I3
I780
g5
(g9
S'\x03\x01\xa2\xd8\xfb\x8a\x03@'
p1714
tp1715
Rp1716
tp1717
a(S'graph-sto-iht'
p1718
g1703
I3
I780
g5
(g9
S'\x12*X\x7fb\xf6\xec?'
p1719
tp1720
Rp1721
tp1722
a(S'niht'
p1723
g1703
I3
I822
g5
(g9
S'\xc2\x97\x8d\xd5\x9f\xd4\x03@'
p1724
tp1725
Rp1726
tp1727
a(S'iht'
p1728
S'icml'
p1729
I3
I822
g5
(g9
S'\x14\x11_\x8b\x83\xcb\x02@'
p1730
tp1731
Rp1732
tp1733
a(S'sto-iht'
p1734
g1729
I3
I822
g5
(g9
S'\x03F\xa6\xa1dB\t@'
p1735
tp1736
Rp1737
tp1738
a(S'cosamp'
p1739
g1729
I3
I822
g5
(g9
S'r\xd1\x1d\xdf\xc7\xdf\x05@'
p1740
tp1741
Rp1742
tp1743
a(S'graph-iht'
p1744
g1729
I3
I822
g5
(g9
S'\x0b\r\x07\xe2\x85\xcb\xfc?'
p1745
tp1746
Rp1747
tp1748
a(S'graph-cosamp'
p1749
g1729
I3
I822
g5
(g9
S'\x89kT.\xfb$\x03@'
p1750
tp1751
Rp1752
tp1753
a(S'graph-sto-iht'
p1754
S'icml'
p1755
I3
I822
g5
(g9
S'\r\xb83\xdbD\x07\x92>'
p1756
tp1757
Rp1758
tp1759
a(S'niht'
p1760
g1755
I3
I863
g5
(g9
S'\x0e\x81\xa84L\x8a\x02@'
p1761
tp1762
Rp1763
tp1764
a(S'iht'
p1765
g1755
I3
I863
g5
(g9
S'\x8d$\xe6/\xf6\x84\x01@'
p1766
tp1767
Rp1768
tp1769
a(S'sto-iht'
p1770
g1755
I3
I863
g5
(g9
S'\xb2\xd6\xbb\xedg\x98\x05@'
p1771
tp1772
Rp1773
tp1774
a(S'cosamp'
p1775
g1755
I3
I863
g5
(g9
S'\x86\x11>\xd7\x13n\x05@'
p1776
tp1777
Rp1778
tp1779
a(S'graph-iht'
p1780
S'icml'
p1781
I3
I863
g5
(g9
S'\x94~lS\x10\xae\xfb?'
p1782
tp1783
Rp1784
tp1785
a(S'graph-cosamp'
p1786
g1781
I3
I863
g5
(g9
S'\x11\xe5^\x02\xbca\x02@'
p1787
tp1788
Rp1789
tp1790
a(S'graph-sto-iht'
p1791
g1781
I3
I863
g5
(g9
S'\xd3A\xe7\xda\xbc\xc8\x90>'
p1792
tp1793
Rp1794
tp1795
a(S'niht'
p1796
g1781
I3
I904
g5
(g9
S'\xd6\x87m\x04_\xa5\x00@'
p1797
tp1798
Rp1799
tp1800
a(S'iht'
p1801
g1781
I3
I904
g5
(g9
S'\xb1+\xe7\xaa\xea\x98\xfe?'
p1802
tp1803
Rp1804
tp1805
a(S'sto-iht'
p1806
S'icml'
p1807
I3
I904
g5
(g9
S'Y\xf9\xa8~9\xbd\x04@'
p1808
tp1809
Rp1810
tp1811
a(S'cosamp'
p1812
g1807
I3
I904
g5
(g9
S'\x97\xfa\x0b\x0c\xe3x\x04@'
p1813
tp1814
Rp1815
tp1816
a(S'graph-iht'
p1817
g1807
I3
I904
g5
(g9
S'BW\x17\x8e{\x1c\xfa?'
p1818
tp1819
Rp1820
tp1821
a(S'graph-cosamp'
p1822
g1807
I3
I904
g5
(g9
S'\xcb8g\x1d\xf0\xdf\x01@'
p1823
tp1824
Rp1825
tp1826
a(S'graph-sto-iht'
p1827
g1807
I3
I904
g5
(g9
S'm\xb0\xcb\x8e\xe2\xef\x8d>'
p1828
tp1829
Rp1830
tp1831
a(S'niht'
p1832
S'icml'
p1833
I3
I945
g5
(g9
S'\xfb<\xfa%oJ\xf7?'
p1834
tp1835
Rp1836
tp1837
a(S'iht'
p1838
g1833
I3
I945
g5
(g9
S'\xd19 \xa3\x9a\xf2\xf3?'
p1839
tp1840
Rp1841
tp1842
a(S'sto-iht'
p1843
g1833
I3
I945
g5
(g9
S'u9\x96\xe7\xd3\xdd\x00@'
p1844
tp1845
Rp1846
tp1847
a(S'cosamp'
p1848
g1833
I3
I945
g5
(g9
S'2\xa9\xd3\xac\x0c\x00\x03@'
p1849
tp1850
Rp1851
tp1852
a(S'graph-iht'
p1853
g1833
I3
I945
g5
(g9
S'\x1e\xc0\xd2\x8b\x005\xf7?'
p1854
tp1855
Rp1856
tp1857
a(S'graph-cosamp'
p1858
S'icml'
p1859
I3
I945
g5
(g9
S'\x13\xf1\xcb\xa0$\xda\xff?'
p1860
tp1861
Rp1862
tp1863
a(S'graph-sto-iht'
p1864
g1859
I3
I945
g5
(g9
S'\x7f\xdaJ\xce\x08\xac\x8c>'
p1865
tp1866
Rp1867
tp1868
a(S'niht'
p1869
g1859
I3
I986
g5
(g9
S'\xf4T:\xc8s\xb4\xed?'
p1870
tp1871
Rp1872
tp1873
a(S'iht'
p1874
g1859
I3
I986
g5
(g9
S'\xc1\xd1\x00\xae\xde\x87\xf2?'
p1875
tp1876
Rp1877
tp1878
a(S'sto-iht'
p1879
g1859
I3
I986
g5
(g9
S'\x91\xb6\xb5\x9e\x1e\xab\xf6?'
p1880
tp1881
Rp1882
tp1883
a(S'cosamp'
p1884
S'icml'
p1885
I3
I986
g5
(g9
S'\x0c\x19\xbb\xf8\xb9\x19\x00@'
p1886
tp1887
Rp1888
tp1889
a(S'graph-iht'
p1890
g1885
I3
I986
g5
(g9
S'C\xb9\xe6vN\xe2\xf5?'
p1891
tp1892
Rp1893
tp1894
a(S'graph-cosamp'
p1895
g1885
I3
I986
g5
(g9
S'Y\x8e\x1bi\xf0\xf1\xfe?'
p1896
tp1897
Rp1898
tp1899
a(S'graph-sto-iht'
p1900
g1885
I3
I986
g5
(g9
S'S\xb7\xbb\xc4\x1a\x1c\x8b>'
p1901
tp1902
Rp1903
tp1904
a(S'niht'
p1905
g1885
I3
I1027
g5
(g9
S'\x99\x16\x84N\xce\x8b\xf2?'
p1906
tp1907
Rp1908
tp1909
a(S'iht'
p1910
S'icml'
p1911
I3
I1027
g5
(g9
S'$\xfc\x1dnQ/\xe7?'
p1912
tp1913
Rp1914
tp1915
a(S'sto-iht'
p1916
g1911
I3
I1027
g5
(g9
S'\x18\xab\xc5ZB\xc7\xf9?'
p1917
tp1918
Rp1919
tp1920
a(S'cosamp'
p1921
g1911
I3
I1027
g5
(g9
S'\xe0\xbe\xfb~\xee\x1f\xfc?'
p1922
tp1923
Rp1924
tp1925
a(S'graph-iht'
p1926
g1911
I3
I1027
g5
(g9
S'\xd2V\xe7\x142\x11\xf2?'
p1927
tp1928
Rp1929
tp1930
a(S'graph-cosamp'
p1931
g1911
I3
I1027
g5
(g9
S'\xf6\xc2\xe0\xd94\x16\xf7?'
p1932
tp1933
Rp1934
tp1935
a(S'graph-sto-iht'
p1936
S'icml'
p1937
I3
I1027
g5
(g9
S'\xd2\xe1\xf5t\xc5~\x8b>'
p1938
tp1939
Rp1940
tp1941
a(S'niht'
p1942
g1937
I3
I1068
g5
(g9
S'\x1d\x90z*k`\x8a>'
p1943
tp1944
Rp1945
tp1946
a(S'iht'
p1947
g1937
I3
I1068
g5
(g9
S'\xa0\xdf\xb0\xf2F(\x90>'
p1948
tp1949
Rp1950
tp1951
a(S'sto-iht'
p1952
g1937
I3
I1068
g5
(g9
S'\xb6F\xc4V\xf7>\x86>'
p1953
tp1954
Rp1955
tp1956
a(S'cosamp'
p1957
g1937
I3
I1068
g5
(g9
S'd#\xf7@\xe3\x8b(@'
p1958
tp1959
Rp1960
tp1961
a(S'graph-iht'
p1962
S'icml'
p1963
I3
I1068
g5
(g9
S'\xd9\xdab\xad\xe3\x86\xf1?'
p1964
tp1965
Rp1966
tp1967
a(S'graph-cosamp'
p1968
g1963
I3
I1068
g5
(g9
S'\xd7\n\xc5F\x1cC;@'
p1969
tp1970
Rp1971
tp1972
a(S'graph-sto-iht'
p1973
g1963
I3
I1068
g5
(g9
S'\x88\x99F\x8a\xb7\x88\x88>'
p1974
tp1975
Rp1976
tp1977
a(S'niht'
p1978
g1963
I3
I1109
g5
(g9
S'\x1d\x06X/\x07\xb8\x8e>'
p1979
tp1980
Rp1981
tp1982
a(S'iht'
p1983
g1963
I3
I1109
g5
(g9
S'^\xe6\xfed\r\xc8\x8f>'
p1984
tp1985
Rp1986
tp1987
a(S'sto-iht'
p1988
S'icml'
p1989
I3
I1109
g5
(g9
S'x7X|v\x08\x8c>'
p1990
tp1991
Rp1992
tp1993
a(S'cosamp'
p1994
g1989
I3
I1109
g5
(g9
S'\xc6pt\xc2u\xc9.@'
p1995
tp1996
Rp1997
tp1998
a(S'graph-iht'
p1999
g1989
I3
I1109
g5
(g9
S'\x88\x12\xf3\xb4mE\xef?'
p2000
tp2001
Rp2002
tp2003
a(S'graph-cosamp'
p2004
g1989
I3
I1109
g5
(g9
S'\x0c\x0fw\xdc\xeb%@@'
p2005
tp2006
Rp2007
tp2008
a(S'graph-sto-iht'
p2009
g1989
I3
I1109
g5
(g9
S'\xee1\x8d\x8b\x1f\xee\x87>'
p2010
tp2011
Rp2012
tp2013
a(S'niht'
p2014
S'icml'
p2015
I3
I1150
g5
(g9
S')^\x7f\xedjI\x90>'
p2016
tp2017
Rp2018
tp2019
a(S'iht'
p2020
g2015
I3
I1150
g5
(g9
S'Y\x83n\xbeS\x06\x8f>'
p2021
tp2022
Rp2023
tp2024
a(S'sto-iht'
p2025
g2015
I3
I1150
g5
(g9
S'_\xa2\xf98S\xe2\x87>'
p2026
tp2027
Rp2028
tp2029
a(S'cosamp'
p2030
g2015
I3
I1150
g5
(g9
S'6\x12\x11\xd1\xcf\x11\x1c@'
p2031
tp2032
Rp2033
tp2034
a(S'graph-iht'
p2035
g2015
I3
I1150
g5
(g9
S'l\xcfL\xc3\xcfI\xef?'
p2036
tp2037
Rp2038
tp2039
a(S'graph-cosamp'
p2040
S'icml'
p2041
I3
I1150
g5
(g9
S'\xe0\xe8\xd9\xad\xf1T\x15='
p2042
tp2043
Rp2044
tp2045
a(S'graph-sto-iht'
p2046
g2041
I3
I1150
g5
(g9
S'\xcc\x90\x18t\x00\xd4\x86>'
p2047
tp2048
Rp2049
tp2050
a(S'niht'
p2051
g2041
I3
I1191
g5
(g9
S'\xa6\xfb\xf9O\x90x\x8c>'
p2052
tp2053
Rp2054
tp2055
a(S'iht'
p2056
g2041
I3
I1191
g5
(g9
S'#{T!/\x9a\x8d>'
p2057
tp2058
Rp2059
tp2060
a(S'sto-iht'
p2061
g2041
I3
I1191
g5
(g9
S'\x86t\xf8[\xfb6\x8a>'
p2062
tp2063
Rp2064
tp2065
a(S'cosamp'
p2066
S'icml'
p2067
I3
I1191
g5
(g9
S'\x1e~\xe8\x81B\x88\x12='
p2068
tp2069
Rp2070
tp2071
a(S'graph-iht'
p2072
g2067
I3
I1191
g5
(g9
S"\x1a\xb9\x90'(\x9f\xe9?"
p2073
tp2074
Rp2075
tp2076
a(S'graph-cosamp'
p2077
g2067
I3
I1191
g5
(g9
S'_8\xa5\x9d5\xfe\x11='
p2078
tp2079
Rp2080
tp2081
a(S'graph-sto-iht'
p2082
g2067
I3
I1191
g5
(g9
S'=\x15\xf6\x1f\rC\x89>'
p2083
tp2084
Rp2085
tp2086
a(S'niht'
p2087
g2067
I3
I1233
g5
(g9
S'R\xf6XVz\x81\x8d>'
p2088
tp2089
Rp2090
tp2091
a(S'iht'
p2092
S'icml'
p2093
I3
I1233
g5
(g9
S'\x89\xca@\x15\xb2\xe4\x8c>'
p2094
tp2095
Rp2096
tp2097
a(S'sto-iht'
p2098
g2093
I3
I1233
g5
(g9
S'T\xa9\x10\xc0\xac\x84\x83>'
p2099
tp2100
Rp2101
tp2102
a(S'cosamp'
p2103
g2093
I3
I1233
g5
(g9
S'\xde\x8f\xab\xa9t\xa4\x10='
p2104
tp2105
Rp2106
tp2107
a(S'graph-iht'
p2108
g2093
I3
I1233
g5
(g9
S'\t\x1b\xcfb\t\x08\xe7?'
p2109
tp2110
Rp2111
tp2112
a(S'graph-cosamp'
p2113
g2093
I3
I1233
g5
(g9
S'\x1am\xd5 *\x15\x13='
p2114
tp2115
Rp2116
tp2117
a(S'graph-sto-iht'
p2118
S'icml'
p2119
I3
I1233
g5
(g9
S'uevt\x10\xd0\x88>'
p2120
tp2121
Rp2122
tp2123
a(S'niht'
p2124
g2119
I3
I1274
g5
(g9
S'6\xf9h\xe5\x12\xb8\x83>'
p2125
tp2126
Rp2127
tp2128
a(S'iht'
p2129
g2119
I3
I1274
g5
(g9
S'\xce\xd0\xa4\x97\x14\xc1\x8c>'
p2130
tp2131
Rp2132
tp2133
a(S'sto-iht'
p2134
g2119
I3
I1274
g5
(g9
S'\xe4\x81\x17,\xfb]\x85>'
p2135
tp2136
Rp2137
tp2138
a(S'cosamp'
p2139
g2119
I3
I1274
g5
(g9
S'\x85\xb7\x9d\x11~\x10\x10='
p2140
tp2141
Rp2142
tp2143
a(S'graph-iht'
p2144
S'icml'
p2145
I3
I1274
g5
(g9
S'X\xb3\xe6\x87\xf6\xc7\x8b>'
p2146
tp2147
Rp2148
tp2149
a(S'graph-cosamp'
p2150
g2145
I3
I1274
g5
(g9
S'\xfev\xda\xd473\x11='
p2151
tp2152
Rp2153
tp2154
a(S'graph-sto-iht'
p2155
g2145
I3
I1274
g5
(g9
S'\x9ef.m\x88l\x83>'
p2156
tp2157
Rp2158
tp2159
a(S'niht'
p2160
g2145
I3
I1315
g5
(g9
S'\xdf\x80:l\x88\x7f\x89>'
p2161
tp2162
Rp2163
tp2164
a(S'iht'
p2165
g2145
I3
I1315
g5
(g9
S'\xcf\xac\xa1|\xb7\xf3\x8c>'
p2166
tp2167
Rp2168
tp2169
a(S'sto-iht'
p2170
S'icml'
p2171
I3
I1315
g5
(g9
S'\xec:`\xe9[\xae\x86>'
p2172
tp2173
Rp2174
tp2175
a(S'cosamp'
p2176
g2171
I3
I1315
g5
(g9
S'\xf7}\xe2\xdf\xa8\xc4\x0b='
p2177
tp2178
Rp2179
tp2180
a(S'graph-iht'
p2181
g2171
I3
I1315
g5
(g9
S'U\xcf \xab\xc7\x94\x8c>'
p2182
tp2183
Rp2184
tp2185
a(S'graph-cosamp'
p2186
g2171
I3
I1315
g5
(g9
S'PC\xfe\xe1\x8e\xca\r='
p2187
tp2188
Rp2189
tp2190
a(S'graph-sto-iht'
p2191
g2171
I3
I1315
g5
(g9
S'\xfe\xed\x12\xb9*X\x84>'
p2192
tp2193
Rp2194
tp2195
a(S'niht'
p2196
S'icml'
p2197
I3
I1356
g5
(g9
S'\xd5*\x1dy%\xe9\x85>'
p2198
tp2199
Rp2200
tp2201
a(S'iht'
p2202
g2197
I3
I1356
g5
(g9
S'\xc0b\x99\x16/E\x8c>'
p2203
tp2204
Rp2205
tp2206
a(S'sto-iht'
p2207
g2197
I3
I1356
g5
(g9
S'\xc6\xdc_0_\x1e\x88>'
p2208
tp2209
Rp2210
tp2211
a(S'cosamp'
p2212
g2197
I3
I1356
g5
(g9
S'\x89&c\xe7\xc3\x06\x0e='
p2213
tp2214
Rp2215
tp2216
a(S'graph-iht'
p2217
g2197
I3
I1356
g5
(g9
S'N\x08^t\xdb\xfb\x8a>'
p2218
tp2219
Rp2220
tp2221
a(S'graph-cosamp'
p2222
S'icml'
p2223
I3
I1356
g5
(g9
S'Wz\x84+" \x10='
p2224
tp2225
Rp2226
tp2227
a(S'graph-sto-iht'
p2228
g2223
I3
I1356
g5
(g9
S'\x87\xf8\x99x#\x04\x89>'
p2229
tp2230
Rp2231
tp2232
a(S'niht'
p2233
g2223
I3
I1397
g5
(g9
S'\xc1[\xccJ\xec\x90\x89>'
p2234
tp2235
Rp2236
tp2237
a(S'iht'
p2238
g2223
I3
I1397
g5
(g9
S'\xa0\xb7Qa9\xc9\x8b>'
p2239
tp2240
Rp2241
tp2242
a(S'sto-iht'
p2243
g2223
I3
I1397
g5
(g9
S'\xafA\x1c\xbfW\xd8\x88>'
p2244
tp2245
Rp2246
tp2247
a(S'cosamp'
p2248
S'icml'
p2249
I3
I1397
g5
(g9
S'_\xc75A\xd6\xef\n='
p2250
tp2251
Rp2252
tp2253
a(S'graph-iht'
p2254
g2249
I3
I1397
g5
(g9
S'\x96\xb3\x05S`\x02\x89>'
p2255
tp2256
Rp2257
tp2258
a(S'graph-cosamp'
p2259
g2249
I3
I1397
g5
(g9
S'H\x1bR\xb8\x7f;\x0b='
p2260
tp2261
Rp2262
tp2263
a(S'graph-sto-iht'
p2264
g2249
I3
I1397
g5
(g9
S'\x9a\xces+\xf8I\x88>'
p2265
tp2266
Rp2267
tp2268
a(S'niht'
p2269
g2249
I3
I1438
g5
(g9
S'\x11\x18\x98\xf2\xd5\x95\x86>'
p2270
tp2271
Rp2272
tp2273
a(S'iht'
p2274
S'icml'
p2275
I3
I1438
g5
(g9
S';4\xab\xf5\x00\xc6\x89>'
p2276
tp2277
Rp2278
tp2279
a(S'sto-iht'
p2280
g2275
I3
I1438
g5
(g9
S'@%\xaf\xdbO\xeb\x80>'
p2281
tp2282
Rp2283
tp2284
a(S'cosamp'
p2285
g2275
I3
I1438
g5
(g9
S'N\xd3\x13\xa6]\xfe\x0b='
p2286
tp2287
Rp2288
tp2289
a(S'graph-iht'
p2290
g2275
I3
I1438
g5
(g9
S'j\x9at{\xc2J\x89>'
p2291
tp2292
Rp2293
tp2294
a(S'graph-cosamp'
p2295
g2275
I3
I1438
g5
(g9
S'\xddxm\xe2u\xbd\t='
p2296
tp2297
Rp2298
tp2299
a(S'graph-sto-iht'
p2300
S'icml'
p2301
I3
I1438
g5
(g9
S'Q\xac\xcb\xef\x8b1\x86>'
p2302
tp2303
Rp2304
tp2305
as.